(dp1
S'output'
p2
S''
sS'layer'
p3
S'/home/derek/Dropbox/SEng265-Share/pe2/codeAct_1.01/web2py/applications/codeAct/controllers/ca_controller.py'
p4
sS'code'
p5
S"import sys\nimport time\nimport os\n\nimport ca_quiz as Quiz\nimport ca_log_create as log_create\n\nsys.path.append('applications/codeAct/controllers')\nimport ca_utility as utility\n\nsys.path.append('applications/codeAct/views/ca_controller')\nimport ca_question_HTML as question_HTML\n\nSERVERNAME = 'cdoku'\n\ndef ca_login():\n\tif not 'username' in request.vars.keys(): # not a submission\n\t\treturn dict(msg='')\n\telse: # request is a submission\n\t\t# get user list\n\t\tuser_list = 'allowed_users.txt'\n\t\t# check if student is registered in SENG265\n\t\tusers = open(os.path.join('../users/',user_list),\n\t\t 'r').read().split('\\n')\n\t\tif not request.vars['username'] in users:\n\t\t\treturn dict(\n\t\t\t msg = 'Not registered in the current session.')\n\t\t# authenticate username and password\n\t\tif os.uname()[1] == SERVERNAME:\n\t\t\tseng_auth = __import__('ca_seng_auth')\n\t\t\tif seng_auth.authenticate(request.vars['username'],\n\t\t\t request.vars['password']) != 0:\n\t\t\t\treturn dict(msg='Wrong username or password.')\n\t\tsession.login = request.vars['username']\n\t\tredirect(URL(r=request, f='quiz'))\n\ndef quiz():\n\t# the beginning of the quiz, create quiz and init answer_list\n\tif 'quiz_spec' in request.vars.keys():\n\t\tsession['quiz'] = Quiz.quiz(request.vars['quiz_spec'])\n\t\tsession['answer_list'] = utility.init_answer_list(\n\t\t session['quiz'])\n\t\t# initialize question_timer\n\t\tsession['question_timer'] = int(time.time())\n\t\t# reset the login\n\t\tif 'login' in session.keys():\n\t\t\tdel session['login']\n\n\t# if quiz does not exist, redirect to home page\n\tif not 'quiz' in session.keys():\n\t\tredirect(URL(r=request, f='ca_index'))\n\n\t# check login in marked mode\n\tif not 'login' in session.keys():\n\t\tif not session['quiz'].practice_mode: \n\t\t\tredirect(URL(r=request, f='ca_login'))\n\t\telse:\n\t\t\tsession['login'] = ''\n\n\t# init log_dir and log\n\tif session['quiz'].logged:\n\t\tlog_create.create_log(session['quiz'].log_dir,\n\t\t session['login'])\n\n\t# generate HTML code\n\tquestion_number = utility.get_question_number(request.vars)\n\tquestion = session['quiz'].get_question(question_number-1)\n\tutility.update_answer(question,question_number,session['answer_list'],\n\t request.vars)\n\tcode = question_HTML.generate_html(session['quiz'],question_number,\n\t session['answer_list'][question_number-1])\n\tcode = utility.get_result(code,question,question_number,\n\t session['quiz'].logged,session['quiz'].log_dir,\n\t session['quiz'].practice_mode,session['login'],\n\t session['answer_list'][question_number-1],\n\t request.vars,session['question_timer'])\n\tcode = utility.add_submit_label(code,session['quiz'].practice_mode)\n\tcode = utility.disable_navi_buttons(code,question_number,\n\t session['quiz'])\n\n\t# update question timer\n\tsession['question_timer'] = int(time.time())\n\treturn code\n\nresponse._vars=response._caller(quiz)\n"
p6
sS'snapshot'
p7
(dp8
S'exception'
p9
(dp10
S'__hash__'
p11
S"<method-wrapper '__hash__' of exceptions.TypeError object>"
p12
sS'__setattr__'
p13
S"<method-wrapper '__setattr__' of exceptions.TypeError object>"
p14
sS'__reduce_ex__'
p15
S'<built-in method __reduce_ex__ of exceptions.TypeError object>'
p16
sS'__getslice__'
p17
S"<method-wrapper '__getslice__' of exceptions.TypeError object>"
p18
sS'__getitem__'
p19
S"<method-wrapper '__getitem__' of exceptions.TypeError object>"
p20
sS'__setstate__'
p21
S'<built-in method __setstate__ of exceptions.TypeError object>'
p22
sS'__reduce__'
p23
S'<built-in method __reduce__ of exceptions.TypeError object>'
p24
sS'__str__'
p25
S"<method-wrapper '__str__' of exceptions.TypeError object>"
p26
sS'__format__'
p27
S'<built-in method __format__ of exceptions.TypeError object>'
p28
sS'__getattribute__'
p29
S"<method-wrapper '__getattribute__' of exceptions.TypeError object>"
p30
sS'__class__'
p31
S"<type 'exceptions.TypeError'>"
p32
sS'__unicode__'
p33
S'<built-in method __unicode__ of exceptions.TypeError object>'
p34
sS'__delattr__'
p35
S"<method-wrapper '__delattr__' of exceptions.TypeError object>"
p36
sS'__subclasshook__'
p37
S'<built-in method __subclasshook__ of type object>'
p38
sS'__repr__'
p39
S"<method-wrapper '__repr__' of exceptions.TypeError object>"
p40
sS'args'
p41
S'("cannot concatenate \'str\' and \'list\' objects",)'
p42
sS'__dict__'
p43
S'{}'
p44
sS'__sizeof__'
p45
S'<built-in method __sizeof__ of exceptions.TypeError object>'
p46
sS'__doc__'
p47
S"'Inappropriate argument type.'"
p48
sS'__init__'
p49
S"<method-wrapper '__init__' of exceptions.TypeError object>"
p50
sS'__new__'
p51
S'<built-in method __new__ of type object>'
p52
ssS'evalue'
p53
S"cannot concatenate 'str' and 'list' objects"
p54
sS'request'
p55
ccopy_reg
_reconstructor
p56
(cgluon.html
BEAUTIFY
p57
c__builtin__
object
p58
NtRp59
(dp60
S'attributes'
p61
(dp62
sS'components'
p63
(lp64
g56
(cgluon.html
TABLE
p65
g58
NtRp66
(dp67
g61
(dp68
S'level'
p69
I5
ssS'parent'
p70
Nsg63
(lp71
g56
(cgluon.html
TR
p72
g58
NtRp73
(dp74
g61
(dp75
sg70
g66
sg63
(lp76
g56
(cgluon.html
TD
p77
g58
NtRp78
(dp79
g61
(dp80
S'_style'
p81
S'font-weight:bold;'
p82
ssg70
g73
sg63
(lp83
S'ajax'
p84
asbag56
(g77
g58
NtRp85
(dp86
g61
(dp87
S'_valign'
p88
S'top'
p89
ssg70
g73
sg63
(lp90
S':'
asbag56
(g77
g58
NtRp91
(dp92
g61
(dp93
sg70
g73
sg63
(lp94
g56
(g57
g58
NtRp95
(dp96
g61
(dp97
g69
I5
ssg70
g91
sg63
(lp98
S'False'
p99
asbasbasbag56
(g72
g58
NtRp100
(dp101
g61
(dp102
sg70
g66
sg63
(lp103
g56
(g77
g58
NtRp104
(dp105
g61
(dp106
g81
g82
ssg70
g100
sg63
(lp107
S'application'
p108
asbag56
(g77
g58
NtRp109
(dp110
g61
(dp111
g88
g89
ssg70
g100
sg63
(lp112
S':'
asbag56
(g77
g58
NtRp113
(dp114
g61
(dp115
sg70
g100
sg63
(lp116
g56
(g57
g58
NtRp117
(dp118
g61
(dp119
g69
I5
ssg70
g113
sg63
(lp120
S'codeAct'
p121
asbasbasbag56
(g72
g58
NtRp122
(dp123
g61
(dp124
sg70
g66
sg63
(lp125
g56
(g77
g58
NtRp126
(dp127
g61
(dp128
g81
g82
ssg70
g122
sg63
(lp129
g41
asbag56
(g77
g58
NtRp130
(dp131
g61
(dp132
g88
g89
ssg70
g122
sg63
(lp133
S':'
asbag56
(g77
g58
NtRp134
(dp135
g61
(dp136
sg70
g122
sg63
(lp137
g56
(g57
g58
NtRp138
(dp139
g61
(dp140
g69
I5
ssg70
g134
sg63
(lp141
g56
(g65
g58
NtRp142
(dp143
g61
(dp144
g69
I4
ssg70
Nsg63
(lp145
sbasbasbasbag56
(g72
g58
NtRp146
(dp147
g61
(dp148
sg70
g66
sg63
(lp149
g56
(g77
g58
NtRp150
(dp151
g61
(dp152
g81
g82
ssg70
g146
sg63
(lp153
S'body'
p154
asbag56
(g77
g58
NtRp155
(dp156
g61
(dp157
g88
g89
ssg70
g146
sg63
(lp158
S':'
asbag56
(g77
g58
NtRp159
(dp160
g61
(dp161
sg70
g146
sg63
(lp162
g56
(g57
g58
NtRp163
(dp164
g61
(dp165
g69
I5
ssg70
g159
sg63
(lp166
S'<cStringIO.StringO object at 0x9a67aa0>'
p167
asbasbasbag56
(g72
g58
NtRp168
(dp169
g61
(dp170
sg70
g66
sg63
(lp171
g56
(g77
g58
NtRp172
(dp173
g61
(dp174
g81
g82
ssg70
g168
sg63
(lp175
S'client'
p176
asbag56
(g77
g58
NtRp177
(dp178
g61
(dp179
g88
g89
ssg70
g168
sg63
(lp180
S':'
asbag56
(g77
g58
NtRp181
(dp182
g61
(dp183
sg70
g168
sg63
(lp184
g56
(g57
g58
NtRp185
(dp186
g61
(dp187
g69
I5
ssg70
g181
sg63
(lp188
S'127.0.0.1'
p189
asbasbasbag56
(g72
g58
NtRp190
(dp191
g61
(dp192
sg70
g66
sg63
(lp193
g56
(g77
g58
NtRp194
(dp195
g61
(dp196
g81
g82
ssg70
g190
sg63
(lp197
S'controller'
p198
asbag56
(g77
g58
NtRp199
(dp200
g61
(dp201
g88
g89
ssg70
g190
sg63
(lp202
S':'
asbag56
(g77
g58
NtRp203
(dp204
g61
(dp205
sg70
g190
sg63
(lp206
g56
(g57
g58
NtRp207
(dp208
g61
(dp209
g69
I5
ssg70
g203
sg63
(lp210
S'ca_controller'
p211
asbasbasbag56
(g72
g58
NtRp212
(dp213
g61
(dp214
sg70
g66
sg63
(lp215
g56
(g77
g58
NtRp216
(dp217
g61
(dp218
g81
g82
ssg70
g212
sg63
(lp219
S'cookies'
p220
asbag56
(g77
g58
NtRp221
(dp222
g61
(dp223
g88
g89
ssg70
g212
sg63
(lp224
S':'
asbag56
(g77
g58
NtRp225
(dp226
g61
(dp227
sg70
g212
sg63
(lp228
g56
(g57
g58
NtRp229
(dp230
g61
(dp231
g69
I5
ssg70
g225
sg63
(lp232
g56
(g65
g58
NtRp233
(dp234
g61
(dp235
g69
I4
ssg70
Nsg63
(lp236
g56
(g72
g58
NtRp237
(dp238
g61
(dp239
sg70
g233
sg63
(lp240
g56
(g77
g58
NtRp241
(dp242
g61
(dp243
g81
g82
ssg70
g237
sg63
(lp244
S'session_id_codeact'
p245
asbag56
(g77
g58
NtRp246
(dp247
g61
(dp248
g88
g89
ssg70
g237
sg63
(lp249
S':'
asbag56
(g77
g58
NtRp250
(dp251
g61
(dp252
sg70
g237
sg63
(lp253
g56
(g57
g58
NtRp254
(dp255
g61
(dp256
g69
I4
ssg70
g250
sg63
(lp257
g56
(g65
g58
NtRp258
(dp259
g61
(dp260
g69
I3
ssg70
Nsg63
(lp261
g56
(g72
g58
NtRp262
(dp263
g61
(dp264
sg70
g258
sg63
(lp265
g56
(g77
g58
NtRp266
(dp267
g61
(dp268
g81
g82
ssg70
g262
sg63
(lp269
S'comment'
p270
asbag56
(g77
g58
NtRp271
(dp272
g61
(dp273
g88
g89
ssg70
g262
sg63
(lp274
S':'
asbag56
(g77
g58
NtRp275
(dp276
g61
(dp277
sg70
g262
sg63
(lp278
g56
(g57
g58
NtRp279
(dp280
g61
(dp281
g69
I3
ssg70
g275
sg63
(lp282
S''
asbasbasbag56
(g72
g58
NtRp283
(dp284
g61
(dp285
sg70
g258
sg63
(lp286
g56
(g77
g58
NtRp287
(dp288
g61
(dp289
g81
g82
ssg70
g283
sg63
(lp290
S'domain'
p291
asbag56
(g77
g58
NtRp292
(dp293
g61
(dp294
g88
g89
ssg70
g283
sg63
(lp295
S':'
asbag56
(g77
g58
NtRp296
(dp297
g61
(dp298
sg70
g283
sg63
(lp299
g56
(g57
g58
NtRp300
(dp301
g61
(dp302
g69
I3
ssg70
g296
sg63
(lp303
S''
asbasbasbag56
(g72
g58
NtRp304
(dp305
g61
(dp306
sg70
g258
sg63
(lp307
g56
(g77
g58
NtRp308
(dp309
g61
(dp310
g81
g82
ssg70
g304
sg63
(lp311
S'expires'
p312
asbag56
(g77
g58
NtRp313
(dp314
g61
(dp315
g88
g89
ssg70
g304
sg63
(lp316
S':'
asbag56
(g77
g58
NtRp317
(dp318
g61
(dp319
sg70
g304
sg63
(lp320
g56
(g57
g58
NtRp321
(dp322
g61
(dp323
g69
I3
ssg70
g317
sg63
(lp324
S''
asbasbasbag56
(g72
g58
NtRp325
(dp326
g61
(dp327
sg70
g258
sg63
(lp328
g56
(g77
g58
NtRp329
(dp330
g61
(dp331
g81
g82
ssg70
g325
sg63
(lp332
S'httponly'
p333
asbag56
(g77
g58
NtRp334
(dp335
g61
(dp336
g88
g89
ssg70
g325
sg63
(lp337
S':'
asbag56
(g77
g58
NtRp338
(dp339
g61
(dp340
sg70
g325
sg63
(lp341
g56
(g57
g58
NtRp342
(dp343
g61
(dp344
g69
I3
ssg70
g338
sg63
(lp345
S''
asbasbasbag56
(g72
g58
NtRp346
(dp347
g61
(dp348
sg70
g258
sg63
(lp349
g56
(g77
g58
NtRp350
(dp351
g61
(dp352
g81
g82
ssg70
g346
sg63
(lp353
S'max-age'
p354
asbag56
(g77
g58
NtRp355
(dp356
g61
(dp357
g88
g89
ssg70
g346
sg63
(lp358
S':'
asbag56
(g77
g58
NtRp359
(dp360
g61
(dp361
sg70
g346
sg63
(lp362
g56
(g57
g58
NtRp363
(dp364
g61
(dp365
g69
I3
ssg70
g359
sg63
(lp366
S''
asbasbasbag56
(g72
g58
NtRp367
(dp368
g61
(dp369
sg70
g258
sg63
(lp370
g56
(g77
g58
NtRp371
(dp372
g61
(dp373
g81
g82
ssg70
g367
sg63
(lp374
S'path'
p375
asbag56
(g77
g58
NtRp376
(dp377
g61
(dp378
g88
g89
ssg70
g367
sg63
(lp379
S':'
asbag56
(g77
g58
NtRp380
(dp381
g61
(dp382
sg70
g367
sg63
(lp383
g56
(g57
g58
NtRp384
(dp385
g61
(dp386
g69
I3
ssg70
g380
sg63
(lp387
S''
asbasbasbag56
(g72
g58
NtRp388
(dp389
g61
(dp390
sg70
g258
sg63
(lp391
g56
(g77
g58
NtRp392
(dp393
g61
(dp394
g81
g82
ssg70
g388
sg63
(lp395
S'secure'
p396
asbag56
(g77
g58
NtRp397
(dp398
g61
(dp399
g88
g89
ssg70
g388
sg63
(lp400
S':'
asbag56
(g77
g58
NtRp401
(dp402
g61
(dp403
sg70
g388
sg63
(lp404
g56
(g57
g58
NtRp405
(dp406
g61
(dp407
g69
I3
ssg70
g401
sg63
(lp408
S''
asbasbasbag56
(g72
g58
NtRp409
(dp410
g61
(dp411
sg70
g258
sg63
(lp412
g56
(g77
g58
NtRp413
(dp414
g61
(dp415
g81
g82
ssg70
g409
sg63
(lp416
S'version'
p417
asbag56
(g77
g58
NtRp418
(dp419
g61
(dp420
g88
g89
ssg70
g409
sg63
(lp421
S':'
asbag56
(g77
g58
NtRp422
(dp423
g61
(dp424
sg70
g409
sg63
(lp425
g56
(g57
g58
NtRp426
(dp427
g61
(dp428
g69
I3
ssg70
g422
sg63
(lp429
S''
asbasbasbasbasbasbasbasbasbasbasbag56
(g72
g58
NtRp430
(dp431
g61
(dp432
sg70
g66
sg63
(lp433
g56
(g77
g58
NtRp434
(dp435
g61
(dp436
g81
g82
ssg70
g430
sg63
(lp437
S'env'
p438
asbag56
(g77
g58
NtRp439
(dp440
g61
(dp441
g88
g89
ssg70
g430
sg63
(lp442
S':'
asbag56
(g77
g58
NtRp443
(dp444
g61
(dp445
sg70
g430
sg63
(lp446
g56
(g57
g58
NtRp447
(dp448
g61
(dp449
g69
I5
ssg70
g443
sg63
(lp450
g56
(g65
g58
NtRp451
(dp452
g61
(dp453
g69
I4
ssg70
Nsg63
(lp454
g56
(g72
g58
NtRp455
(dp456
g61
(dp457
sg70
g451
sg63
(lp458
g56
(g77
g58
NtRp459
(dp460
g61
(dp461
g81
g82
ssg70
g455
sg63
(lp462
S'app_folders'
p463
asbag56
(g77
g58
NtRp464
(dp465
g61
(dp466
g88
g89
ssg70
g455
sg63
(lp467
S':'
asbag56
(g77
g58
NtRp468
(dp469
g61
(dp470
sg70
g455
sg63
(lp471
g56
(g57
g58
NtRp472
(dp473
g61
(dp474
g69
I4
ssg70
g468
sg63
(lp475
S"set(['/home/derek/Dropbox/SEng265-Share/pe2/codeAct_1.01/web2py/applications/codeAct/'])"
p476
asbasbasbag56
(g72
g58
NtRp477
(dp478
g61
(dp479
sg70
g451
sg63
(lp480
g56
(g77
g58
NtRp481
(dp482
g61
(dp483
g81
g82
ssg70
g477
sg63
(lp484
S'applications_parent'
p485
asbag56
(g77
g58
NtRp486
(dp487
g61
(dp488
g88
g89
ssg70
g477
sg63
(lp489
S':'
asbag56
(g77
g58
NtRp490
(dp491
g61
(dp492
sg70
g477
sg63
(lp493
g56
(g57
g58
NtRp494
(dp495
g61
(dp496
g69
I4
ssg70
g490
sg63
(lp497
S'/home/derek/Dropbox/SEng265-Share/pe2/codeAct_1.01/web2py'
p498
asbasbasbag56
(g72
g58
NtRp499
(dp500
g61
(dp501
sg70
g451
sg63
(lp502
g56
(g77
g58
NtRp503
(dp504
g61
(dp505
g81
g82
ssg70
g499
sg63
(lp506
S'cmd_args'
p507
asbag56
(g77
g58
NtRp508
(dp509
g61
(dp510
g88
g89
ssg70
g499
sg63
(lp511
S':'
asbag56
(g77
g58
NtRp512
(dp513
g61
(dp514
sg70
g499
sg63
(lp515
g56
(g57
g58
NtRp516
(dp517
g61
(dp518
g69
I4
ssg70
g512
sg63
(lp519
g56
(g65
g58
NtRp520
(dp521
g61
(dp522
g69
I3
ssg70
Nsg63
(lp523
sbasbasbasbag56
(g72
g58
NtRp524
(dp525
g61
(dp526
sg70
g451
sg63
(lp527
g56
(g77
g58
NtRp528
(dp529
g61
(dp530
g81
g82
ssg70
g524
sg63
(lp531
S'cmd_options'
p532
asbag56
(g77
g58
NtRp533
(dp534
g61
(dp535
g88
g89
ssg70
g524
sg63
(lp536
S':'
asbag56
(g77
g58
NtRp537
(dp538
g61
(dp539
sg70
g524
sg63
(lp540
g56
(g57
g58
NtRp541
(dp542
g61
(dp543
g69
I4
ssg70
g537
sg63
(lp544
S"<Values at 0x99998ac: {'verbose': False, 'ip': '127.0.0.1', 'shutdown_timeout': 5, 'taskbar': False, 'port': 8080, 'maxthreads': None, 'softcron': False, 'server_name': 'ubu', 'bpython': False, 'nogui': False, 'nocron': False, 'extcron': False, 'debuglevel': 30, 'test': None, 'folder': '/home/derek/Dropbox/SEng265-Share/pe2/codeAct_1.01/web2py', 'config': '', 'import_models': False, 'winservice': '', 'shell': None, 'run': '', 'log_filename': 'httpserver.log', 'args': [''], 'profiler_filename': None, 'ssl_private_key': '', 'password': 'password', 'request_queue_size': 5, 'ssl_certificate': '', 'cronjob': False, 'plain': False, 'quiet': False, 'interfaces': None, 'minthreads': None, 'timeout': 10, 'numthreads': None, 'pid_filename': 'httpserver.pid'}>"
p545
asbasbasbag56
(g72
g58
NtRp546
(dp547
g61
(dp548
sg70
g451
sg63
(lp549
g56
(g77
g58
NtRp550
(dp551
g61
(dp552
g81
g82
ssg70
g546
sg63
(lp553
S'db_sessions'
p554
asbag56
(g77
g58
NtRp555
(dp556
g61
(dp557
g88
g89
ssg70
g546
sg63
(lp558
S':'
asbag56
(g77
g58
NtRp559
(dp560
g61
(dp561
sg70
g546
sg63
(lp562
g56
(g57
g58
NtRp563
(dp564
g61
(dp565
g69
I4
ssg70
g559
sg63
(lp566
S'set([])'
p567
asbasbasbag56
(g72
g58
NtRp568
(dp569
g61
(dp570
sg70
g451
sg63
(lp571
g56
(g77
g58
NtRp572
(dp573
g61
(dp574
g81
g82
ssg70
g568
sg63
(lp575
S'debugging'
p576
asbag56
(g77
g58
NtRp577
(dp578
g61
(dp579
g88
g89
ssg70
g568
sg63
(lp580
S':'
asbag56
(g77
g58
NtRp581
(dp582
g61
(dp583
sg70
g568
sg63
(lp584
g56
(g57
g58
NtRp585
(dp586
g61
(dp587
g69
I4
ssg70
g581
sg63
(lp588
g99
asbasbasbag56
(g72
g58
NtRp589
(dp590
g61
(dp591
sg70
g451
sg63
(lp592
g56
(g77
g58
NtRp593
(dp594
g61
(dp595
g81
g82
ssg70
g589
sg63
(lp596
S'gluon_parent'
p597
asbag56
(g77
g58
NtRp598
(dp599
g61
(dp600
g88
g89
ssg70
g589
sg63
(lp601
S':'
asbag56
(g77
g58
NtRp602
(dp603
g61
(dp604
sg70
g589
sg63
(lp605
g56
(g57
g58
NtRp606
(dp607
g61
(dp608
g69
I4
ssg70
g602
sg63
(lp609
S'/home/derek/Dropbox/SEng265-Share/pe2/codeAct_1.01/web2py'
p610
asbasbasbag56
(g72
g58
NtRp611
(dp612
g61
(dp613
sg70
g451
sg63
(lp614
g56
(g77
g58
NtRp615
(dp616
g61
(dp617
g81
g82
ssg70
g611
sg63
(lp618
S'http_accept'
p619
asbag56
(g77
g58
NtRp620
(dp621
g61
(dp622
g88
g89
ssg70
g611
sg63
(lp623
S':'
asbag56
(g77
g58
NtRp624
(dp625
g61
(dp626
sg70
g611
sg63
(lp627
g56
(g57
g58
NtRp628
(dp629
g61
(dp630
g69
I4
ssg70
g624
sg63
(lp631
S'text/html,application/xhtml+xml,application/xml;q=0.9,*/*;q=0.8'
p632
asbasbasbag56
(g72
g58
NtRp633
(dp634
g61
(dp635
sg70
g451
sg63
(lp636
g56
(g77
g58
NtRp637
(dp638
g61
(dp639
g81
g82
ssg70
g633
sg63
(lp640
S'http_accept_charset'
p641
asbag56
(g77
g58
NtRp642
(dp643
g61
(dp644
g88
g89
ssg70
g633
sg63
(lp645
S':'
asbag56
(g77
g58
NtRp646
(dp647
g61
(dp648
sg70
g633
sg63
(lp649
g56
(g57
g58
NtRp650
(dp651
g61
(dp652
g69
I4
ssg70
g646
sg63
(lp653
S'ISO-8859-1,utf-8;q=0.7,*;q=0.7'
p654
asbasbasbag56
(g72
g58
NtRp655
(dp656
g61
(dp657
sg70
g451
sg63
(lp658
g56
(g77
g58
NtRp659
(dp660
g61
(dp661
g81
g82
ssg70
g655
sg63
(lp662
S'http_accept_encoding'
p663
asbag56
(g77
g58
NtRp664
(dp665
g61
(dp666
g88
g89
ssg70
g655
sg63
(lp667
S':'
asbag56
(g77
g58
NtRp668
(dp669
g61
(dp670
sg70
g655
sg63
(lp671
g56
(g57
g58
NtRp672
(dp673
g61
(dp674
g69
I4
ssg70
g668
sg63
(lp675
S'gzip, deflate'
p676
asbasbasbag56
(g72
g58
NtRp677
(dp678
g61
(dp679
sg70
g451
sg63
(lp680
g56
(g77
g58
NtRp681
(dp682
g61
(dp683
g81
g82
ssg70
g677
sg63
(lp684
S'http_accept_language'
p685
asbag56
(g77
g58
NtRp686
(dp687
g61
(dp688
g88
g89
ssg70
g677
sg63
(lp689
S':'
asbag56
(g77
g58
NtRp690
(dp691
g61
(dp692
sg70
g677
sg63
(lp693
g56
(g57
g58
NtRp694
(dp695
g61
(dp696
g69
I4
ssg70
g690
sg63
(lp697
S'en-us,en;q=0.5'
p698
asbasbasbag56
(g72
g58
NtRp699
(dp700
g61
(dp701
sg70
g451
sg63
(lp702
g56
(g77
g58
NtRp703
(dp704
g61
(dp705
g81
g82
ssg70
g699
sg63
(lp706
S'http_connection'
p707
asbag56
(g77
g58
NtRp708
(dp709
g61
(dp710
g88
g89
ssg70
g699
sg63
(lp711
S':'
asbag56
(g77
g58
NtRp712
(dp713
g61
(dp714
sg70
g699
sg63
(lp715
g56
(g57
g58
NtRp716
(dp717
g61
(dp718
g69
I4
ssg70
g712
sg63
(lp719
S'keep-alive'
p720
asbasbasbag56
(g72
g58
NtRp721
(dp722
g61
(dp723
sg70
g451
sg63
(lp724
g56
(g77
g58
NtRp725
(dp726
g61
(dp727
g81
g82
ssg70
g721
sg63
(lp728
S'http_cookie'
p729
asbag56
(g77
g58
NtRp730
(dp731
g61
(dp732
g88
g89
ssg70
g721
sg63
(lp733
S':'
asbag56
(g77
g58
NtRp734
(dp735
g61
(dp736
sg70
g721
sg63
(lp737
g56
(g57
g58
NtRp738
(dp739
g61
(dp740
g69
I4
ssg70
g734
sg63
(lp741
S'session_id_codeact=127.0.0.1-d1d831bb-53ed-4595-ba8e-79f8327f07e5'
p742
asbasbasbag56
(g72
g58
NtRp743
(dp744
g61
(dp745
sg70
g451
sg63
(lp746
g56
(g77
g58
NtRp747
(dp748
g61
(dp749
g81
g82
ssg70
g743
sg63
(lp750
S'http_host'
p751
asbag56
(g77
g58
NtRp752
(dp753
g61
(dp754
g88
g89
ssg70
g743
sg63
(lp755
S':'
asbag56
(g77
g58
NtRp756
(dp757
g61
(dp758
sg70
g743
sg63
(lp759
g56
(g57
g58
NtRp760
(dp761
g61
(dp762
g69
I4
ssg70
g756
sg63
(lp763
S'localhost:8080'
p764
asbasbasbag56
(g72
g58
NtRp765
(dp766
g61
(dp767
sg70
g451
sg63
(lp768
g56
(g77
g58
NtRp769
(dp770
g61
(dp771
g81
g82
ssg70
g765
sg63
(lp772
S'http_referer'
p773
asbag56
(g77
g58
NtRp774
(dp775
g61
(dp776
g88
g89
ssg70
g765
sg63
(lp777
S':'
asbag56
(g77
g58
NtRp778
(dp779
g61
(dp780
sg70
g765
sg63
(lp781
g56
(g57
g58
NtRp782
(dp783
g61
(dp784
g69
I4
ssg70
g778
sg63
(lp785
S'http://localhost:8080/codeAct/ca_controller/quiz.html?quiz_spec=../quiz_specs/sort_quiz_spec'
p786
asbasbasbag56
(g72
g58
NtRp787
(dp788
g61
(dp789
sg70
g451
sg63
(lp790
g56
(g77
g58
NtRp791
(dp792
g61
(dp793
g81
g82
ssg70
g787
sg63
(lp794
S'http_user_agent'
p795
asbag56
(g77
g58
NtRp796
(dp797
g61
(dp798
g88
g89
ssg70
g787
sg63
(lp799
S':'
asbag56
(g77
g58
NtRp800
(dp801
g61
(dp802
sg70
g787
sg63
(lp803
g56
(g57
g58
NtRp804
(dp805
g61
(dp806
g69
I4
ssg70
g800
sg63
(lp807
S'Mozilla/5.0 (X11; Linux i686; rv:5.0) Gecko/20100101 Firefox/5.0'
p808
asbasbasbag56
(g72
g58
NtRp809
(dp810
g61
(dp811
sg70
g451
sg63
(lp812
g56
(g77
g58
NtRp813
(dp814
g61
(dp815
g81
g82
ssg70
g809
sg63
(lp816
S'path_info'
p817
asbag56
(g77
g58
NtRp818
(dp819
g61
(dp820
g88
g89
ssg70
g809
sg63
(lp821
S':'
asbag56
(g77
g58
NtRp822
(dp823
g61
(dp824
sg70
g809
sg63
(lp825
g56
(g57
g58
NtRp826
(dp827
g61
(dp828
g69
I4
ssg70
g822
sg63
(lp829
S'/codeAct/ca_controller/quiz.html'
p830
asbasbasbag56
(g72
g58
NtRp831
(dp832
g61
(dp833
sg70
g451
sg63
(lp834
g56
(g77
g58
NtRp835
(dp836
g61
(dp837
g81
g82
ssg70
g831
sg63
(lp838
S'query_string'
p839
asbag56
(g77
g58
NtRp840
(dp841
g61
(dp842
g88
g89
ssg70
g831
sg63
(lp843
S':'
asbag56
(g77
g58
NtRp844
(dp845
g61
(dp846
sg70
g831
sg63
(lp847
g56
(g57
g58
NtRp848
(dp849
g61
(dp850
g69
I4
ssg70
g844
sg63
(lp851
S'but=Check+answer&%24y0=1&%24y0=0&%24y0=0&currqn=1'
p852
asbasbasbag56
(g72
g58
NtRp853
(dp854
g61
(dp855
sg70
g451
sg63
(lp856
g56
(g77
g58
NtRp857
(dp858
g61
(dp859
g81
g82
ssg70
g853
sg63
(lp860
S'remote_addr'
p861
asbag56
(g77
g58
NtRp862
(dp863
g61
(dp864
g88
g89
ssg70
g853
sg63
(lp865
S':'
asbag56
(g77
g58
NtRp866
(dp867
g61
(dp868
sg70
g853
sg63
(lp869
g56
(g57
g58
NtRp870
(dp871
g61
(dp872
g69
I4
ssg70
g866
sg63
(lp873
g189
asbasbasbag56
(g72
g58
NtRp874
(dp875
g61
(dp876
sg70
g451
sg63
(lp877
g56
(g77
g58
NtRp878
(dp879
g61
(dp880
g81
g82
ssg70
g874
sg63
(lp881
S'remote_port'
p882
asbag56
(g77
g58
NtRp883
(dp884
g61
(dp885
g88
g89
ssg70
g874
sg63
(lp886
S':'
asbag56
(g77
g58
NtRp887
(dp888
g61
(dp889
sg70
g874
sg63
(lp890
g56
(g57
g58
NtRp891
(dp892
g61
(dp893
g69
I4
ssg70
g887
sg63
(lp894
S'59583'
p895
asbasbasbag56
(g72
g58
NtRp896
(dp897
g61
(dp898
sg70
g451
sg63
(lp899
g56
(g77
g58
NtRp900
(dp901
g61
(dp902
g81
g82
ssg70
g896
sg63
(lp903
S'request_method'
p904
asbag56
(g77
g58
NtRp905
(dp906
g61
(dp907
g88
g89
ssg70
g896
sg63
(lp908
S':'
asbag56
(g77
g58
NtRp909
(dp910
g61
(dp911
sg70
g896
sg63
(lp912
g56
(g57
g58
NtRp913
(dp914
g61
(dp915
g69
I4
ssg70
g909
sg63
(lp916
S'GET'
p917
asbasbasbag56
(g72
g58
NtRp918
(dp919
g61
(dp920
sg70
g451
sg63
(lp921
g56
(g77
g58
NtRp922
(dp923
g61
(dp924
g81
g82
ssg70
g918
sg63
(lp925
S'script_name'
p926
asbag56
(g77
g58
NtRp927
(dp928
g61
(dp929
g88
g89
ssg70
g918
sg63
(lp930
S':'
asbag56
(g77
g58
NtRp931
(dp932
g61
(dp933
sg70
g918
sg63
(lp934
g56
(g57
g58
NtRp935
(dp936
g61
(dp937
g69
I4
ssg70
g931
sg63
(lp938
S''
asbasbasbag56
(g72
g58
NtRp939
(dp940
g61
(dp941
sg70
g451
sg63
(lp942
g56
(g77
g58
NtRp943
(dp944
g61
(dp945
g81
g82
ssg70
g939
sg63
(lp946
S'server_name'
p947
asbag56
(g77
g58
NtRp948
(dp949
g61
(dp950
g88
g89
ssg70
g939
sg63
(lp951
S':'
asbag56
(g77
g58
NtRp952
(dp953
g61
(dp954
sg70
g939
sg63
(lp955
g56
(g57
g58
NtRp956
(dp957
g61
(dp958
g69
I4
ssg70
g952
sg63
(lp959
S'ubu'
p960
asbasbasbag56
(g72
g58
NtRp961
(dp962
g61
(dp963
sg70
g451
sg63
(lp964
g56
(g77
g58
NtRp965
(dp966
g61
(dp967
g81
g82
ssg70
g961
sg63
(lp968
S'server_port'
p969
asbag56
(g77
g58
NtRp970
(dp971
g61
(dp972
g88
g89
ssg70
g961
sg63
(lp973
S':'
asbag56
(g77
g58
NtRp974
(dp975
g61
(dp976
sg70
g961
sg63
(lp977
g56
(g57
g58
NtRp978
(dp979
g61
(dp980
g69
I4
ssg70
g974
sg63
(lp981
S'8080'
p982
asbasbasbag56
(g72
g58
NtRp983
(dp984
g61
(dp985
sg70
g451
sg63
(lp986
g56
(g77
g58
NtRp987
(dp988
g61
(dp989
g81
g82
ssg70
g983
sg63
(lp990
S'server_protocol'
p991
asbag56
(g77
g58
NtRp992
(dp993
g61
(dp994
g88
g89
ssg70
g983
sg63
(lp995
S':'
asbag56
(g77
g58
NtRp996
(dp997
g61
(dp998
sg70
g983
sg63
(lp999
g56
(g57
g58
NtRp1000
(dp1001
g61
(dp1002
g69
I4
ssg70
g996
sg63
(lp1003
S'HTTP/1.1'
p1004
asbasbasbag56
(g72
g58
NtRp1005
(dp1006
g61
(dp1007
sg70
g451
sg63
(lp1008
g56
(g77
g58
NtRp1009
(dp1010
g61
(dp1011
g81
g82
ssg70
g1005
sg63
(lp1012
S'server_software'
p1013
asbag56
(g77
g58
NtRp1014
(dp1015
g61
(dp1016
g88
g89
ssg70
g1005
sg63
(lp1017
S':'
asbag56
(g77
g58
NtRp1018
(dp1019
g61
(dp1020
sg70
g1005
sg63
(lp1021
g56
(g57
g58
NtRp1022
(dp1023
g61
(dp1024
g69
I4
ssg70
g1018
sg63
(lp1025
S'Rocket 1.2.2'
p1026
asbasbasbag56
(g72
g58
NtRp1027
(dp1028
g61
(dp1029
sg70
g451
sg63
(lp1030
g56
(g77
g58
NtRp1031
(dp1032
g61
(dp1033
g81
g82
ssg70
g1027
sg63
(lp1034
S'web2py_crontype'
p1035
asbag56
(g77
g58
NtRp1036
(dp1037
g61
(dp1038
g88
g89
ssg70
g1027
sg63
(lp1039
S':'
asbag56
(g77
g58
NtRp1040
(dp1041
g61
(dp1042
sg70
g1027
sg63
(lp1043
g56
(g57
g58
NtRp1044
(dp1045
g61
(dp1046
g69
I4
ssg70
g1040
sg63
(lp1047
S'hard'
p1048
asbasbasbag56
(g72
g58
NtRp1049
(dp1050
g61
(dp1051
sg70
g451
sg63
(lp1052
g56
(g77
g58
NtRp1053
(dp1054
g61
(dp1055
g81
g82
ssg70
g1049
sg63
(lp1056
S'web2py_path'
p1057
asbag56
(g77
g58
NtRp1058
(dp1059
g61
(dp1060
g88
g89
ssg70
g1049
sg63
(lp1061
S':'
asbag56
(g77
g58
NtRp1062
(dp1063
g61
(dp1064
sg70
g1049
sg63
(lp1065
g56
(g57
g58
NtRp1066
(dp1067
g61
(dp1068
g69
I4
ssg70
g1062
sg63
(lp1069
g498
asbasbasbag56
(g72
g58
NtRp1070
(dp1071
g61
(dp1072
sg70
g451
sg63
(lp1073
g56
(g77
g58
NtRp1074
(dp1075
g61
(dp1076
g81
g82
ssg70
g1070
sg63
(lp1077
S'web2py_version'
p1078
asbag56
(g77
g58
NtRp1079
(dp1080
g61
(dp1081
g88
g89
ssg70
g1070
sg63
(lp1082
S':'
asbag56
(g77
g58
NtRp1083
(dp1084
g61
(dp1085
sg70
g1070
sg63
(lp1086
g56
(g57
g58
NtRp1087
(dp1088
g61
(dp1089
g69
I4
ssg70
g1083
sg63
(lp1090
S'Version 1.95.1 (2011-04-25 15:04:14)\n'
p1091
asbasbasbag56
(g72
g58
NtRp1092
(dp1093
g61
(dp1094
sg70
g451
sg63
(lp1095
g56
(g77
g58
NtRp1096
(dp1097
g61
(dp1098
g81
g82
ssg70
g1092
sg63
(lp1099
S'wsgi_errors'
p1100
asbag56
(g77
g58
NtRp1101
(dp1102
g61
(dp1103
g88
g89
ssg70
g1092
sg63
(lp1104
S':'
asbag56
(g77
g58
NtRp1105
(dp1106
g61
(dp1107
sg70
g1092
sg63
(lp1108
g56
(g57
g58
NtRp1109
(dp1110
g61
(dp1111
g69
I4
ssg70
g1105
sg63
(lp1112
S"<open file '<stderr>', mode 'w' at 0xb78600d0>"
p1113
asbasbasbag56
(g72
g58
NtRp1114
(dp1115
g61
(dp1116
sg70
g451
sg63
(lp1117
g56
(g77
g58
NtRp1118
(dp1119
g61
(dp1120
g81
g82
ssg70
g1114
sg63
(lp1121
S'wsgi_file_wrapper'
p1122
asbag56
(g77
g58
NtRp1123
(dp1124
g61
(dp1125
g88
g89
ssg70
g1114
sg63
(lp1126
S':'
asbag56
(g77
g58
NtRp1127
(dp1128
g61
(dp1129
sg70
g1114
sg63
(lp1130
g56
(g57
g58
NtRp1131
(dp1132
g61
(dp1133
g69
I4
ssg70
g1127
sg63
(lp1134
S'<class gluon.rocket.FileWrapper at 0x995514c>'
p1135
asbasbasbag56
(g72
g58
NtRp1136
(dp1137
g61
(dp1138
sg70
g451
sg63
(lp1139
g56
(g77
g58
NtRp1140
(dp1141
g61
(dp1142
g81
g82
ssg70
g1136
sg63
(lp1143
S'wsgi_input'
p1144
asbag56
(g77
g58
NtRp1145
(dp1146
g61
(dp1147
g88
g89
ssg70
g1136
sg63
(lp1148
S':'
asbag56
(g77
g58
NtRp1149
(dp1150
g61
(dp1151
sg70
g1136
sg63
(lp1152
g56
(g57
g58
NtRp1153
(dp1154
g61
(dp1155
g69
I4
ssg70
g1149
sg63
(lp1156
S'<socket._fileobject object at 0x9a4c9ac>'
p1157
asbasbasbag56
(g72
g58
NtRp1158
(dp1159
g61
(dp1160
sg70
g451
sg63
(lp1161
g56
(g77
g58
NtRp1162
(dp1163
g61
(dp1164
g81
g82
ssg70
g1158
sg63
(lp1165
S'wsgi_multiprocess'
p1166
asbag56
(g77
g58
NtRp1167
(dp1168
g61
(dp1169
g88
g89
ssg70
g1158
sg63
(lp1170
S':'
asbag56
(g77
g58
NtRp1171
(dp1172
g61
(dp1173
sg70
g1158
sg63
(lp1174
g56
(g57
g58
NtRp1175
(dp1176
g61
(dp1177
g69
I4
ssg70
g1171
sg63
(lp1178
g99
asbasbasbag56
(g72
g58
NtRp1179
(dp1180
g61
(dp1181
sg70
g451
sg63
(lp1182
g56
(g77
g58
NtRp1183
(dp1184
g61
(dp1185
g81
g82
ssg70
g1179
sg63
(lp1186
S'wsgi_multithread'
p1187
asbag56
(g77
g58
NtRp1188
(dp1189
g61
(dp1190
g88
g89
ssg70
g1179
sg63
(lp1191
S':'
asbag56
(g77
g58
NtRp1192
(dp1193
g61
(dp1194
sg70
g1179
sg63
(lp1195
g56
(g57
g58
NtRp1196
(dp1197
g61
(dp1198
g69
I4
ssg70
g1192
sg63
(lp1199
S'True'
p1200
asbasbasbag56
(g72
g58
NtRp1201
(dp1202
g61
(dp1203
sg70
g451
sg63
(lp1204
g56
(g77
g58
NtRp1205
(dp1206
g61
(dp1207
g81
g82
ssg70
g1201
sg63
(lp1208
S'wsgi_run_once'
p1209
asbag56
(g77
g58
NtRp1210
(dp1211
g61
(dp1212
g88
g89
ssg70
g1201
sg63
(lp1213
S':'
asbag56
(g77
g58
NtRp1214
(dp1215
g61
(dp1216
sg70
g1201
sg63
(lp1217
g56
(g57
g58
NtRp1218
(dp1219
g61
(dp1220
g69
I4
ssg70
g1214
sg63
(lp1221
g99
asbasbasbag56
(g72
g58
NtRp1222
(dp1223
g61
(dp1224
sg70
g451
sg63
(lp1225
g56
(g77
g58
NtRp1226
(dp1227
g61
(dp1228
g81
g82
ssg70
g1222
sg63
(lp1229
S'wsgi_url_scheme'
p1230
asbag56
(g77
g58
NtRp1231
(dp1232
g61
(dp1233
g88
g89
ssg70
g1222
sg63
(lp1234
S':'
asbag56
(g77
g58
NtRp1235
(dp1236
g61
(dp1237
sg70
g1222
sg63
(lp1238
g56
(g57
g58
NtRp1239
(dp1240
g61
(dp1241
g69
I4
ssg70
g1235
sg63
(lp1242
S'http'
p1243
asbasbasbag56
(g72
g58
NtRp1244
(dp1245
g61
(dp1246
sg70
g451
sg63
(lp1247
g56
(g77
g58
NtRp1248
(dp1249
g61
(dp1250
g81
g82
ssg70
g1244
sg63
(lp1251
S'wsgi_version'
p1252
asbag56
(g77
g58
NtRp1253
(dp1254
g61
(dp1255
g88
g89
ssg70
g1244
sg63
(lp1256
S':'
asbag56
(g77
g58
NtRp1257
(dp1258
g61
(dp1259
sg70
g1244
sg63
(lp1260
g56
(g57
g58
NtRp1261
(dp1262
g61
(dp1263
g69
I4
ssg70
g1257
sg63
(lp1264
g56
(g65
g58
NtRp1265
(dp1266
g61
(dp1267
g69
I3
ssg70
Nsg63
(lp1268
g56
(g72
g58
NtRp1269
(dp1270
g61
(dp1271
sg70
g1265
sg63
(lp1272
g56
(g77
g58
NtRp1273
(dp1274
g61
(dp1275
sg70
g1269
sg63
(lp1276
g56
(g57
g58
NtRp1277
(dp1278
g61
(dp1279
g69
I3
ssg70
g1273
sg63
(lp1280
S'1'
asbasbasbag56
(g72
g58
NtRp1281
(dp1282
g61
(dp1283
sg70
g1265
sg63
(lp1284
g56
(g77
g58
NtRp1285
(dp1286
g61
(dp1287
sg70
g1281
sg63
(lp1288
g56
(g57
g58
NtRp1289
(dp1290
g61
(dp1291
g69
I3
ssg70
g1285
sg63
(lp1292
S'0'
asbasbasbasbasbasbasbasbasbasbasbag56
(g72
g58
NtRp1293
(dp1294
g61
(dp1295
sg70
g66
sg63
(lp1296
g56
(g77
g58
NtRp1297
(dp1298
g61
(dp1299
g81
g82
ssg70
g1293
sg63
(lp1300
S'extension'
p1301
asbag56
(g77
g58
NtRp1302
(dp1303
g61
(dp1304
g88
g89
ssg70
g1293
sg63
(lp1305
S':'
asbag56
(g77
g58
NtRp1306
(dp1307
g61
(dp1308
sg70
g1293
sg63
(lp1309
g56
(g57
g58
NtRp1310
(dp1311
g61
(dp1312
g69
I5
ssg70
g1306
sg63
(lp1313
S'html'
p1314
asbasbasbag56
(g72
g58
NtRp1315
(dp1316
g61
(dp1317
sg70
g66
sg63
(lp1318
g56
(g77
g58
NtRp1319
(dp1320
g61
(dp1321
g81
g82
ssg70
g1315
sg63
(lp1322
S'folder'
p1323
asbag56
(g77
g58
NtRp1324
(dp1325
g61
(dp1326
g88
g89
ssg70
g1315
sg63
(lp1327
S':'
asbag56
(g77
g58
NtRp1328
(dp1329
g61
(dp1330
sg70
g1315
sg63
(lp1331
g56
(g57
g58
NtRp1332
(dp1333
g61
(dp1334
g69
I5
ssg70
g1328
sg63
(lp1335
S'/home/derek/Dropbox/SEng265-Share/pe2/codeAct_1.01/web2py/applications/codeAct/'
p1336
asbasbasbag56
(g72
g58
NtRp1337
(dp1338
g61
(dp1339
sg70
g66
sg63
(lp1340
g56
(g77
g58
NtRp1341
(dp1342
g61
(dp1343
g81
g82
ssg70
g1337
sg63
(lp1344
S'function'
p1345
asbag56
(g77
g58
NtRp1346
(dp1347
g61
(dp1348
g88
g89
ssg70
g1337
sg63
(lp1349
S':'
asbag56
(g77
g58
NtRp1350
(dp1351
g61
(dp1352
sg70
g1337
sg63
(lp1353
g56
(g57
g58
NtRp1354
(dp1355
g61
(dp1356
g69
I5
ssg70
g1350
sg63
(lp1357
S'quiz'
p1358
asbasbasbag56
(g72
g58
NtRp1359
(dp1360
g61
(dp1361
sg70
g66
sg63
(lp1362
g56
(g77
g58
NtRp1363
(dp1364
g61
(dp1365
g81
g82
ssg70
g1359
sg63
(lp1366
S'get_vars'
p1367
asbag56
(g77
g58
NtRp1368
(dp1369
g61
(dp1370
g88
g89
ssg70
g1359
sg63
(lp1371
S':'
asbag56
(g77
g58
NtRp1372
(dp1373
g61
(dp1374
sg70
g1359
sg63
(lp1375
g56
(g57
g58
NtRp1376
(dp1377
g61
(dp1378
g69
I5
ssg70
g1372
sg63
(lp1379
g56
(g65
g58
NtRp1380
(dp1381
g61
(dp1382
g69
I4
ssg70
Nsg63
(lp1383
g56
(g72
g58
NtRp1384
(dp1385
g61
(dp1386
sg70
g1380
sg63
(lp1387
g56
(g77
g58
NtRp1388
(dp1389
g61
(dp1390
g81
g82
ssg70
g1384
sg63
(lp1391
S'$y0'
p1392
asbag56
(g77
g58
NtRp1393
(dp1394
g61
(dp1395
g88
g89
ssg70
g1384
sg63
(lp1396
S':'
asbag56
(g77
g58
NtRp1397
(dp1398
g61
(dp1399
sg70
g1384
sg63
(lp1400
g56
(g57
g58
NtRp1401
(dp1402
g61
(dp1403
g69
I4
ssg70
g1397
sg63
(lp1404
g56
(g65
g58
NtRp1405
(dp1406
g61
(dp1407
g69
I3
ssg70
Nsg63
(lp1408
g56
(g72
g58
NtRp1409
(dp1410
g61
(dp1411
sg70
g1405
sg63
(lp1412
g56
(g77
g58
NtRp1413
(dp1414
g61
(dp1415
sg70
g1409
sg63
(lp1416
g56
(g57
g58
NtRp1417
(dp1418
g61
(dp1419
g69
I3
ssg70
g1413
sg63
(lp1420
S'1'
asbasbasbag56
(g72
g58
NtRp1421
(dp1422
g61
(dp1423
sg70
g1405
sg63
(lp1424
g56
(g77
g58
NtRp1425
(dp1426
g61
(dp1427
sg70
g1421
sg63
(lp1428
g56
(g57
g58
NtRp1429
(dp1430
g61
(dp1431
g69
I3
ssg70
g1425
sg63
(lp1432
S'0'
asbasbasbag56
(g72
g58
NtRp1433
(dp1434
g61
(dp1435
sg70
g1405
sg63
(lp1436
g56
(g77
g58
NtRp1437
(dp1438
g61
(dp1439
sg70
g1433
sg63
(lp1440
g56
(g57
g58
NtRp1441
(dp1442
g61
(dp1443
g69
I3
ssg70
g1437
sg63
(lp1444
S'0'
asbasbasbasbasbasbasbag56
(g72
g58
NtRp1445
(dp1446
g61
(dp1447
sg70
g1380
sg63
(lp1448
g56
(g77
g58
NtRp1449
(dp1450
g61
(dp1451
g81
g82
ssg70
g1445
sg63
(lp1452
S'but'
p1453
asbag56
(g77
g58
NtRp1454
(dp1455
g61
(dp1456
g88
g89
ssg70
g1445
sg63
(lp1457
S':'
asbag56
(g77
g58
NtRp1458
(dp1459
g61
(dp1460
sg70
g1445
sg63
(lp1461
g56
(g57
g58
NtRp1462
(dp1463
g61
(dp1464
g69
I4
ssg70
g1458
sg63
(lp1465
S'Check answer'
p1466
asbasbasbag56
(g72
g58
NtRp1467
(dp1468
g61
(dp1469
sg70
g1380
sg63
(lp1470
g56
(g77
g58
NtRp1471
(dp1472
g61
(dp1473
g81
g82
ssg70
g1467
sg63
(lp1474
S'currqn'
p1475
asbag56
(g77
g58
NtRp1476
(dp1477
g61
(dp1478
g88
g89
ssg70
g1467
sg63
(lp1479
S':'
asbag56
(g77
g58
NtRp1480
(dp1481
g61
(dp1482
sg70
g1467
sg63
(lp1483
g56
(g57
g58
NtRp1484
(dp1485
g61
(dp1486
g69
I4
ssg70
g1480
sg63
(lp1487
S'1'
asbasbasbasbasbasbasbag56
(g72
g58
NtRp1488
(dp1489
g61
(dp1490
sg70
g66
sg63
(lp1491
g56
(g77
g58
NtRp1492
(dp1493
g61
(dp1494
g81
g82
ssg70
g1488
sg63
(lp1495
S'is_restful'
p1496
asbag56
(g77
g58
NtRp1497
(dp1498
g61
(dp1499
g88
g89
ssg70
g1488
sg63
(lp1500
S':'
asbag56
(g77
g58
NtRp1501
(dp1502
g61
(dp1503
sg70
g1488
sg63
(lp1504
g56
(g57
g58
NtRp1505
(dp1506
g61
(dp1507
g69
I5
ssg70
g1501
sg63
(lp1508
g99
asbasbasbag56
(g72
g58
NtRp1509
(dp1510
g61
(dp1511
sg70
g66
sg63
(lp1512
g56
(g77
g58
NtRp1513
(dp1514
g61
(dp1515
g81
g82
ssg70
g1509
sg63
(lp1516
S'now'
p1517
asbag56
(g77
g58
NtRp1518
(dp1519
g61
(dp1520
g88
g89
ssg70
g1509
sg63
(lp1521
S':'
asbag56
(g77
g58
NtRp1522
(dp1523
g61
(dp1524
sg70
g1509
sg63
(lp1525
g56
(g57
g58
NtRp1526
(dp1527
g61
(dp1528
g69
I5
ssg70
g1522
sg63
(lp1529
S'datetime.datetime(2011, 7, 3, 15, 18, 38, 281631)'
p1530
asbasbasbag56
(g72
g58
NtRp1531
(dp1532
g61
(dp1533
sg70
g66
sg63
(lp1534
g56
(g77
g58
NtRp1535
(dp1536
g61
(dp1537
g81
g82
ssg70
g1531
sg63
(lp1538
S'post_vars'
p1539
asbag56
(g77
g58
NtRp1540
(dp1541
g61
(dp1542
g88
g89
ssg70
g1531
sg63
(lp1543
S':'
asbag56
(g77
g58
NtRp1544
(dp1545
g61
(dp1546
sg70
g1531
sg63
(lp1547
g56
(g57
g58
NtRp1548
(dp1549
g61
(dp1550
g69
I5
ssg70
g1544
sg63
(lp1551
g56
(g65
g58
NtRp1552
(dp1553
g61
(dp1554
g69
I4
ssg70
Nsg63
(lp1555
sbasbasbasbag56
(g72
g58
NtRp1556
(dp1557
g61
(dp1558
sg70
g66
sg63
(lp1559
g56
(g77
g58
NtRp1560
(dp1561
g61
(dp1562
g81
g82
ssg70
g1556
sg63
(lp1563
S'raw_extension'
p1564
asbag56
(g77
g58
NtRp1565
(dp1566
g61
(dp1567
g88
g89
ssg70
g1556
sg63
(lp1568
S':'
asbag56
(g77
g58
NtRp1569
(dp1570
g61
(dp1571
sg70
g1556
sg63
(lp1572
g56
(g57
g58
NtRp1573
(dp1574
g61
(dp1575
g69
I5
ssg70
g1569
sg63
(lp1576
g1314
asbasbasbag56
(g72
g58
NtRp1577
(dp1578
g61
(dp1579
sg70
g66
sg63
(lp1580
g56
(g77
g58
NtRp1581
(dp1582
g61
(dp1583
g81
g82
ssg70
g1577
sg63
(lp1584
S'url'
p1585
asbag56
(g77
g58
NtRp1586
(dp1587
g61
(dp1588
g88
g89
ssg70
g1577
sg63
(lp1589
S':'
asbag56
(g77
g58
NtRp1590
(dp1591
g61
(dp1592
sg70
g1577
sg63
(lp1593
g56
(g57
g58
NtRp1594
(dp1595
g61
(dp1596
g69
I5
ssg70
g1590
sg63
(lp1597
S'/codeAct/ca_controller/quiz.html'
p1598
asbasbasbag56
(g72
g58
NtRp1599
(dp1600
g61
(dp1601
sg70
g66
sg63
(lp1602
g56
(g77
g58
NtRp1603
(dp1604
g61
(dp1605
g81
g82
ssg70
g1599
sg63
(lp1606
S'uuid'
p1607
asbag56
(g77
g58
NtRp1608
(dp1609
g61
(dp1610
g88
g89
ssg70
g1599
sg63
(lp1611
S':'
asbag56
(g77
g58
NtRp1612
(dp1613
g61
(dp1614
sg70
g1599
sg63
(lp1615
g56
(g57
g58
NtRp1616
(dp1617
g61
(dp1618
g69
I5
ssg70
g1612
sg63
(lp1619
S'codeAct/127.0.0.1.2011-07-03.15-18-38.56be80ca-42c9-4913-8989-4c909b47d248'
p1620
asbasbasbag56
(g72
g58
NtRp1621
(dp1622
g61
(dp1623
sg70
g66
sg63
(lp1624
g56
(g77
g58
NtRp1625
(dp1626
g61
(dp1627
g81
g82
ssg70
g1621
sg63
(lp1628
S'vars'
p1629
asbag56
(g77
g58
NtRp1630
(dp1631
g61
(dp1632
g88
g89
ssg70
g1621
sg63
(lp1633
S':'
asbag56
(g77
g58
NtRp1634
(dp1635
g61
(dp1636
sg70
g1621
sg63
(lp1637
g56
(g57
g58
NtRp1638
(dp1639
g61
(dp1640
g69
I5
ssg70
g1634
sg63
(lp1641
g56
(g65
g58
NtRp1642
(dp1643
g61
(dp1644
g69
I4
ssg70
Nsg63
(lp1645
g56
(g72
g58
NtRp1646
(dp1647
g61
(dp1648
sg70
g1642
sg63
(lp1649
g56
(g77
g58
NtRp1650
(dp1651
g61
(dp1652
g81
g82
ssg70
g1646
sg63
(lp1653
g1392
asbag56
(g77
g58
NtRp1654
(dp1655
g61
(dp1656
g88
g89
ssg70
g1646
sg63
(lp1657
S':'
asbag56
(g77
g58
NtRp1658
(dp1659
g61
(dp1660
sg70
g1646
sg63
(lp1661
g56
(g57
g58
NtRp1662
(dp1663
g61
(dp1664
g69
I4
ssg70
g1658
sg63
(lp1665
g56
(g65
g58
NtRp1666
(dp1667
g61
(dp1668
g69
I3
ssg70
Nsg63
(lp1669
g56
(g72
g58
NtRp1670
(dp1671
g61
(dp1672
sg70
g1666
sg63
(lp1673
g56
(g77
g58
NtRp1674
(dp1675
g61
(dp1676
sg70
g1670
sg63
(lp1677
g56
(g57
g58
NtRp1678
(dp1679
g61
(dp1680
g69
I3
ssg70
g1674
sg63
(lp1681
S'1'
asbasbasbag56
(g72
g58
NtRp1682
(dp1683
g61
(dp1684
sg70
g1666
sg63
(lp1685
g56
(g77
g58
NtRp1686
(dp1687
g61
(dp1688
sg70
g1682
sg63
(lp1689
g56
(g57
g58
NtRp1690
(dp1691
g61
(dp1692
g69
I3
ssg70
g1686
sg63
(lp1693
S'0'
asbasbasbag56
(g72
g58
NtRp1694
(dp1695
g61
(dp1696
sg70
g1666
sg63
(lp1697
g56
(g77
g58
NtRp1698
(dp1699
g61
(dp1700
sg70
g1694
sg63
(lp1701
g56
(g57
g58
NtRp1702
(dp1703
g61
(dp1704
g69
I3
ssg70
g1698
sg63
(lp1705
S'0'
asbasbasbasbasbasbasbag56
(g72
g58
NtRp1706
(dp1707
g61
(dp1708
sg70
g1642
sg63
(lp1709
g56
(g77
g58
NtRp1710
(dp1711
g61
(dp1712
g81
g82
ssg70
g1706
sg63
(lp1713
g1453
asbag56
(g77
g58
NtRp1714
(dp1715
g61
(dp1716
g88
g89
ssg70
g1706
sg63
(lp1717
S':'
asbag56
(g77
g58
NtRp1718
(dp1719
g61
(dp1720
sg70
g1706
sg63
(lp1721
g56
(g57
g58
NtRp1722
(dp1723
g61
(dp1724
g69
I4
ssg70
g1718
sg63
(lp1725
g1466
asbasbasbag56
(g72
g58
NtRp1726
(dp1727
g61
(dp1728
sg70
g1642
sg63
(lp1729
g56
(g77
g58
NtRp1730
(dp1731
g61
(dp1732
g81
g82
ssg70
g1726
sg63
(lp1733
g1475
asbag56
(g77
g58
NtRp1734
(dp1735
g61
(dp1736
g88
g89
ssg70
g1726
sg63
(lp1737
S':'
asbag56
(g77
g58
NtRp1738
(dp1739
g61
(dp1740
sg70
g1726
sg63
(lp1741
g56
(g57
g58
NtRp1742
(dp1743
g61
(dp1744
g69
I4
ssg70
g1738
sg63
(lp1745
S'1'
asbasbasbasbasbasbasbag56
(g72
g58
NtRp1746
(dp1747
g61
(dp1748
sg70
g66
sg63
(lp1749
g56
(g77
g58
NtRp1750
(dp1751
g61
(dp1752
g81
g82
ssg70
g1746
sg63
(lp1753
S'wsgi'
p1754
asbag56
(g77
g58
NtRp1755
(dp1756
g61
(dp1757
g88
g89
ssg70
g1746
sg63
(lp1758
S':'
asbag56
(g77
g58
NtRp1759
(dp1760
g61
(dp1761
sg70
g1746
sg63
(lp1762
g56
(g57
g58
NtRp1763
(dp1764
g61
(dp1765
g69
I5
ssg70
g1759
sg63
(lp1766
g56
(g65
g58
NtRp1767
(dp1768
g61
(dp1769
g69
I4
ssg70
Nsg63
(lp1770
g56
(g72
g58
NtRp1771
(dp1772
g61
(dp1773
sg70
g1767
sg63
(lp1774
g56
(g77
g58
NtRp1775
(dp1776
g61
(dp1777
g81
g82
ssg70
g1771
sg63
(lp1778
S'environ'
p1779
asbag56
(g77
g58
NtRp1780
(dp1781
g61
(dp1782
g88
g89
ssg70
g1771
sg63
(lp1783
S':'
asbag56
(g77
g58
NtRp1784
(dp1785
g61
(dp1786
sg70
g1771
sg63
(lp1787
g56
(g57
g58
NtRp1788
(dp1789
g61
(dp1790
g69
I4
ssg70
g1784
sg63
(lp1791
g56
(g65
g58
NtRp1792
(dp1793
g61
(dp1794
g69
I3
ssg70
Nsg63
(lp1795
g56
(g72
g58
NtRp1796
(dp1797
g61
(dp1798
sg70
g1792
sg63
(lp1799
g56
(g77
g58
NtRp1800
(dp1801
g61
(dp1802
g81
g82
ssg70
g1796
sg63
(lp1803
S'HTTP_ACCEPT'
p1804
asbag56
(g77
g58
NtRp1805
(dp1806
g61
(dp1807
g88
g89
ssg70
g1796
sg63
(lp1808
S':'
asbag56
(g77
g58
NtRp1809
(dp1810
g61
(dp1811
sg70
g1796
sg63
(lp1812
g56
(g57
g58
NtRp1813
(dp1814
g61
(dp1815
g69
I3
ssg70
g1809
sg63
(lp1816
g632
asbasbasbag56
(g72
g58
NtRp1817
(dp1818
g61
(dp1819
sg70
g1792
sg63
(lp1820
g56
(g77
g58
NtRp1821
(dp1822
g61
(dp1823
g81
g82
ssg70
g1817
sg63
(lp1824
S'HTTP_ACCEPT_CHARSET'
p1825
asbag56
(g77
g58
NtRp1826
(dp1827
g61
(dp1828
g88
g89
ssg70
g1817
sg63
(lp1829
S':'
asbag56
(g77
g58
NtRp1830
(dp1831
g61
(dp1832
sg70
g1817
sg63
(lp1833
g56
(g57
g58
NtRp1834
(dp1835
g61
(dp1836
g69
I3
ssg70
g1830
sg63
(lp1837
g654
asbasbasbag56
(g72
g58
NtRp1838
(dp1839
g61
(dp1840
sg70
g1792
sg63
(lp1841
g56
(g77
g58
NtRp1842
(dp1843
g61
(dp1844
g81
g82
ssg70
g1838
sg63
(lp1845
S'HTTP_ACCEPT_ENCODING'
p1846
asbag56
(g77
g58
NtRp1847
(dp1848
g61
(dp1849
g88
g89
ssg70
g1838
sg63
(lp1850
S':'
asbag56
(g77
g58
NtRp1851
(dp1852
g61
(dp1853
sg70
g1838
sg63
(lp1854
g56
(g57
g58
NtRp1855
(dp1856
g61
(dp1857
g69
I3
ssg70
g1851
sg63
(lp1858
g676
asbasbasbag56
(g72
g58
NtRp1859
(dp1860
g61
(dp1861
sg70
g1792
sg63
(lp1862
g56
(g77
g58
NtRp1863
(dp1864
g61
(dp1865
g81
g82
ssg70
g1859
sg63
(lp1866
S'HTTP_ACCEPT_LANGUAGE'
p1867
asbag56
(g77
g58
NtRp1868
(dp1869
g61
(dp1870
g88
g89
ssg70
g1859
sg63
(lp1871
S':'
asbag56
(g77
g58
NtRp1872
(dp1873
g61
(dp1874
sg70
g1859
sg63
(lp1875
g56
(g57
g58
NtRp1876
(dp1877
g61
(dp1878
g69
I3
ssg70
g1872
sg63
(lp1879
g698
asbasbasbag56
(g72
g58
NtRp1880
(dp1881
g61
(dp1882
sg70
g1792
sg63
(lp1883
g56
(g77
g58
NtRp1884
(dp1885
g61
(dp1886
g81
g82
ssg70
g1880
sg63
(lp1887
S'HTTP_CONNECTION'
p1888
asbag56
(g77
g58
NtRp1889
(dp1890
g61
(dp1891
g88
g89
ssg70
g1880
sg63
(lp1892
S':'
asbag56
(g77
g58
NtRp1893
(dp1894
g61
(dp1895
sg70
g1880
sg63
(lp1896
g56
(g57
g58
NtRp1897
(dp1898
g61
(dp1899
g69
I3
ssg70
g1893
sg63
(lp1900
g720
asbasbasbag56
(g72
g58
NtRp1901
(dp1902
g61
(dp1903
sg70
g1792
sg63
(lp1904
g56
(g77
g58
NtRp1905
(dp1906
g61
(dp1907
g81
g82
ssg70
g1901
sg63
(lp1908
S'HTTP_COOKIE'
p1909
asbag56
(g77
g58
NtRp1910
(dp1911
g61
(dp1912
g88
g89
ssg70
g1901
sg63
(lp1913
S':'
asbag56
(g77
g58
NtRp1914
(dp1915
g61
(dp1916
sg70
g1901
sg63
(lp1917
g56
(g57
g58
NtRp1918
(dp1919
g61
(dp1920
g69
I3
ssg70
g1914
sg63
(lp1921
g742
asbasbasbag56
(g72
g58
NtRp1922
(dp1923
g61
(dp1924
sg70
g1792
sg63
(lp1925
g56
(g77
g58
NtRp1926
(dp1927
g61
(dp1928
g81
g82
ssg70
g1922
sg63
(lp1929
S'HTTP_HOST'
p1930
asbag56
(g77
g58
NtRp1931
(dp1932
g61
(dp1933
g88
g89
ssg70
g1922
sg63
(lp1934
S':'
asbag56
(g77
g58
NtRp1935
(dp1936
g61
(dp1937
sg70
g1922
sg63
(lp1938
g56
(g57
g58
NtRp1939
(dp1940
g61
(dp1941
g69
I3
ssg70
g1935
sg63
(lp1942
g764
asbasbasbag56
(g72
g58
NtRp1943
(dp1944
g61
(dp1945
sg70
g1792
sg63
(lp1946
g56
(g77
g58
NtRp1947
(dp1948
g61
(dp1949
g81
g82
ssg70
g1943
sg63
(lp1950
S'HTTP_REFERER'
p1951
asbag56
(g77
g58
NtRp1952
(dp1953
g61
(dp1954
g88
g89
ssg70
g1943
sg63
(lp1955
S':'
asbag56
(g77
g58
NtRp1956
(dp1957
g61
(dp1958
sg70
g1943
sg63
(lp1959
g56
(g57
g58
NtRp1960
(dp1961
g61
(dp1962
g69
I3
ssg70
g1956
sg63
(lp1963
g786
asbasbasbag56
(g72
g58
NtRp1964
(dp1965
g61
(dp1966
sg70
g1792
sg63
(lp1967
g56
(g77
g58
NtRp1968
(dp1969
g61
(dp1970
g81
g82
ssg70
g1964
sg63
(lp1971
S'HTTP_USER_AGENT'
p1972
asbag56
(g77
g58
NtRp1973
(dp1974
g61
(dp1975
g88
g89
ssg70
g1964
sg63
(lp1976
S':'
asbag56
(g77
g58
NtRp1977
(dp1978
g61
(dp1979
sg70
g1964
sg63
(lp1980
g56
(g57
g58
NtRp1981
(dp1982
g61
(dp1983
g69
I3
ssg70
g1977
sg63
(lp1984
g808
asbasbasbag56
(g72
g58
NtRp1985
(dp1986
g61
(dp1987
sg70
g1792
sg63
(lp1988
g56
(g77
g58
NtRp1989
(dp1990
g61
(dp1991
g81
g82
ssg70
g1985
sg63
(lp1992
S'PATH_INFO'
p1993
asbag56
(g77
g58
NtRp1994
(dp1995
g61
(dp1996
g88
g89
ssg70
g1985
sg63
(lp1997
S':'
asbag56
(g77
g58
NtRp1998
(dp1999
g61
(dp2000
sg70
g1985
sg63
(lp2001
g56
(g57
g58
NtRp2002
(dp2003
g61
(dp2004
g69
I3
ssg70
g1998
sg63
(lp2005
g830
asbasbasbag56
(g72
g58
NtRp2006
(dp2007
g61
(dp2008
sg70
g1792
sg63
(lp2009
g56
(g77
g58
NtRp2010
(dp2011
g61
(dp2012
g81
g82
ssg70
g2006
sg63
(lp2013
S'QUERY_STRING'
p2014
asbag56
(g77
g58
NtRp2015
(dp2016
g61
(dp2017
g88
g89
ssg70
g2006
sg63
(lp2018
S':'
asbag56
(g77
g58
NtRp2019
(dp2020
g61
(dp2021
sg70
g2006
sg63
(lp2022
g56
(g57
g58
NtRp2023
(dp2024
g61
(dp2025
g69
I3
ssg70
g2019
sg63
(lp2026
g852
asbasbasbag56
(g72
g58
NtRp2027
(dp2028
g61
(dp2029
sg70
g1792
sg63
(lp2030
g56
(g77
g58
NtRp2031
(dp2032
g61
(dp2033
g81
g82
ssg70
g2027
sg63
(lp2034
S'REMOTE_ADDR'
p2035
asbag56
(g77
g58
NtRp2036
(dp2037
g61
(dp2038
g88
g89
ssg70
g2027
sg63
(lp2039
S':'
asbag56
(g77
g58
NtRp2040
(dp2041
g61
(dp2042
sg70
g2027
sg63
(lp2043
g56
(g57
g58
NtRp2044
(dp2045
g61
(dp2046
g69
I3
ssg70
g2040
sg63
(lp2047
g189
asbasbasbag56
(g72
g58
NtRp2048
(dp2049
g61
(dp2050
sg70
g1792
sg63
(lp2051
g56
(g77
g58
NtRp2052
(dp2053
g61
(dp2054
g81
g82
ssg70
g2048
sg63
(lp2055
S'REMOTE_PORT'
p2056
asbag56
(g77
g58
NtRp2057
(dp2058
g61
(dp2059
g88
g89
ssg70
g2048
sg63
(lp2060
S':'
asbag56
(g77
g58
NtRp2061
(dp2062
g61
(dp2063
sg70
g2048
sg63
(lp2064
g56
(g57
g58
NtRp2065
(dp2066
g61
(dp2067
g69
I3
ssg70
g2061
sg63
(lp2068
g895
asbasbasbag56
(g72
g58
NtRp2069
(dp2070
g61
(dp2071
sg70
g1792
sg63
(lp2072
g56
(g77
g58
NtRp2073
(dp2074
g61
(dp2075
g81
g82
ssg70
g2069
sg63
(lp2076
S'REQUEST_METHOD'
p2077
asbag56
(g77
g58
NtRp2078
(dp2079
g61
(dp2080
g88
g89
ssg70
g2069
sg63
(lp2081
S':'
asbag56
(g77
g58
NtRp2082
(dp2083
g61
(dp2084
sg70
g2069
sg63
(lp2085
g56
(g57
g58
NtRp2086
(dp2087
g61
(dp2088
g69
I3
ssg70
g2082
sg63
(lp2089
g917
asbasbasbag56
(g72
g58
NtRp2090
(dp2091
g61
(dp2092
sg70
g1792
sg63
(lp2093
g56
(g77
g58
NtRp2094
(dp2095
g61
(dp2096
g81
g82
ssg70
g2090
sg63
(lp2097
S'SCRIPT_NAME'
p2098
asbag56
(g77
g58
NtRp2099
(dp2100
g61
(dp2101
g88
g89
ssg70
g2090
sg63
(lp2102
S':'
asbag56
(g77
g58
NtRp2103
(dp2104
g61
(dp2105
sg70
g2090
sg63
(lp2106
g56
(g57
g58
NtRp2107
(dp2108
g61
(dp2109
g69
I3
ssg70
g2103
sg63
(lp2110
S''
asbasbasbag56
(g72
g58
NtRp2111
(dp2112
g61
(dp2113
sg70
g1792
sg63
(lp2114
g56
(g77
g58
NtRp2115
(dp2116
g61
(dp2117
g81
g82
ssg70
g2111
sg63
(lp2118
S'SERVER_NAME'
p2119
asbag56
(g77
g58
NtRp2120
(dp2121
g61
(dp2122
g88
g89
ssg70
g2111
sg63
(lp2123
S':'
asbag56
(g77
g58
NtRp2124
(dp2125
g61
(dp2126
sg70
g2111
sg63
(lp2127
g56
(g57
g58
NtRp2128
(dp2129
g61
(dp2130
g69
I3
ssg70
g2124
sg63
(lp2131
g960
asbasbasbag56
(g72
g58
NtRp2132
(dp2133
g61
(dp2134
sg70
g1792
sg63
(lp2135
g56
(g77
g58
NtRp2136
(dp2137
g61
(dp2138
g81
g82
ssg70
g2132
sg63
(lp2139
S'SERVER_PORT'
p2140
asbag56
(g77
g58
NtRp2141
(dp2142
g61
(dp2143
g88
g89
ssg70
g2132
sg63
(lp2144
S':'
asbag56
(g77
g58
NtRp2145
(dp2146
g61
(dp2147
sg70
g2132
sg63
(lp2148
g56
(g57
g58
NtRp2149
(dp2150
g61
(dp2151
g69
I3
ssg70
g2145
sg63
(lp2152
g982
asbasbasbag56
(g72
g58
NtRp2153
(dp2154
g61
(dp2155
sg70
g1792
sg63
(lp2156
g56
(g77
g58
NtRp2157
(dp2158
g61
(dp2159
g81
g82
ssg70
g2153
sg63
(lp2160
S'SERVER_PROTOCOL'
p2161
asbag56
(g77
g58
NtRp2162
(dp2163
g61
(dp2164
g88
g89
ssg70
g2153
sg63
(lp2165
S':'
asbag56
(g77
g58
NtRp2166
(dp2167
g61
(dp2168
sg70
g2153
sg63
(lp2169
g56
(g57
g58
NtRp2170
(dp2171
g61
(dp2172
g69
I3
ssg70
g2166
sg63
(lp2173
g1004
asbasbasbag56
(g72
g58
NtRp2174
(dp2175
g61
(dp2176
sg70
g1792
sg63
(lp2177
g56
(g77
g58
NtRp2178
(dp2179
g61
(dp2180
g81
g82
ssg70
g2174
sg63
(lp2181
S'SERVER_SOFTWARE'
p2182
asbag56
(g77
g58
NtRp2183
(dp2184
g61
(dp2185
g88
g89
ssg70
g2174
sg63
(lp2186
S':'
asbag56
(g77
g58
NtRp2187
(dp2188
g61
(dp2189
sg70
g2174
sg63
(lp2190
g56
(g57
g58
NtRp2191
(dp2192
g61
(dp2193
g69
I3
ssg70
g2187
sg63
(lp2194
g1026
asbasbasbag56
(g72
g58
NtRp2195
(dp2196
g61
(dp2197
sg70
g1792
sg63
(lp2198
g56
(g77
g58
NtRp2199
(dp2200
g61
(dp2201
g81
g82
ssg70
g2195
sg63
(lp2202
S'wsgi.errors'
p2203
asbag56
(g77
g58
NtRp2204
(dp2205
g61
(dp2206
g88
g89
ssg70
g2195
sg63
(lp2207
S':'
asbag56
(g77
g58
NtRp2208
(dp2209
g61
(dp2210
sg70
g2195
sg63
(lp2211
g56
(g57
g58
NtRp2212
(dp2213
g61
(dp2214
g69
I3
ssg70
g2208
sg63
(lp2215
S"<open file '<stderr>', mode 'w' at 0xb78600d0>"
p2216
asbasbasbag56
(g72
g58
NtRp2217
(dp2218
g61
(dp2219
sg70
g1792
sg63
(lp2220
g56
(g77
g58
NtRp2221
(dp2222
g61
(dp2223
g81
g82
ssg70
g2217
sg63
(lp2224
S'wsgi.file_wrapper'
p2225
asbag56
(g77
g58
NtRp2226
(dp2227
g61
(dp2228
g88
g89
ssg70
g2217
sg63
(lp2229
S':'
asbag56
(g77
g58
NtRp2230
(dp2231
g61
(dp2232
sg70
g2217
sg63
(lp2233
g56
(g57
g58
NtRp2234
(dp2235
g61
(dp2236
g69
I3
ssg70
g2230
sg63
(lp2237
S'<class gluon.rocket.FileWrapper at 0x995514c>'
p2238
asbasbasbag56
(g72
g58
NtRp2239
(dp2240
g61
(dp2241
sg70
g1792
sg63
(lp2242
g56
(g77
g58
NtRp2243
(dp2244
g61
(dp2245
g81
g82
ssg70
g2239
sg63
(lp2246
S'wsgi.input'
p2247
asbag56
(g77
g58
NtRp2248
(dp2249
g61
(dp2250
g88
g89
ssg70
g2239
sg63
(lp2251
S':'
asbag56
(g77
g58
NtRp2252
(dp2253
g61
(dp2254
sg70
g2239
sg63
(lp2255
g56
(g57
g58
NtRp2256
(dp2257
g61
(dp2258
g69
I3
ssg70
g2252
sg63
(lp2259
S'<cStringIO.StringO object at 0x9a67aa0>'
p2260
asbasbasbag56
(g72
g58
NtRp2261
(dp2262
g61
(dp2263
sg70
g1792
sg63
(lp2264
g56
(g77
g58
NtRp2265
(dp2266
g61
(dp2267
g81
g82
ssg70
g2261
sg63
(lp2268
S'wsgi.multiprocess'
p2269
asbag56
(g77
g58
NtRp2270
(dp2271
g61
(dp2272
g88
g89
ssg70
g2261
sg63
(lp2273
S':'
asbag56
(g77
g58
NtRp2274
(dp2275
g61
(dp2276
sg70
g2261
sg63
(lp2277
g56
(g57
g58
NtRp2278
(dp2279
g61
(dp2280
g69
I3
ssg70
g2274
sg63
(lp2281
g99
asbasbasbag56
(g72
g58
NtRp2282
(dp2283
g61
(dp2284
sg70
g1792
sg63
(lp2285
g56
(g77
g58
NtRp2286
(dp2287
g61
(dp2288
g81
g82
ssg70
g2282
sg63
(lp2289
S'wsgi.multithread'
p2290
asbag56
(g77
g58
NtRp2291
(dp2292
g61
(dp2293
g88
g89
ssg70
g2282
sg63
(lp2294
S':'
asbag56
(g77
g58
NtRp2295
(dp2296
g61
(dp2297
sg70
g2282
sg63
(lp2298
g56
(g57
g58
NtRp2299
(dp2300
g61
(dp2301
g69
I3
ssg70
g2295
sg63
(lp2302
g1200
asbasbasbag56
(g72
g58
NtRp2303
(dp2304
g61
(dp2305
sg70
g1792
sg63
(lp2306
g56
(g77
g58
NtRp2307
(dp2308
g61
(dp2309
g81
g82
ssg70
g2303
sg63
(lp2310
S'wsgi.run_once'
p2311
asbag56
(g77
g58
NtRp2312
(dp2313
g61
(dp2314
g88
g89
ssg70
g2303
sg63
(lp2315
S':'
asbag56
(g77
g58
NtRp2316
(dp2317
g61
(dp2318
sg70
g2303
sg63
(lp2319
g56
(g57
g58
NtRp2320
(dp2321
g61
(dp2322
g69
I3
ssg70
g2316
sg63
(lp2323
g99
asbasbasbag56
(g72
g58
NtRp2324
(dp2325
g61
(dp2326
sg70
g1792
sg63
(lp2327
g56
(g77
g58
NtRp2328
(dp2329
g61
(dp2330
g81
g82
ssg70
g2324
sg63
(lp2331
S'wsgi.url_scheme'
p2332
asbag56
(g77
g58
NtRp2333
(dp2334
g61
(dp2335
g88
g89
ssg70
g2324
sg63
(lp2336
S':'
asbag56
(g77
g58
NtRp2337
(dp2338
g61
(dp2339
sg70
g2324
sg63
(lp2340
g56
(g57
g58
NtRp2341
(dp2342
g61
(dp2343
g69
I3
ssg70
g2337
sg63
(lp2344
g1243
asbasbasbag56
(g72
g58
NtRp2345
(dp2346
g61
(dp2347
sg70
g1792
sg63
(lp2348
g56
(g77
g58
NtRp2349
(dp2350
g61
(dp2351
g81
g82
ssg70
g2345
sg63
(lp2352
S'wsgi.version'
p2353
asbag56
(g77
g58
NtRp2354
(dp2355
g61
(dp2356
g88
g89
ssg70
g2345
sg63
(lp2357
S':'
asbag56
(g77
g58
NtRp2358
(dp2359
g61
(dp2360
sg70
g2345
sg63
(lp2361
g56
(g57
g58
NtRp2362
(dp2363
g61
(dp2364
g69
I3
ssg70
g2358
sg63
(lp2365
S'1'
asbasbasbasbasbasbasbasbasbasbasbasbasbsS'frames'
p2366
(lp2367
(dp2368
S'file'
p2369
S'/home/derek/Dropbox/SEng265-Share/pe2/codeAct_1.01/web2py/gluon/restricted.py'
p2370
sS'dump'
p2371
(dp2372
S'environment'
p2373
S"{'A': <class 'gluon.html.A'>, 'B': <class 'gluon.html.B'>, 'BEAUTIFY': <class 'gluon.html.BEAUTIFY'>, 'BODY': <class 'gluon.html.BODY'>, 'BR': <class 'gluon.html.BR'>, 'CENTER': <class 'gluon.html.CENTER'>, 'CLEANUP': <class 'gluon.validators.CLEANUP'>, 'CODE': <class 'gluon.html.CODE'>, 'CRYPT': <class 'gluon.validators.CRYPT'>, 'DAL': <class 'gluon.dal.DAL'>, ...}"
p2374
sS'ccode'
p2375
S'<code object <module> at 0x9a6a728, file "/home/...ns/codeAct/controllers/ca_controller.py", line 1>'
p2376
ssS'lnum'
p2377
I181
sS'lines'
p2378
(dp2379
I176
S'    try:'
p2380
sI177
S'        if type(code) == types.CodeType:'
p2381
sI178
S'            ccode = code'
p2382
sI179
S'        else:'
p2383
sI180
S'            ccode = compile2(code,layer)'
p2384
sI181
S'        exec ccode in environment'
p2385
sI182
S'    except HTTP:'
p2386
sI183
S'        raise'
p2387
sI184
S'    except Exception:'
p2388
sI185
S'        # XXX Show exception in Wing IDE if running in debugger'
p2389
ssS'call'
p2390
S"(code='import sys\\nimport time\\nimport os\\n\\nimport ca_quiz...turn code\\n\\nresponse._vars=response._caller(quiz)\\n', environment={'A': <class 'gluon.html.A'>, 'B': <class 'gluon.html.B'>, 'BEAUTIFY': <class 'gluon.html.BEAUTIFY'>, 'BODY': <class 'gluon.html.BODY'>, 'BR': <class 'gluon.html.BR'>, 'CENTER': <class 'gluon.html.CENTER'>, 'CLEANUP': <class 'gluon.validators.CLEANUP'>, 'CODE': <class 'gluon.html.CODE'>, 'CRYPT': <class 'gluon.validators.CRYPT'>, 'DAL': <class 'gluon.dal.DAL'>, ...}, layer='/home/derek/Dropbox/SEng265-Share/pe2/codeAct_1....applications/codeAct/controllers/ca_controller.py')"
p2391
sS'func'
p2392
S'restricted'
p2393
sa(dp2394
g2369
S'/home/derek/Dropbox/SEng265-Share/pe2/codeAct_1.01/web2py/applications/codeAct/controllers/ca_controller.py'
p2395
sg2371
(dp2396
sg2377
I85
sg2378
(dp2397
I74
S"\t session['quiz'].practice_mode,session['login'],"
p2398
sI75
S"\t session['answer_list'][question_number-1],"
p2399
sI76
S"\t request.vars,session['question_timer'])"
p2400
sI77
S"\tcode = utility.add_submit_label(code,session['quiz'].practice_mode)"
p2401
sI78
S'\tcode = utility.disable_navi_buttons(code,question_number,'
p2402
sI79
S"\t session['quiz'])"
p2403
sI80
S''
sI81
S'\t# update question timer'
p2404
sI82
S"\tsession['question_timer'] = int(time.time())"
p2405
sI83
S'\treturn code'
p2406
ssg2390
S'()'
p2407
sg2392
S'<module>'
p2408
sa(dp2409
g2369
S'/home/derek/Dropbox/SEng265-Share/pe2/codeAct_1.01/web2py/gluon/globals.py'
p2410
sg2371
(dp2411
S'self'
p2412
S'undefined'
p2413
sS'f'
S'<function quiz>'
p2414
ssg2377
I133
sg2378
(dp2415
I128
S"        self.flash = ''           # used by the default view layout"
p2416
sI129
S'        self.meta = Storage()     # used by web2py_ajax.html'
p2417
sI130
S'        self.menu = []            # used by the default view layout'
p2418
sI131
S'        self.files = []           # used by web2py_ajax.html'
p2419
sI132
S'        self._vars = None'
p2420
sI133
S'        self._caller = lambda f: f()'
p2421
sI134
S'        self._view_environment = None'
p2422
sI135
S'        self._custom_commit = None'
p2423
sI136
S'        self._custom_rollback = None'
p2424
sI137
S''
ssg2390
S'(f=<function quiz>)'
p2425
sg2392
S'<lambda>'
p2426
sa(dp2427
g2369
S'/home/derek/Dropbox/SEng265-Share/pe2/codeAct_1.01/web2py/applications/codeAct/controllers/ca_controller.py'
p2428
sg2371
(dp2429
S'global session'
p2430
S"<Storage {'login': '', 'question_timer': 1309731...], 'quiz': <ca_quiz.quiz instance at 0x9a67bcc>}>"
p2431
sS'question_number'
p2432
S'1'
ssg2377
I71
sg2378
(dp2433
I66
S'\tquestion_number = utility.get_question_number(request.vars)'
p2434
sI67
S"\tquestion = session['quiz'].get_question(question_number-1)"
p2435
sI68
S"\tutility.update_answer(question,question_number,session['answer_list'],"
p2436
sI69
S'\t request.vars)'
p2437
sI70
S"\tcode = question_HTML.generate_html(session['quiz'],question_number,"
p2438
sI71
S"\t session['answer_list'][question_number-1])"
p2439
sI72
S'\tcode = utility.get_result(code,question,question_number,'
p2440
sI73
S"\t session['quiz'].logged,session['quiz'].log_dir,"
p2441
sI74
S"\t session['quiz'].practice_mode,session['login'],"
p2442
sI75
S"\t session['answer_list'][question_number-1],"
p2443
ssg2390
S'()'
p2444
sg2392
S'quiz'
p2445
sa(dp2446
g2369
S'/home/derek/Dropbox/SEng265-Share/pe2/codeAct_1.01/web2py/applications/codeAct/views/ca_controller/ca_question_HTML.py'
p2447
sg2371
(dp2448
S'answer'
p2449
S"{'argvs': {}, 'code': {}, 'stdin': {}, 'stdout': {'$y0': ['1', '0', '0']}}"
p2450
sS'question.stdout_template'
p2451
S"'$y0\\n$y0\\n$y0\\n'"
p2452
sS'question'
p2453
S'<ca_question.input_output instance>'
p2454
sS'global gen_display'
p2455
S'<function gen_display>'
p2456
ssg2377
I106
sg2378
(dp2457
I101
S"        html = html.replace('$HEIGHT',str(stdin_stdout_height))"
p2458
sI102
S'        # stdout cell'
p2459
sI103
S"        if question.type == 'Input/output':"
p2460
sI104
S"                html = html.replace('$STDOUT_HTML',stdout_html)"
p2461
sI105
S"                html = html.replace('$STDOUT',"
p2462
sI106
S"\t\t gen_display(question.stdout_template,answer['stdout']))"
p2463
sI107
S"                html = html.replace('$HEIGHT',str(stdin_stdout_height))"
p2464
sI108
S'        else:'
p2465
sI109
S"                html = html.replace('$STDOUT_HTML',empty_one)"
p2466
sI110
S"                html = html.replace('$HEIGHT',str(stdin_stdout_height+30))"
p2467
ssg2390
S"(quiz=<ca_quiz.quiz instance>, q_num=1, answer={'argvs': {}, 'code': {}, 'stdin': {}, 'stdout': {'$y0': ['1', '0', '0']}})"
p2468
sg2392
S'generate_html'
p2469
sa(dp2470
g2369
S'/home/derek/Dropbox/SEng265-Share/pe2/codeAct_1.01/web2py/applications/codeAct/views/ca_controller/ca_question_HTML.py'
p2471
sg2371
(dp2472
S'answer'
p2473
S"{'$y0': ['1', '0', '0']}"
p2474
sS'p'
S"'$y0'"
p2475
sS'global get_textbox'
p2476
S'<function get_textbox>'
p2477
sS'template.replace'
p2478
S'<built-in method replace of str object>'
p2479
sS'template'
p2480
S"'$y0\\n$y0\\n$y0\\n'"
p2481
ssg2377
I52
sg2378
(dp2482
I47
S'        template is a non-empty string'
p2483
sI48
S'        answer is a dictionary of parameter-value pairs'
p2484
sI49
S"'''"
p2485
sI50
S'def gen_display(template,answer):'
p2486
sI51
S'        for p in answer.keys():'
p2487
sI52
S'                template = template.replace(p,get_textbox(p,answer[p]))'
p2488
sI53
S'        return template'
p2489
sI54
S''
sI55
S"'''"
p2490
sI56
S'Purpose'
p2491
ssg2390
S"(template='$y0\\n$y0\\n$y0\\n', answer={'$y0': ['1', '0', '0']})"
p2492
sg2392
S'gen_display'
p2493
sa(dp2494
g2369
S'/home/derek/Dropbox/SEng265-Share/pe2/codeAct_1.01/web2py/applications/codeAct/views/ca_controller/ca_question_HTML.py'
p2495
sg2371
(dp2496
S'name'
p2497
S"'$y0'"
p2498
sS'value'
p2499
S"['1', '0', '0']"
p2500
ssg2377
I12
sg2378
(dp2501
I7
S'        none'
p2502
sI8
S"'''"
p2503
sI9
S'def get_textbox(name, value):'
p2504
sI10
S'        if value == None:'
p2505
sI11
S"                value = ''"
p2506
sI12
S'        return \'<input type="text" name="\'+name+\'" value="\'+value+\'" \\'
p2507
sI13
S'        style="height:24px;width:40px">\''
p2508
sI14
S''
sI15
S"'''"
p2509
sI16
S'purpose'
p2510
ssg2390
S"(name='$y0', value=['1', '0', '0'])"
p2511
sg2392
S'get_textbox'
p2512
sasS'pyver'
p2513
S'Python 2.7.1+: /usr/bin/python'
p2514
sS'session'
p2515
g56
(g57
g58
NtRp2516
(dp2517
g61
(dp2518
sg63
(lp2519
g56
(g65
g58
NtRp2520
(dp2521
g61
(dp2522
g69
I5
ssg70
Nsg63
(lp2523
g56
(g72
g58
NtRp2524
(dp2525
g61
(dp2526
sg70
g2520
sg63
(lp2527
g56
(g77
g58
NtRp2528
(dp2529
g61
(dp2530
g81
g82
ssg70
g2524
sg63
(lp2531
S'answer_list'
p2532
asbag56
(g77
g58
NtRp2533
(dp2534
g61
(dp2535
g88
g89
ssg70
g2524
sg63
(lp2536
S':'
asbag56
(g77
g58
NtRp2537
(dp2538
g61
(dp2539
sg70
g2524
sg63
(lp2540
g56
(g57
g58
NtRp2541
(dp2542
g61
(dp2543
g69
I5
ssg70
g2537
sg63
(lp2544
g56
(g65
g58
NtRp2545
(dp2546
g61
(dp2547
g69
I4
ssg70
Nsg63
(lp2548
g56
(g72
g58
NtRp2549
(dp2550
g61
(dp2551
sg70
g2545
sg63
(lp2552
g56
(g77
g58
NtRp2553
(dp2554
g61
(dp2555
sg70
g2549
sg63
(lp2556
g56
(g57
g58
NtRp2557
(dp2558
g61
(dp2559
g69
I4
ssg70
g2553
sg63
(lp2560
g56
(g65
g58
NtRp2561
(dp2562
g61
(dp2563
g69
I3
ssg70
Nsg63
(lp2564
g56
(g72
g58
NtRp2565
(dp2566
g61
(dp2567
sg70
g2561
sg63
(lp2568
g56
(g77
g58
NtRp2569
(dp2570
g61
(dp2571
g81
g82
ssg70
g2565
sg63
(lp2572
S'argvs'
p2573
asbag56
(g77
g58
NtRp2574
(dp2575
g61
(dp2576
g88
g89
ssg70
g2565
sg63
(lp2577
S':'
asbag56
(g77
g58
NtRp2578
(dp2579
g61
(dp2580
sg70
g2565
sg63
(lp2581
g56
(g57
g58
NtRp2582
(dp2583
g61
(dp2584
g69
I3
ssg70
g2578
sg63
(lp2585
g56
(g65
g58
NtRp2586
(dp2587
g61
(dp2588
g69
I2
ssg70
Nsg63
(lp2589
sbasbasbasbag56
(g72
g58
NtRp2590
(dp2591
g61
(dp2592
sg70
g2561
sg63
(lp2593
g56
(g77
g58
NtRp2594
(dp2595
g61
(dp2596
g81
g82
ssg70
g2590
sg63
(lp2597
g5
asbag56
(g77
g58
NtRp2598
(dp2599
g61
(dp2600
g88
g89
ssg70
g2590
sg63
(lp2601
S':'
asbag56
(g77
g58
NtRp2602
(dp2603
g61
(dp2604
sg70
g2590
sg63
(lp2605
g56
(g57
g58
NtRp2606
(dp2607
g61
(dp2608
g69
I3
ssg70
g2602
sg63
(lp2609
g56
(g65
g58
NtRp2610
(dp2611
g61
(dp2612
g69
I2
ssg70
Nsg63
(lp2613
sbasbasbasbag56
(g72
g58
NtRp2614
(dp2615
g61
(dp2616
sg70
g2561
sg63
(lp2617
g56
(g77
g58
NtRp2618
(dp2619
g61
(dp2620
g81
g82
ssg70
g2614
sg63
(lp2621
S'stdin'
p2622
asbag56
(g77
g58
NtRp2623
(dp2624
g61
(dp2625
g88
g89
ssg70
g2614
sg63
(lp2626
S':'
asbag56
(g77
g58
NtRp2627
(dp2628
g61
(dp2629
sg70
g2614
sg63
(lp2630
g56
(g57
g58
NtRp2631
(dp2632
g61
(dp2633
g69
I3
ssg70
g2627
sg63
(lp2634
g56
(g65
g58
NtRp2635
(dp2636
g61
(dp2637
g69
I2
ssg70
Nsg63
(lp2638
sbasbasbasbag56
(g72
g58
NtRp2639
(dp2640
g61
(dp2641
sg70
g2561
sg63
(lp2642
g56
(g77
g58
NtRp2643
(dp2644
g61
(dp2645
g81
g82
ssg70
g2639
sg63
(lp2646
S'stdout'
p2647
asbag56
(g77
g58
NtRp2648
(dp2649
g61
(dp2650
g88
g89
ssg70
g2639
sg63
(lp2651
S':'
asbag56
(g77
g58
NtRp2652
(dp2653
g61
(dp2654
sg70
g2639
sg63
(lp2655
g56
(g57
g58
NtRp2656
(dp2657
g61
(dp2658
g69
I3
ssg70
g2652
sg63
(lp2659
g56
(g65
g58
NtRp2660
(dp2661
g61
(dp2662
g69
I2
ssg70
Nsg63
(lp2663
g56
(g72
g58
NtRp2664
(dp2665
g61
(dp2666
sg70
g2660
sg63
(lp2667
g56
(g77
g58
NtRp2668
(dp2669
g61
(dp2670
g81
g82
ssg70
g2664
sg63
(lp2671
g1392
asbag56
(g77
g58
NtRp2672
(dp2673
g61
(dp2674
g88
g89
ssg70
g2664
sg63
(lp2675
S':'
asbag56
(g77
g58
NtRp2676
(dp2677
g61
(dp2678
sg70
g2664
sg63
(lp2679
g56
(g57
g58
NtRp2680
(dp2681
g61
(dp2682
g69
I2
ssg70
g2676
sg63
(lp2683
g56
(g65
g58
NtRp2684
(dp2685
g61
(dp2686
g69
I1
ssg70
Nsg63
(lp2687
g56
(g72
g58
NtRp2688
(dp2689
g61
(dp2690
sg70
g2684
sg63
(lp2691
g56
(g77
g58
NtRp2692
(dp2693
g61
(dp2694
sg70
g2688
sg63
(lp2695
g56
(g57
g58
NtRp2696
(dp2697
g61
(dp2698
g69
I1
ssg70
g2692
sg63
(lp2699
S'1'
asbasbasbag56
(g72
g58
NtRp2700
(dp2701
g61
(dp2702
sg70
g2684
sg63
(lp2703
g56
(g77
g58
NtRp2704
(dp2705
g61
(dp2706
sg70
g2700
sg63
(lp2707
g56
(g57
g58
NtRp2708
(dp2709
g61
(dp2710
g69
I1
ssg70
g2704
sg63
(lp2711
S'0'
asbasbasbag56
(g72
g58
NtRp2712
(dp2713
g61
(dp2714
sg70
g2684
sg63
(lp2715
g56
(g77
g58
NtRp2716
(dp2717
g61
(dp2718
sg70
g2712
sg63
(lp2719
g56
(g57
g58
NtRp2720
(dp2721
g61
(dp2722
g69
I1
ssg70
g2716
sg63
(lp2723
S'0'
asbasbasbasbasbasbasbasbasbasbasbasbasbasbasbasbasbasbasbag56
(g72
g58
NtRp2724
(dp2725
g61
(dp2726
sg70
g2520
sg63
(lp2727
g56
(g77
g58
NtRp2728
(dp2729
g61
(dp2730
g81
g82
ssg70
g2724
sg63
(lp2731
S'login'
p2732
asbag56
(g77
g58
NtRp2733
(dp2734
g61
(dp2735
g88
g89
ssg70
g2724
sg63
(lp2736
S':'
asbag56
(g77
g58
NtRp2737
(dp2738
g61
(dp2739
sg70
g2724
sg63
(lp2740
g56
(g57
g58
NtRp2741
(dp2742
g61
(dp2743
g69
I5
ssg70
g2737
sg63
(lp2744
S''
asbasbasbag56
(g72
g58
NtRp2745
(dp2746
g61
(dp2747
sg70
g2520
sg63
(lp2748
g56
(g77
g58
NtRp2749
(dp2750
g61
(dp2751
g81
g82
ssg70
g2745
sg63
(lp2752
S'question_timer'
p2753
asbag56
(g77
g58
NtRp2754
(dp2755
g61
(dp2756
g88
g89
ssg70
g2745
sg63
(lp2757
S':'
asbag56
(g77
g58
NtRp2758
(dp2759
g61
(dp2760
sg70
g2745
sg63
(lp2761
g56
(g57
g58
NtRp2762
(dp2763
g61
(dp2764
g69
I5
ssg70
g2758
sg63
(lp2765
S'1309731487'
p2766
asbasbasbag56
(g72
g58
NtRp2767
(dp2768
g61
(dp2769
sg70
g2520
sg63
(lp2770
g56
(g77
g58
NtRp2771
(dp2772
g61
(dp2773
g81
g82
ssg70
g2767
sg63
(lp2774
S'quiz'
p2775
asbag56
(g77
g58
NtRp2776
(dp2777
g61
(dp2778
g88
g89
ssg70
g2767
sg63
(lp2779
S':'
asbag56
(g77
g58
NtRp2780
(dp2781
g61
(dp2782
sg70
g2767
sg63
(lp2783
g56
(g57
g58
NtRp2784
(dp2785
g61
(dp2786
g69
I5
ssg70
g2780
sg63
(lp2787
S'<ca_quiz.quiz instance at 0x9a67bcc>'
p2788
asbasbasbasbasbsS'etype'
p2789
S"<type 'exceptions.TypeError'>"
p2790
sS'date'
p2791
S'Sun Jul  3 15:18:38 2011'
p2792
sS'response'
p2793
g56
(g57
g58
NtRp2794
(dp2795
g61
(dp2796
sg63
(lp2797
g56
(g65
g58
NtRp2798
(dp2799
g61
(dp2800
g69
I5
ssg70
Nsg63
(lp2801
g56
(g72
g58
NtRp2802
(dp2803
g61
(dp2804
sg70
g2798
sg63
(lp2805
g56
(g77
g58
NtRp2806
(dp2807
g61
(dp2808
g81
g82
ssg70
g2802
sg63
(lp2809
g154
asbag56
(g77
g58
NtRp2810
(dp2811
g61
(dp2812
g88
g89
ssg70
g2802
sg63
(lp2813
S':'
asbag56
(g77
g58
NtRp2814
(dp2815
g61
(dp2816
sg70
g2802
sg63
(lp2817
g56
(g57
g58
NtRp2818
(dp2819
g61
(dp2820
g69
I5
ssg70
g2814
sg63
(lp2821
S'<cStringIO.StringO object at 0x9a22bc0>'
p2822
asbasbasbag56
(g72
g58
NtRp2823
(dp2824
g61
(dp2825
sg70
g2798
sg63
(lp2826
g56
(g77
g58
NtRp2827
(dp2828
g61
(dp2829
g81
g82
ssg70
g2823
sg63
(lp2830
g220
asbag56
(g77
g58
NtRp2831
(dp2832
g61
(dp2833
g88
g89
ssg70
g2823
sg63
(lp2834
S':'
asbag56
(g77
g58
NtRp2835
(dp2836
g61
(dp2837
sg70
g2823
sg63
(lp2838
g56
(g57
g58
NtRp2839
(dp2840
g61
(dp2841
g69
I5
ssg70
g2835
sg63
(lp2842
g56
(g65
g58
NtRp2843
(dp2844
g61
(dp2845
g69
I4
ssg70
Nsg63
(lp2846
g56
(g72
g58
NtRp2847
(dp2848
g61
(dp2849
sg70
g2843
sg63
(lp2850
g56
(g77
g58
NtRp2851
(dp2852
g61
(dp2853
g81
g82
ssg70
g2847
sg63
(lp2854
S'session_id_codeact'
p2855
asbag56
(g77
g58
NtRp2856
(dp2857
g61
(dp2858
g88
g89
ssg70
g2847
sg63
(lp2859
S':'
asbag56
(g77
g58
NtRp2860
(dp2861
g61
(dp2862
sg70
g2847
sg63
(lp2863
g56
(g57
g58
NtRp2864
(dp2865
g61
(dp2866
g69
I4
ssg70
g2860
sg63
(lp2867
g56
(g65
g58
NtRp2868
(dp2869
g61
(dp2870
g69
I3
ssg70
Nsg63
(lp2871
g56
(g72
g58
NtRp2872
(dp2873
g61
(dp2874
sg70
g2868
sg63
(lp2875
g56
(g77
g58
NtRp2876
(dp2877
g61
(dp2878
g81
g82
ssg70
g2872
sg63
(lp2879
g270
asbag56
(g77
g58
NtRp2880
(dp2881
g61
(dp2882
g88
g89
ssg70
g2872
sg63
(lp2883
S':'
asbag56
(g77
g58
NtRp2884
(dp2885
g61
(dp2886
sg70
g2872
sg63
(lp2887
g56
(g57
g58
NtRp2888
(dp2889
g61
(dp2890
g69
I3
ssg70
g2884
sg63
(lp2891
S''
asbasbasbag56
(g72
g58
NtRp2892
(dp2893
g61
(dp2894
sg70
g2868
sg63
(lp2895
g56
(g77
g58
NtRp2896
(dp2897
g61
(dp2898
g81
g82
ssg70
g2892
sg63
(lp2899
g291
asbag56
(g77
g58
NtRp2900
(dp2901
g61
(dp2902
g88
g89
ssg70
g2892
sg63
(lp2903
S':'
asbag56
(g77
g58
NtRp2904
(dp2905
g61
(dp2906
sg70
g2892
sg63
(lp2907
g56
(g57
g58
NtRp2908
(dp2909
g61
(dp2910
g69
I3
ssg70
g2904
sg63
(lp2911
S''
asbasbasbag56
(g72
g58
NtRp2912
(dp2913
g61
(dp2914
sg70
g2868
sg63
(lp2915
g56
(g77
g58
NtRp2916
(dp2917
g61
(dp2918
g81
g82
ssg70
g2912
sg63
(lp2919
g312
asbag56
(g77
g58
NtRp2920
(dp2921
g61
(dp2922
g88
g89
ssg70
g2912
sg63
(lp2923
S':'
asbag56
(g77
g58
NtRp2924
(dp2925
g61
(dp2926
sg70
g2912
sg63
(lp2927
g56
(g57
g58
NtRp2928
(dp2929
g61
(dp2930
g69
I3
ssg70
g2924
sg63
(lp2931
S''
asbasbasbag56
(g72
g58
NtRp2932
(dp2933
g61
(dp2934
sg70
g2868
sg63
(lp2935
g56
(g77
g58
NtRp2936
(dp2937
g61
(dp2938
g81
g82
ssg70
g2932
sg63
(lp2939
g333
asbag56
(g77
g58
NtRp2940
(dp2941
g61
(dp2942
g88
g89
ssg70
g2932
sg63
(lp2943
S':'
asbag56
(g77
g58
NtRp2944
(dp2945
g61
(dp2946
sg70
g2932
sg63
(lp2947
g56
(g57
g58
NtRp2948
(dp2949
g61
(dp2950
g69
I3
ssg70
g2944
sg63
(lp2951
S''
asbasbasbag56
(g72
g58
NtRp2952
(dp2953
g61
(dp2954
sg70
g2868
sg63
(lp2955
g56
(g77
g58
NtRp2956
(dp2957
g61
(dp2958
g81
g82
ssg70
g2952
sg63
(lp2959
g354
asbag56
(g77
g58
NtRp2960
(dp2961
g61
(dp2962
g88
g89
ssg70
g2952
sg63
(lp2963
S':'
asbag56
(g77
g58
NtRp2964
(dp2965
g61
(dp2966
sg70
g2952
sg63
(lp2967
g56
(g57
g58
NtRp2968
(dp2969
g61
(dp2970
g69
I3
ssg70
g2964
sg63
(lp2971
S''
asbasbasbag56
(g72
g58
NtRp2972
(dp2973
g61
(dp2974
sg70
g2868
sg63
(lp2975
g56
(g77
g58
NtRp2976
(dp2977
g61
(dp2978
g81
g82
ssg70
g2972
sg63
(lp2979
g375
asbag56
(g77
g58
NtRp2980
(dp2981
g61
(dp2982
g88
g89
ssg70
g2972
sg63
(lp2983
S':'
asbag56
(g77
g58
NtRp2984
(dp2985
g61
(dp2986
sg70
g2972
sg63
(lp2987
g56
(g57
g58
NtRp2988
(dp2989
g61
(dp2990
g69
I3
ssg70
g2984
sg63
(lp2991
S'/'
asbasbasbag56
(g72
g58
NtRp2992
(dp2993
g61
(dp2994
sg70
g2868
sg63
(lp2995
g56
(g77
g58
NtRp2996
(dp2997
g61
(dp2998
g81
g82
ssg70
g2992
sg63
(lp2999
g396
asbag56
(g77
g58
NtRp3000
(dp3001
g61
(dp3002
g88
g89
ssg70
g2992
sg63
(lp3003
S':'
asbag56
(g77
g58
NtRp3004
(dp3005
g61
(dp3006
sg70
g2992
sg63
(lp3007
g56
(g57
g58
NtRp3008
(dp3009
g61
(dp3010
g69
I3
ssg70
g3004
sg63
(lp3011
S''
asbasbasbag56
(g72
g58
NtRp3012
(dp3013
g61
(dp3014
sg70
g2868
sg63
(lp3015
g56
(g77
g58
NtRp3016
(dp3017
g61
(dp3018
g81
g82
ssg70
g3012
sg63
(lp3019
g417
asbag56
(g77
g58
NtRp3020
(dp3021
g61
(dp3022
g88
g89
ssg70
g3012
sg63
(lp3023
S':'
asbag56
(g77
g58
NtRp3024
(dp3025
g61
(dp3026
sg70
g3012
sg63
(lp3027
g56
(g57
g58
NtRp3028
(dp3029
g61
(dp3030
g69
I3
ssg70
g3024
sg63
(lp3031
S''
asbasbasbasbasbasbasbasbasbasbasbag56
(g72
g58
NtRp3032
(dp3033
g61
(dp3034
sg70
g2798
sg63
(lp3035
g56
(g77
g58
NtRp3036
(dp3037
g61
(dp3038
g81
g82
ssg70
g3032
sg63
(lp3039
S'files'
p3040
asbag56
(g77
g58
NtRp3041
(dp3042
g61
(dp3043
g88
g89
ssg70
g3032
sg63
(lp3044
S':'
asbag56
(g77
g58
NtRp3045
(dp3046
g61
(dp3047
sg70
g3032
sg63
(lp3048
g56
(g57
g58
NtRp3049
(dp3050
g61
(dp3051
g69
I5
ssg70
g3045
sg63
(lp3052
g56
(g65
g58
NtRp3053
(dp3054
g61
(dp3055
g69
I4
ssg70
Nsg63
(lp3056
sbasbasbasbag56
(g72
g58
NtRp3057
(dp3058
g61
(dp3059
sg70
g2798
sg63
(lp3060
g56
(g77
g58
NtRp3061
(dp3062
g61
(dp3063
g81
g82
ssg70
g3057
sg63
(lp3064
S'flash'
p3065
asbag56
(g77
g58
NtRp3066
(dp3067
g61
(dp3068
g88
g89
ssg70
g3057
sg63
(lp3069
S':'
asbag56
(g77
g58
NtRp3070
(dp3071
g61
(dp3072
sg70
g3057
sg63
(lp3073
g56
(g57
g58
NtRp3074
(dp3075
g61
(dp3076
g69
I5
ssg70
g3070
sg63
(lp3077
S''
asbasbasbag56
(g72
g58
NtRp3078
(dp3079
g61
(dp3080
sg70
g2798
sg63
(lp3081
g56
(g77
g58
NtRp3082
(dp3083
g61
(dp3084
g81
g82
ssg70
g3078
sg63
(lp3085
S'headers'
p3086
asbag56
(g77
g58
NtRp3087
(dp3088
g61
(dp3089
g88
g89
ssg70
g3078
sg63
(lp3090
S':'
asbag56
(g77
g58
NtRp3091
(dp3092
g61
(dp3093
sg70
g3078
sg63
(lp3094
g56
(g57
g58
NtRp3095
(dp3096
g61
(dp3097
g69
I5
ssg70
g3091
sg63
(lp3098
g56
(g65
g58
NtRp3099
(dp3100
g61
(dp3101
g69
I4
ssg70
Nsg63
(lp3102
g56
(g72
g58
NtRp3103
(dp3104
g61
(dp3105
sg70
g3099
sg63
(lp3106
g56
(g77
g58
NtRp3107
(dp3108
g61
(dp3109
g81
g82
ssg70
g3103
sg63
(lp3110
S'Cache-Control'
p3111
asbag56
(g77
g58
NtRp3112
(dp3113
g61
(dp3114
g88
g89
ssg70
g3103
sg63
(lp3115
S':'
asbag56
(g77
g58
NtRp3116
(dp3117
g61
(dp3118
sg70
g3103
sg63
(lp3119
g56
(g57
g58
NtRp3120
(dp3121
g61
(dp3122
g69
I4
ssg70
g3116
sg63
(lp3123
S'no-store, no-cache, must-revalidate, post-check=0, pre-check=0'
p3124
asbasbasbag56
(g72
g58
NtRp3125
(dp3126
g61
(dp3127
sg70
g3099
sg63
(lp3128
g56
(g77
g58
NtRp3129
(dp3130
g61
(dp3131
g81
g82
ssg70
g3125
sg63
(lp3132
S'Content-Type'
p3133
asbag56
(g77
g58
NtRp3134
(dp3135
g61
(dp3136
g88
g89
ssg70
g3125
sg63
(lp3137
S':'
asbag56
(g77
g58
NtRp3138
(dp3139
g61
(dp3140
sg70
g3125
sg63
(lp3141
g56
(g57
g58
NtRp3142
(dp3143
g61
(dp3144
g69
I4
ssg70
g3138
sg63
(lp3145
S'text/html; charset=utf-8'
p3146
asbasbasbag56
(g72
g58
NtRp3147
(dp3148
g61
(dp3149
sg70
g3099
sg63
(lp3150
g56
(g77
g58
NtRp3151
(dp3152
g61
(dp3153
g81
g82
ssg70
g3147
sg63
(lp3154
S'Expires'
p3155
asbag56
(g77
g58
NtRp3156
(dp3157
g61
(dp3158
g88
g89
ssg70
g3147
sg63
(lp3159
S':'
asbag56
(g77
g58
NtRp3160
(dp3161
g61
(dp3162
sg70
g3147
sg63
(lp3163
g56
(g57
g58
NtRp3164
(dp3165
g61
(dp3166
g69
I4
ssg70
g3160
sg63
(lp3167
S'Sun, 03 Jul 2011 22:18:38 GMT'
p3168
asbasbasbag56
(g72
g58
NtRp3169
(dp3170
g61
(dp3171
sg70
g3099
sg63
(lp3172
g56
(g77
g58
NtRp3173
(dp3174
g61
(dp3175
g81
g82
ssg70
g3169
sg63
(lp3176
S'Pragma'
p3177
asbag56
(g77
g58
NtRp3178
(dp3179
g61
(dp3180
g88
g89
ssg70
g3169
sg63
(lp3181
S':'
asbag56
(g77
g58
NtRp3182
(dp3183
g61
(dp3184
sg70
g3169
sg63
(lp3185
g56
(g57
g58
NtRp3186
(dp3187
g61
(dp3188
g69
I4
ssg70
g3182
sg63
(lp3189
S'no-cache'
p3190
asbasbasbasbasbasbasbag56
(g72
g58
NtRp3191
(dp3192
g61
(dp3193
sg70
g2798
sg63
(lp3194
g56
(g77
g58
NtRp3195
(dp3196
g61
(dp3197
g81
g82
ssg70
g3191
sg63
(lp3198
S'menu'
p3199
asbag56
(g77
g58
NtRp3200
(dp3201
g61
(dp3202
g88
g89
ssg70
g3191
sg63
(lp3203
S':'
asbag56
(g77
g58
NtRp3204
(dp3205
g61
(dp3206
sg70
g3191
sg63
(lp3207
g56
(g57
g58
NtRp3208
(dp3209
g61
(dp3210
g69
I5
ssg70
g3204
sg63
(lp3211
g56
(g65
g58
NtRp3212
(dp3213
g61
(dp3214
g69
I4
ssg70
Nsg63
(lp3215
sbasbasbasbag56
(g72
g58
NtRp3216
(dp3217
g61
(dp3218
sg70
g2798
sg63
(lp3219
g56
(g77
g58
NtRp3220
(dp3221
g61
(dp3222
g81
g82
ssg70
g3216
sg63
(lp3223
S'meta'
p3224
asbag56
(g77
g58
NtRp3225
(dp3226
g61
(dp3227
g88
g89
ssg70
g3216
sg63
(lp3228
S':'
asbag56
(g77
g58
NtRp3229
(dp3230
g61
(dp3231
sg70
g3216
sg63
(lp3232
g56
(g57
g58
NtRp3233
(dp3234
g61
(dp3235
g69
I5
ssg70
g3229
sg63
(lp3236
g56
(g65
g58
NtRp3237
(dp3238
g61
(dp3239
g69
I4
ssg70
Nsg63
(lp3240
sbasbasbasbag56
(g72
g58
NtRp3241
(dp3242
g61
(dp3243
sg70
g2798
sg63
(lp3244
g56
(g77
g58
NtRp3245
(dp3246
g61
(dp3247
g81
g82
ssg70
g3241
sg63
(lp3248
S'postprocessing'
p3249
asbag56
(g77
g58
NtRp3250
(dp3251
g61
(dp3252
g88
g89
ssg70
g3241
sg63
(lp3253
S':'
asbag56
(g77
g58
NtRp3254
(dp3255
g61
(dp3256
sg70
g3241
sg63
(lp3257
g56
(g57
g58
NtRp3258
(dp3259
g61
(dp3260
g69
I5
ssg70
g3254
sg63
(lp3261
g56
(g65
g58
NtRp3262
(dp3263
g61
(dp3264
g69
I4
ssg70
Nsg63
(lp3265
sbasbasbasbag56
(g72
g58
NtRp3266
(dp3267
g61
(dp3268
sg70
g2798
sg63
(lp3269
g56
(g77
g58
NtRp3270
(dp3271
g61
(dp3272
g81
g82
ssg70
g3266
sg63
(lp3273
S'session_file'
p3274
asbag56
(g77
g58
NtRp3275
(dp3276
g61
(dp3277
g88
g89
ssg70
g3266
sg63
(lp3278
S':'
asbag56
(g77
g58
NtRp3279
(dp3280
g61
(dp3281
sg70
g3266
sg63
(lp3282
g56
(g57
g58
NtRp3283
(dp3284
g61
(dp3285
g69
I5
ssg70
g3279
sg63
(lp3286
S"<open file '/home/derek/Dropbox/SEng265-Share/pe2/codeAct_1.01/web2py/applications/codeAct/sessions/127.0.0.1-d1d831bb-53ed-4595-ba8e-79f8327f07e5', mode 'rb+' at 0x9a6b230>"
p3287
asbasbasbag56
(g72
g58
NtRp3288
(dp3289
g61
(dp3290
sg70
g2798
sg63
(lp3291
g56
(g77
g58
NtRp3292
(dp3293
g61
(dp3294
g81
g82
ssg70
g3288
sg63
(lp3295
S'session_filename'
p3296
asbag56
(g77
g58
NtRp3297
(dp3298
g61
(dp3299
g88
g89
ssg70
g3288
sg63
(lp3300
S':'
asbag56
(g77
g58
NtRp3301
(dp3302
g61
(dp3303
sg70
g3288
sg63
(lp3304
g56
(g57
g58
NtRp3305
(dp3306
g61
(dp3307
g69
I5
ssg70
g3301
sg63
(lp3308
S'/home/derek/Dropbox/SEng265-Share/pe2/codeAct_1.01/web2py/applications/codeAct/sessions/127.0.0.1-d1d831bb-53ed-4595-ba8e-79f8327f07e5'
p3309
asbasbasbag56
(g72
g58
NtRp3310
(dp3311
g61
(dp3312
sg70
g2798
sg63
(lp3313
g56
(g77
g58
NtRp3314
(dp3315
g61
(dp3316
g81
g82
ssg70
g3310
sg63
(lp3317
S'session_id'
p3318
asbag56
(g77
g58
NtRp3319
(dp3320
g61
(dp3321
g88
g89
ssg70
g3310
sg63
(lp3322
S':'
asbag56
(g77
g58
NtRp3323
(dp3324
g61
(dp3325
sg70
g3310
sg63
(lp3326
g56
(g57
g58
NtRp3327
(dp3328
g61
(dp3329
g69
I5
ssg70
g3323
sg63
(lp3330
S'127.0.0.1-d1d831bb-53ed-4595-ba8e-79f8327f07e5'
p3331
asbasbasbag56
(g72
g58
NtRp3332
(dp3333
g61
(dp3334
sg70
g2798
sg63
(lp3335
g56
(g77
g58
NtRp3336
(dp3337
g61
(dp3338
g81
g82
ssg70
g3332
sg63
(lp3339
S'session_id_name'
p3340
asbag56
(g77
g58
NtRp3341
(dp3342
g61
(dp3343
g88
g89
ssg70
g3332
sg63
(lp3344
S':'
asbag56
(g77
g58
NtRp3345
(dp3346
g61
(dp3347
sg70
g3332
sg63
(lp3348
g56
(g57
g58
NtRp3349
(dp3350
g61
(dp3351
g69
I5
ssg70
g3345
sg63
(lp3352
g2855
asbasbasbag56
(g72
g58
NtRp3353
(dp3354
g61
(dp3355
sg70
g2798
sg63
(lp3356
g56
(g77
g58
NtRp3357
(dp3358
g61
(dp3359
g81
g82
ssg70
g3353
sg63
(lp3360
S'session_locked'
p3361
asbag56
(g77
g58
NtRp3362
(dp3363
g61
(dp3364
g88
g89
ssg70
g3353
sg63
(lp3365
S':'
asbag56
(g77
g58
NtRp3366
(dp3367
g61
(dp3368
sg70
g3353
sg63
(lp3369
g56
(g57
g58
NtRp3370
(dp3371
g61
(dp3372
g69
I5
ssg70
g3366
sg63
(lp3373
g1200
asbasbasbag56
(g72
g58
NtRp3374
(dp3375
g61
(dp3376
sg70
g2798
sg63
(lp3377
g56
(g77
g58
NtRp3378
(dp3379
g61
(dp3380
g81
g82
ssg70
g3374
sg63
(lp3381
S'session_new'
p3382
asbag56
(g77
g58
NtRp3383
(dp3384
g61
(dp3385
g88
g89
ssg70
g3374
sg63
(lp3386
S':'
asbag56
(g77
g58
NtRp3387
(dp3388
g61
(dp3389
sg70
g3374
sg63
(lp3390
g56
(g57
g58
NtRp3391
(dp3392
g61
(dp3393
g69
I5
ssg70
g3387
sg63
(lp3394
g99
asbasbasbag56
(g72
g58
NtRp3395
(dp3396
g61
(dp3397
sg70
g2798
sg63
(lp3398
g56
(g77
g58
NtRp3399
(dp3400
g61
(dp3401
g81
g82
ssg70
g3395
sg63
(lp3402
S'status'
p3403
asbag56
(g77
g58
NtRp3404
(dp3405
g61
(dp3406
g88
g89
ssg70
g3395
sg63
(lp3407
S':'
asbag56
(g77
g58
NtRp3408
(dp3409
g61
(dp3410
sg70
g3395
sg63
(lp3411
g56
(g57
g58
NtRp3412
(dp3413
g61
(dp3414
g69
I5
ssg70
g3408
sg63
(lp3415
S'200'
p3416
asbasbasbag56
(g72
g58
NtRp3417
(dp3418
g61
(dp3419
sg70
g2798
sg63
(lp3420
g56
(g77
g58
NtRp3421
(dp3422
g61
(dp3423
g81
g82
ssg70
g3417
sg63
(lp3424
g1607
asbag56
(g77
g58
NtRp3425
(dp3426
g61
(dp3427
g88
g89
ssg70
g3417
sg63
(lp3428
S':'
asbag56
(g77
g58
NtRp3429
(dp3430
g61
(dp3431
sg70
g3417
sg63
(lp3432
g56
(g57
g58
NtRp3433
(dp3434
g61
(dp3435
g69
I5
ssg70
g3429
sg63
(lp3436
g1620
asbasbasbag56
(g72
g58
NtRp3437
(dp3438
g61
(dp3439
sg70
g2798
sg63
(lp3440
g56
(g77
g58
NtRp3441
(dp3442
g61
(dp3443
g81
g82
ssg70
g3437
sg63
(lp3444
S'view'
p3445
asbag56
(g77
g58
NtRp3446
(dp3447
g61
(dp3448
g88
g89
ssg70
g3437
sg63
(lp3449
S':'
asbag56
(g77
g58
NtRp3450
(dp3451
g61
(dp3452
sg70
g3437
sg63
(lp3453
g56
(g57
g58
NtRp3454
(dp3455
g61
(dp3456
g69
I5
ssg70
g3450
sg63
(lp3457
S'ca_controller/quiz.html'
p3458
asbasbasbasbasbsS'locals'
p3459
(dp3460
S'name'
p3461
S"'$y0'"
p3462
sS'value'
p3463
S"['1', '0', '0']"
p3464
sssS'traceback'
p3465
S'Traceback (most recent call last):\n  File "/home/derek/Dropbox/SEng265-Share/pe2/codeAct_1.01/web2py/gluon/restricted.py", line 181, in restricted\n    exec ccode in environment\n  File "/home/derek/Dropbox/SEng265-Share/pe2/codeAct_1.01/web2py/applications/codeAct/controllers/ca_controller.py", line 85, in <module>\n  File "/home/derek/Dropbox/SEng265-Share/pe2/codeAct_1.01/web2py/gluon/globals.py", line 133, in <lambda>\n    self._caller = lambda f: f()\n  File "/home/derek/Dropbox/SEng265-Share/pe2/codeAct_1.01/web2py/applications/codeAct/controllers/ca_controller.py", line 71, in quiz\n    session[\'answer_list\'][question_number-1])\n  File "applications/codeAct/views/ca_controller/ca_question_HTML.py", line 106, in generate_html\n    gen_display(question.stdout_template,answer[\'stdout\']))\n  File "applications/codeAct/views/ca_controller/ca_question_HTML.py", line 52, in gen_display\n    template = template.replace(p,get_textbox(p,answer[p]))\n  File "applications/codeAct/views/ca_controller/ca_question_HTML.py", line 12, in get_textbox\n    return \'<input type="text" name="\'+name+\'" value="\'+value+\'" \\\nTypeError: cannot concatenate \'str\' and \'list\' objects\n'
p3466
s.