(dp1
S'output'
p2
S''
sS'layer'
p3
S'/home/derek/Dropbox/SEng265-Share/pe2/codeAct_1.01/web2py/applications/codeAct/controllers/ca_controller.py'
p4
sS'code'
p5
S"import sys\nimport time\nimport os\n\nimport ca_quiz as Quiz\nimport ca_log_create as log_create\n\nsys.path.append('applications/codeAct/controllers')\nimport ca_utility as utility\n\nsys.path.append('applications/codeAct/views/ca_controller')\nimport ca_question_HTML as question_HTML\n\nSERVERNAME = 'cdoku'\n\ndef ca_login():\n\tif not 'username' in request.vars.keys(): # not a submission\n\t\treturn dict(msg='')\n\telse: # request is a submission\n\t\t# get user list\n\t\tuser_list = 'allowed_users.txt'\n\t\t# check if student is registered in SENG265\n\t\tusers = open(os.path.join('../users/',user_list),\n\t\t 'r').read().split('\\n')\n\t\tif not request.vars['username'] in users:\n\t\t\treturn dict(\n\t\t\t msg = 'Not registered in the current session.')\n\t\t# authenticate username and password\n\t\tif os.uname()[1] == SERVERNAME:\n\t\t\tseng_auth = __import__('ca_seng_auth')\n\t\t\tif seng_auth.authenticate(request.vars['username'],\n\t\t\t request.vars['password']) != 0:\n\t\t\t\treturn dict(msg='Wrong username or password.')\n\t\tsession.login = request.vars['username']\n\t\tredirect(URL(r=request, f='quiz'))\n\ndef quiz():\n\t# the beginning of the quiz, create quiz and init answer_list\n\tif 'quiz_spec' in request.vars.keys():\n\t\tsession['quiz'] = Quiz.quiz(request.vars['quiz_spec'])\n\t\tsession['answer_list'] = utility.init_answer_list(\n\t\t session['quiz'])\n\t\t# initialize question_timer\n\t\tsession['question_timer'] = int(time.time())\n\t\t# reset the login\n\t\tif 'login' in session.keys():\n\t\t\tdel session['login']\n\n\t# if quiz does not exist, redirect to home page\n\tif not 'quiz' in session.keys():\n\t\tredirect(URL(r=request, f='ca_index'))\n\n\t# check login in marked mode\n\tif not 'login' in session.keys():\n\t\tif not session['quiz'].practice_mode: \n\t\t\tredirect(URL(r=request, f='ca_login'))\n\t\telse:\n\t\t\tsession['login'] = ''\n\n\t# init log_dir and log\n\tif session['quiz'].logged:\n\t\tlog_create.create_log(session['quiz'].log_dir,\n\t\t session['login'])\n\n\t# generate HTML code\n\tquestion_number = utility.get_question_number(request.vars)\n\tquestion = session['quiz'].get_question(question_number-1)\n\tutility.update_answer(question,question_number,session['answer_list'],\n\t request.vars)\n\tcode = question_HTML.generate_html(session['quiz'],question_number,\n\t session['answer_list'][question_number-1])\n\tcode = utility.get_result(code,question,question_number,\n\t session['quiz'].logged,session['quiz'].log_dir,\n\t session['quiz'].practice_mode,session['login'],\n\t session['answer_list'][question_number-1],\n\t request.vars,session['question_timer'])\n\tcode = utility.add_submit_label(code,session['quiz'].practice_mode)\n\tcode = utility.disable_navi_buttons(code,question_number,\n\t session['quiz'])\n\n\t# update question timer\n\tsession['question_timer'] = int(time.time())\n\treturn code\n\nresponse._vars=response._caller(quiz)\n"
p6
sS'snapshot'
p7
(dp8
S'exception'
p9
(dp10
S'__hash__'
p11
S"<method-wrapper '__hash__' of exceptions.NameError object>"
p12
sS'__setattr__'
p13
S"<method-wrapper '__setattr__' of exceptions.NameError object>"
p14
sS'__reduce_ex__'
p15
S'<built-in method __reduce_ex__ of exceptions.NameError object>'
p16
sS'__getslice__'
p17
S"<method-wrapper '__getslice__' of exceptions.NameError object>"
p18
sS'__getitem__'
p19
S"<method-wrapper '__getitem__' of exceptions.NameError object>"
p20
sS'__setstate__'
p21
S'<built-in method __setstate__ of exceptions.NameError object>'
p22
sS'__reduce__'
p23
S'<built-in method __reduce__ of exceptions.NameError object>'
p24
sS'__str__'
p25
S"<method-wrapper '__str__' of exceptions.NameError object>"
p26
sS'__format__'
p27
S'<built-in method __format__ of exceptions.NameError object>'
p28
sS'__getattribute__'
p29
S"<method-wrapper '__getattribute__' of exceptions.NameError object>"
p30
sS'__class__'
p31
S"<type 'exceptions.NameError'>"
p32
sS'__unicode__'
p33
S'<built-in method __unicode__ of exceptions.NameError object>'
p34
sS'__delattr__'
p35
S"<method-wrapper '__delattr__' of exceptions.NameError object>"
p36
sS'__subclasshook__'
p37
S'<built-in method __subclasshook__ of type object>'
p38
sS'__repr__'
p39
S"<method-wrapper '__repr__' of exceptions.NameError object>"
p40
sS'args'
p41
S'("name \'mark\' is not defined",)'
p42
sS'__dict__'
p43
S'{}'
p44
sS'__sizeof__'
p45
S'<built-in method __sizeof__ of exceptions.NameError object>'
p46
sS'__doc__'
p47
S"'Name not found globally.'"
p48
sS'__init__'
p49
S"<method-wrapper '__init__' of exceptions.NameError object>"
p50
sS'__new__'
p51
S'<built-in method __new__ of type object>'
p52
ssS'evalue'
p53
S"name 'mark' is not defined"
p54
sS'request'
p55
ccopy_reg
_reconstructor
p56
(cgluon.html
BEAUTIFY
p57
c__builtin__
object
p58
NtRp59
(dp60
S'attributes'
p61
(dp62
sS'components'
p63
(lp64
g56
(cgluon.html
TABLE
p65
g58
NtRp66
(dp67
g61
(dp68
S'level'
p69
I5
ssS'parent'
p70
Nsg63
(lp71
g56
(cgluon.html
TR
p72
g58
NtRp73
(dp74
g61
(dp75
sg70
g66
sg63
(lp76
g56
(cgluon.html
TD
p77
g58
NtRp78
(dp79
g61
(dp80
S'_style'
p81
S'font-weight:bold;'
p82
ssg70
g73
sg63
(lp83
S'ajax'
p84
asbag56
(g77
g58
NtRp85
(dp86
g61
(dp87
S'_valign'
p88
S'top'
p89
ssg70
g73
sg63
(lp90
S':'
asbag56
(g77
g58
NtRp91
(dp92
g61
(dp93
sg70
g73
sg63
(lp94
g56
(g57
g58
NtRp95
(dp96
g61
(dp97
g69
I5
ssg70
g91
sg63
(lp98
S'False'
p99
asbasbasbag56
(g72
g58
NtRp100
(dp101
g61
(dp102
sg70
g66
sg63
(lp103
g56
(g77
g58
NtRp104
(dp105
g61
(dp106
g81
g82
ssg70
g100
sg63
(lp107
S'application'
p108
asbag56
(g77
g58
NtRp109
(dp110
g61
(dp111
g88
g89
ssg70
g100
sg63
(lp112
S':'
asbag56
(g77
g58
NtRp113
(dp114
g61
(dp115
sg70
g100
sg63
(lp116
g56
(g57
g58
NtRp117
(dp118
g61
(dp119
g69
I5
ssg70
g113
sg63
(lp120
S'codeAct'
p121
asbasbasbag56
(g72
g58
NtRp122
(dp123
g61
(dp124
sg70
g66
sg63
(lp125
g56
(g77
g58
NtRp126
(dp127
g61
(dp128
g81
g82
ssg70
g122
sg63
(lp129
g41
asbag56
(g77
g58
NtRp130
(dp131
g61
(dp132
g88
g89
ssg70
g122
sg63
(lp133
S':'
asbag56
(g77
g58
NtRp134
(dp135
g61
(dp136
sg70
g122
sg63
(lp137
g56
(g57
g58
NtRp138
(dp139
g61
(dp140
g69
I5
ssg70
g134
sg63
(lp141
g56
(g65
g58
NtRp142
(dp143
g61
(dp144
g69
I4
ssg70
Nsg63
(lp145
sbasbasbasbag56
(g72
g58
NtRp146
(dp147
g61
(dp148
sg70
g66
sg63
(lp149
g56
(g77
g58
NtRp150
(dp151
g61
(dp152
g81
g82
ssg70
g146
sg63
(lp153
S'body'
p154
asbag56
(g77
g58
NtRp155
(dp156
g61
(dp157
g88
g89
ssg70
g146
sg63
(lp158
S':'
asbag56
(g77
g58
NtRp159
(dp160
g61
(dp161
sg70
g146
sg63
(lp162
g56
(g57
g58
NtRp163
(dp164
g61
(dp165
g69
I5
ssg70
g159
sg63
(lp166
S'<cStringIO.StringO object at 0x8cbdb20>'
p167
asbasbasbag56
(g72
g58
NtRp168
(dp169
g61
(dp170
sg70
g66
sg63
(lp171
g56
(g77
g58
NtRp172
(dp173
g61
(dp174
g81
g82
ssg70
g168
sg63
(lp175
S'client'
p176
asbag56
(g77
g58
NtRp177
(dp178
g61
(dp179
g88
g89
ssg70
g168
sg63
(lp180
S':'
asbag56
(g77
g58
NtRp181
(dp182
g61
(dp183
sg70
g168
sg63
(lp184
g56
(g57
g58
NtRp185
(dp186
g61
(dp187
g69
I5
ssg70
g181
sg63
(lp188
S'127.0.0.1'
p189
asbasbasbag56
(g72
g58
NtRp190
(dp191
g61
(dp192
sg70
g66
sg63
(lp193
g56
(g77
g58
NtRp194
(dp195
g61
(dp196
g81
g82
ssg70
g190
sg63
(lp197
S'controller'
p198
asbag56
(g77
g58
NtRp199
(dp200
g61
(dp201
g88
g89
ssg70
g190
sg63
(lp202
S':'
asbag56
(g77
g58
NtRp203
(dp204
g61
(dp205
sg70
g190
sg63
(lp206
g56
(g57
g58
NtRp207
(dp208
g61
(dp209
g69
I5
ssg70
g203
sg63
(lp210
S'ca_controller'
p211
asbasbasbag56
(g72
g58
NtRp212
(dp213
g61
(dp214
sg70
g66
sg63
(lp215
g56
(g77
g58
NtRp216
(dp217
g61
(dp218
g81
g82
ssg70
g212
sg63
(lp219
S'cookies'
p220
asbag56
(g77
g58
NtRp221
(dp222
g61
(dp223
g88
g89
ssg70
g212
sg63
(lp224
S':'
asbag56
(g77
g58
NtRp225
(dp226
g61
(dp227
sg70
g212
sg63
(lp228
g56
(g57
g58
NtRp229
(dp230
g61
(dp231
g69
I5
ssg70
g225
sg63
(lp232
g56
(g65
g58
NtRp233
(dp234
g61
(dp235
g69
I4
ssg70
Nsg63
(lp236
g56
(g72
g58
NtRp237
(dp238
g61
(dp239
sg70
g233
sg63
(lp240
g56
(g77
g58
NtRp241
(dp242
g61
(dp243
g81
g82
ssg70
g237
sg63
(lp244
S'session_id_codeact'
p245
asbag56
(g77
g58
NtRp246
(dp247
g61
(dp248
g88
g89
ssg70
g237
sg63
(lp249
S':'
asbag56
(g77
g58
NtRp250
(dp251
g61
(dp252
sg70
g237
sg63
(lp253
g56
(g57
g58
NtRp254
(dp255
g61
(dp256
g69
I4
ssg70
g250
sg63
(lp257
g56
(g65
g58
NtRp258
(dp259
g61
(dp260
g69
I3
ssg70
Nsg63
(lp261
g56
(g72
g58
NtRp262
(dp263
g61
(dp264
sg70
g258
sg63
(lp265
g56
(g77
g58
NtRp266
(dp267
g61
(dp268
g81
g82
ssg70
g262
sg63
(lp269
S'comment'
p270
asbag56
(g77
g58
NtRp271
(dp272
g61
(dp273
g88
g89
ssg70
g262
sg63
(lp274
S':'
asbag56
(g77
g58
NtRp275
(dp276
g61
(dp277
sg70
g262
sg63
(lp278
g56
(g57
g58
NtRp279
(dp280
g61
(dp281
g69
I3
ssg70
g275
sg63
(lp282
S''
asbasbasbag56
(g72
g58
NtRp283
(dp284
g61
(dp285
sg70
g258
sg63
(lp286
g56
(g77
g58
NtRp287
(dp288
g61
(dp289
g81
g82
ssg70
g283
sg63
(lp290
S'domain'
p291
asbag56
(g77
g58
NtRp292
(dp293
g61
(dp294
g88
g89
ssg70
g283
sg63
(lp295
S':'
asbag56
(g77
g58
NtRp296
(dp297
g61
(dp298
sg70
g283
sg63
(lp299
g56
(g57
g58
NtRp300
(dp301
g61
(dp302
g69
I3
ssg70
g296
sg63
(lp303
S''
asbasbasbag56
(g72
g58
NtRp304
(dp305
g61
(dp306
sg70
g258
sg63
(lp307
g56
(g77
g58
NtRp308
(dp309
g61
(dp310
g81
g82
ssg70
g304
sg63
(lp311
S'expires'
p312
asbag56
(g77
g58
NtRp313
(dp314
g61
(dp315
g88
g89
ssg70
g304
sg63
(lp316
S':'
asbag56
(g77
g58
NtRp317
(dp318
g61
(dp319
sg70
g304
sg63
(lp320
g56
(g57
g58
NtRp321
(dp322
g61
(dp323
g69
I3
ssg70
g317
sg63
(lp324
S''
asbasbasbag56
(g72
g58
NtRp325
(dp326
g61
(dp327
sg70
g258
sg63
(lp328
g56
(g77
g58
NtRp329
(dp330
g61
(dp331
g81
g82
ssg70
g325
sg63
(lp332
S'httponly'
p333
asbag56
(g77
g58
NtRp334
(dp335
g61
(dp336
g88
g89
ssg70
g325
sg63
(lp337
S':'
asbag56
(g77
g58
NtRp338
(dp339
g61
(dp340
sg70
g325
sg63
(lp341
g56
(g57
g58
NtRp342
(dp343
g61
(dp344
g69
I3
ssg70
g338
sg63
(lp345
S''
asbasbasbag56
(g72
g58
NtRp346
(dp347
g61
(dp348
sg70
g258
sg63
(lp349
g56
(g77
g58
NtRp350
(dp351
g61
(dp352
g81
g82
ssg70
g346
sg63
(lp353
S'max-age'
p354
asbag56
(g77
g58
NtRp355
(dp356
g61
(dp357
g88
g89
ssg70
g346
sg63
(lp358
S':'
asbag56
(g77
g58
NtRp359
(dp360
g61
(dp361
sg70
g346
sg63
(lp362
g56
(g57
g58
NtRp363
(dp364
g61
(dp365
g69
I3
ssg70
g359
sg63
(lp366
S''
asbasbasbag56
(g72
g58
NtRp367
(dp368
g61
(dp369
sg70
g258
sg63
(lp370
g56
(g77
g58
NtRp371
(dp372
g61
(dp373
g81
g82
ssg70
g367
sg63
(lp374
S'path'
p375
asbag56
(g77
g58
NtRp376
(dp377
g61
(dp378
g88
g89
ssg70
g367
sg63
(lp379
S':'
asbag56
(g77
g58
NtRp380
(dp381
g61
(dp382
sg70
g367
sg63
(lp383
g56
(g57
g58
NtRp384
(dp385
g61
(dp386
g69
I3
ssg70
g380
sg63
(lp387
S''
asbasbasbag56
(g72
g58
NtRp388
(dp389
g61
(dp390
sg70
g258
sg63
(lp391
g56
(g77
g58
NtRp392
(dp393
g61
(dp394
g81
g82
ssg70
g388
sg63
(lp395
S'secure'
p396
asbag56
(g77
g58
NtRp397
(dp398
g61
(dp399
g88
g89
ssg70
g388
sg63
(lp400
S':'
asbag56
(g77
g58
NtRp401
(dp402
g61
(dp403
sg70
g388
sg63
(lp404
g56
(g57
g58
NtRp405
(dp406
g61
(dp407
g69
I3
ssg70
g401
sg63
(lp408
S''
asbasbasbag56
(g72
g58
NtRp409
(dp410
g61
(dp411
sg70
g258
sg63
(lp412
g56
(g77
g58
NtRp413
(dp414
g61
(dp415
g81
g82
ssg70
g409
sg63
(lp416
S'version'
p417
asbag56
(g77
g58
NtRp418
(dp419
g61
(dp420
g88
g89
ssg70
g409
sg63
(lp421
S':'
asbag56
(g77
g58
NtRp422
(dp423
g61
(dp424
sg70
g409
sg63
(lp425
g56
(g57
g58
NtRp426
(dp427
g61
(dp428
g69
I3
ssg70
g422
sg63
(lp429
S''
asbasbasbasbasbasbasbasbasbasbasbag56
(g72
g58
NtRp430
(dp431
g61
(dp432
sg70
g66
sg63
(lp433
g56
(g77
g58
NtRp434
(dp435
g61
(dp436
g81
g82
ssg70
g430
sg63
(lp437
S'env'
p438
asbag56
(g77
g58
NtRp439
(dp440
g61
(dp441
g88
g89
ssg70
g430
sg63
(lp442
S':'
asbag56
(g77
g58
NtRp443
(dp444
g61
(dp445
sg70
g430
sg63
(lp446
g56
(g57
g58
NtRp447
(dp448
g61
(dp449
g69
I5
ssg70
g443
sg63
(lp450
g56
(g65
g58
NtRp451
(dp452
g61
(dp453
g69
I4
ssg70
Nsg63
(lp454
g56
(g72
g58
NtRp455
(dp456
g61
(dp457
sg70
g451
sg63
(lp458
g56
(g77
g58
NtRp459
(dp460
g61
(dp461
g81
g82
ssg70
g455
sg63
(lp462
S'app_folders'
p463
asbag56
(g77
g58
NtRp464
(dp465
g61
(dp466
g88
g89
ssg70
g455
sg63
(lp467
S':'
asbag56
(g77
g58
NtRp468
(dp469
g61
(dp470
sg70
g455
sg63
(lp471
g56
(g57
g58
NtRp472
(dp473
g61
(dp474
g69
I4
ssg70
g468
sg63
(lp475
S"set(['/home/derek/Dropbox/SEng265-Share/pe2/codeAct_1.01/web2py/applications/codeAct/'])"
p476
asbasbasbag56
(g72
g58
NtRp477
(dp478
g61
(dp479
sg70
g451
sg63
(lp480
g56
(g77
g58
NtRp481
(dp482
g61
(dp483
g81
g82
ssg70
g477
sg63
(lp484
S'applications_parent'
p485
asbag56
(g77
g58
NtRp486
(dp487
g61
(dp488
g88
g89
ssg70
g477
sg63
(lp489
S':'
asbag56
(g77
g58
NtRp490
(dp491
g61
(dp492
sg70
g477
sg63
(lp493
g56
(g57
g58
NtRp494
(dp495
g61
(dp496
g69
I4
ssg70
g490
sg63
(lp497
S'/home/derek/Dropbox/SEng265-Share/pe2/codeAct_1.01/web2py'
p498
asbasbasbag56
(g72
g58
NtRp499
(dp500
g61
(dp501
sg70
g451
sg63
(lp502
g56
(g77
g58
NtRp503
(dp504
g61
(dp505
g81
g82
ssg70
g499
sg63
(lp506
S'cmd_args'
p507
asbag56
(g77
g58
NtRp508
(dp509
g61
(dp510
g88
g89
ssg70
g499
sg63
(lp511
S':'
asbag56
(g77
g58
NtRp512
(dp513
g61
(dp514
sg70
g499
sg63
(lp515
g56
(g57
g58
NtRp516
(dp517
g61
(dp518
g69
I4
ssg70
g512
sg63
(lp519
g56
(g65
g58
NtRp520
(dp521
g61
(dp522
g69
I3
ssg70
Nsg63
(lp523
sbasbasbasbag56
(g72
g58
NtRp524
(dp525
g61
(dp526
sg70
g451
sg63
(lp527
g56
(g77
g58
NtRp528
(dp529
g61
(dp530
g81
g82
ssg70
g524
sg63
(lp531
S'cmd_options'
p532
asbag56
(g77
g58
NtRp533
(dp534
g61
(dp535
g88
g89
ssg70
g524
sg63
(lp536
S':'
asbag56
(g77
g58
NtRp537
(dp538
g61
(dp539
sg70
g524
sg63
(lp540
g56
(g57
g58
NtRp541
(dp542
g61
(dp543
g69
I4
ssg70
g537
sg63
(lp544
S"<Values at 0x8b718ac: {'verbose': False, 'ip': '127.0.0.1', 'shutdown_timeout': 5, 'taskbar': False, 'port': 8080, 'maxthreads': None, 'softcron': False, 'server_name': 'ubu', 'bpython': False, 'nogui': False, 'nocron': False, 'extcron': False, 'debuglevel': 30, 'test': None, 'folder': '/home/derek/Dropbox/SEng265-Share/pe2/codeAct_1.01/web2py', 'config': '', 'import_models': False, 'winservice': '', 'shell': None, 'run': '', 'log_filename': 'httpserver.log', 'args': [''], 'profiler_filename': None, 'ssl_private_key': '', 'password': 'password', 'request_queue_size': 5, 'ssl_certificate': '', 'cronjob': False, 'plain': False, 'quiet': False, 'interfaces': None, 'minthreads': None, 'timeout': 10, 'numthreads': None, 'pid_filename': 'httpserver.pid'}>"
p545
asbasbasbag56
(g72
g58
NtRp546
(dp547
g61
(dp548
sg70
g451
sg63
(lp549
g56
(g77
g58
NtRp550
(dp551
g61
(dp552
g81
g82
ssg70
g546
sg63
(lp553
S'db_sessions'
p554
asbag56
(g77
g58
NtRp555
(dp556
g61
(dp557
g88
g89
ssg70
g546
sg63
(lp558
S':'
asbag56
(g77
g58
NtRp559
(dp560
g61
(dp561
sg70
g546
sg63
(lp562
g56
(g57
g58
NtRp563
(dp564
g61
(dp565
g69
I4
ssg70
g559
sg63
(lp566
S'set([])'
p567
asbasbasbag56
(g72
g58
NtRp568
(dp569
g61
(dp570
sg70
g451
sg63
(lp571
g56
(g77
g58
NtRp572
(dp573
g61
(dp574
g81
g82
ssg70
g568
sg63
(lp575
S'debugging'
p576
asbag56
(g77
g58
NtRp577
(dp578
g61
(dp579
g88
g89
ssg70
g568
sg63
(lp580
S':'
asbag56
(g77
g58
NtRp581
(dp582
g61
(dp583
sg70
g568
sg63
(lp584
g56
(g57
g58
NtRp585
(dp586
g61
(dp587
g69
I4
ssg70
g581
sg63
(lp588
g99
asbasbasbag56
(g72
g58
NtRp589
(dp590
g61
(dp591
sg70
g451
sg63
(lp592
g56
(g77
g58
NtRp593
(dp594
g61
(dp595
g81
g82
ssg70
g589
sg63
(lp596
S'gluon_parent'
p597
asbag56
(g77
g58
NtRp598
(dp599
g61
(dp600
g88
g89
ssg70
g589
sg63
(lp601
S':'
asbag56
(g77
g58
NtRp602
(dp603
g61
(dp604
sg70
g589
sg63
(lp605
g56
(g57
g58
NtRp606
(dp607
g61
(dp608
g69
I4
ssg70
g602
sg63
(lp609
S'/home/derek/Dropbox/SEng265-Share/pe2/codeAct_1.01/web2py'
p610
asbasbasbag56
(g72
g58
NtRp611
(dp612
g61
(dp613
sg70
g451
sg63
(lp614
g56
(g77
g58
NtRp615
(dp616
g61
(dp617
g81
g82
ssg70
g611
sg63
(lp618
S'http_accept'
p619
asbag56
(g77
g58
NtRp620
(dp621
g61
(dp622
g88
g89
ssg70
g611
sg63
(lp623
S':'
asbag56
(g77
g58
NtRp624
(dp625
g61
(dp626
sg70
g611
sg63
(lp627
g56
(g57
g58
NtRp628
(dp629
g61
(dp630
g69
I4
ssg70
g624
sg63
(lp631
S'text/html,application/xhtml+xml,application/xml;q=0.9,*/*;q=0.8'
p632
asbasbasbag56
(g72
g58
NtRp633
(dp634
g61
(dp635
sg70
g451
sg63
(lp636
g56
(g77
g58
NtRp637
(dp638
g61
(dp639
g81
g82
ssg70
g633
sg63
(lp640
S'http_accept_charset'
p641
asbag56
(g77
g58
NtRp642
(dp643
g61
(dp644
g88
g89
ssg70
g633
sg63
(lp645
S':'
asbag56
(g77
g58
NtRp646
(dp647
g61
(dp648
sg70
g633
sg63
(lp649
g56
(g57
g58
NtRp650
(dp651
g61
(dp652
g69
I4
ssg70
g646
sg63
(lp653
S'ISO-8859-1,utf-8;q=0.7,*;q=0.7'
p654
asbasbasbag56
(g72
g58
NtRp655
(dp656
g61
(dp657
sg70
g451
sg63
(lp658
g56
(g77
g58
NtRp659
(dp660
g61
(dp661
g81
g82
ssg70
g655
sg63
(lp662
S'http_accept_encoding'
p663
asbag56
(g77
g58
NtRp664
(dp665
g61
(dp666
g88
g89
ssg70
g655
sg63
(lp667
S':'
asbag56
(g77
g58
NtRp668
(dp669
g61
(dp670
sg70
g655
sg63
(lp671
g56
(g57
g58
NtRp672
(dp673
g61
(dp674
g69
I4
ssg70
g668
sg63
(lp675
S'gzip, deflate'
p676
asbasbasbag56
(g72
g58
NtRp677
(dp678
g61
(dp679
sg70
g451
sg63
(lp680
g56
(g77
g58
NtRp681
(dp682
g61
(dp683
g81
g82
ssg70
g677
sg63
(lp684
S'http_accept_language'
p685
asbag56
(g77
g58
NtRp686
(dp687
g61
(dp688
g88
g89
ssg70
g677
sg63
(lp689
S':'
asbag56
(g77
g58
NtRp690
(dp691
g61
(dp692
sg70
g677
sg63
(lp693
g56
(g57
g58
NtRp694
(dp695
g61
(dp696
g69
I4
ssg70
g690
sg63
(lp697
S'en-us,en;q=0.5'
p698
asbasbasbag56
(g72
g58
NtRp699
(dp700
g61
(dp701
sg70
g451
sg63
(lp702
g56
(g77
g58
NtRp703
(dp704
g61
(dp705
g81
g82
ssg70
g699
sg63
(lp706
S'http_connection'
p707
asbag56
(g77
g58
NtRp708
(dp709
g61
(dp710
g88
g89
ssg70
g699
sg63
(lp711
S':'
asbag56
(g77
g58
NtRp712
(dp713
g61
(dp714
sg70
g699
sg63
(lp715
g56
(g57
g58
NtRp716
(dp717
g61
(dp718
g69
I4
ssg70
g712
sg63
(lp719
S'keep-alive'
p720
asbasbasbag56
(g72
g58
NtRp721
(dp722
g61
(dp723
sg70
g451
sg63
(lp724
g56
(g77
g58
NtRp725
(dp726
g61
(dp727
g81
g82
ssg70
g721
sg63
(lp728
S'http_cookie'
p729
asbag56
(g77
g58
NtRp730
(dp731
g61
(dp732
g88
g89
ssg70
g721
sg63
(lp733
S':'
asbag56
(g77
g58
NtRp734
(dp735
g61
(dp736
sg70
g721
sg63
(lp737
g56
(g57
g58
NtRp738
(dp739
g61
(dp740
g69
I4
ssg70
g734
sg63
(lp741
S'session_id_codeact=127.0.0.1-d1d831bb-53ed-4595-ba8e-79f8327f07e5'
p742
asbasbasbag56
(g72
g58
NtRp743
(dp744
g61
(dp745
sg70
g451
sg63
(lp746
g56
(g77
g58
NtRp747
(dp748
g61
(dp749
g81
g82
ssg70
g743
sg63
(lp750
S'http_host'
p751
asbag56
(g77
g58
NtRp752
(dp753
g61
(dp754
g88
g89
ssg70
g743
sg63
(lp755
S':'
asbag56
(g77
g58
NtRp756
(dp757
g61
(dp758
sg70
g743
sg63
(lp759
g56
(g57
g58
NtRp760
(dp761
g61
(dp762
g69
I4
ssg70
g756
sg63
(lp763
S'localhost:8080'
p764
asbasbasbag56
(g72
g58
NtRp765
(dp766
g61
(dp767
sg70
g451
sg63
(lp768
g56
(g77
g58
NtRp769
(dp770
g61
(dp771
g81
g82
ssg70
g765
sg63
(lp772
S'http_user_agent'
p773
asbag56
(g77
g58
NtRp774
(dp775
g61
(dp776
g88
g89
ssg70
g765
sg63
(lp777
S':'
asbag56
(g77
g58
NtRp778
(dp779
g61
(dp780
sg70
g765
sg63
(lp781
g56
(g57
g58
NtRp782
(dp783
g61
(dp784
g69
I4
ssg70
g778
sg63
(lp785
S'Mozilla/5.0 (X11; Linux i686; rv:5.0) Gecko/20100101 Firefox/5.0'
p786
asbasbasbag56
(g72
g58
NtRp787
(dp788
g61
(dp789
sg70
g451
sg63
(lp790
g56
(g77
g58
NtRp791
(dp792
g61
(dp793
g81
g82
ssg70
g787
sg63
(lp794
S'path_info'
p795
asbag56
(g77
g58
NtRp796
(dp797
g61
(dp798
g88
g89
ssg70
g787
sg63
(lp799
S':'
asbag56
(g77
g58
NtRp800
(dp801
g61
(dp802
sg70
g787
sg63
(lp803
g56
(g57
g58
NtRp804
(dp805
g61
(dp806
g69
I4
ssg70
g800
sg63
(lp807
S'/codeAct/ca_controller/quiz.html'
p808
asbasbasbag56
(g72
g58
NtRp809
(dp810
g61
(dp811
sg70
g451
sg63
(lp812
g56
(g77
g58
NtRp813
(dp814
g61
(dp815
g81
g82
ssg70
g809
sg63
(lp816
S'query_string'
p817
asbag56
(g77
g58
NtRp818
(dp819
g61
(dp820
g88
g89
ssg70
g809
sg63
(lp821
S':'
asbag56
(g77
g58
NtRp822
(dp823
g61
(dp824
sg70
g809
sg63
(lp825
g56
(g57
g58
NtRp826
(dp827
g61
(dp828
g69
I4
ssg70
g822
sg63
(lp829
S'quiz_spec=../quiz_specs/sort_quiz_spec'
p830
asbasbasbag56
(g72
g58
NtRp831
(dp832
g61
(dp833
sg70
g451
sg63
(lp834
g56
(g77
g58
NtRp835
(dp836
g61
(dp837
g81
g82
ssg70
g831
sg63
(lp838
S'remote_addr'
p839
asbag56
(g77
g58
NtRp840
(dp841
g61
(dp842
g88
g89
ssg70
g831
sg63
(lp843
S':'
asbag56
(g77
g58
NtRp844
(dp845
g61
(dp846
sg70
g831
sg63
(lp847
g56
(g57
g58
NtRp848
(dp849
g61
(dp850
g69
I4
ssg70
g844
sg63
(lp851
g189
asbasbasbag56
(g72
g58
NtRp852
(dp853
g61
(dp854
sg70
g451
sg63
(lp855
g56
(g77
g58
NtRp856
(dp857
g61
(dp858
g81
g82
ssg70
g852
sg63
(lp859
S'remote_port'
p860
asbag56
(g77
g58
NtRp861
(dp862
g61
(dp863
g88
g89
ssg70
g852
sg63
(lp864
S':'
asbag56
(g77
g58
NtRp865
(dp866
g61
(dp867
sg70
g852
sg63
(lp868
g56
(g57
g58
NtRp869
(dp870
g61
(dp871
g69
I4
ssg70
g865
sg63
(lp872
S'57511'
p873
asbasbasbag56
(g72
g58
NtRp874
(dp875
g61
(dp876
sg70
g451
sg63
(lp877
g56
(g77
g58
NtRp878
(dp879
g61
(dp880
g81
g82
ssg70
g874
sg63
(lp881
S'request_method'
p882
asbag56
(g77
g58
NtRp883
(dp884
g61
(dp885
g88
g89
ssg70
g874
sg63
(lp886
S':'
asbag56
(g77
g58
NtRp887
(dp888
g61
(dp889
sg70
g874
sg63
(lp890
g56
(g57
g58
NtRp891
(dp892
g61
(dp893
g69
I4
ssg70
g887
sg63
(lp894
S'GET'
p895
asbasbasbag56
(g72
g58
NtRp896
(dp897
g61
(dp898
sg70
g451
sg63
(lp899
g56
(g77
g58
NtRp900
(dp901
g61
(dp902
g81
g82
ssg70
g896
sg63
(lp903
S'script_name'
p904
asbag56
(g77
g58
NtRp905
(dp906
g61
(dp907
g88
g89
ssg70
g896
sg63
(lp908
S':'
asbag56
(g77
g58
NtRp909
(dp910
g61
(dp911
sg70
g896
sg63
(lp912
g56
(g57
g58
NtRp913
(dp914
g61
(dp915
g69
I4
ssg70
g909
sg63
(lp916
S''
asbasbasbag56
(g72
g58
NtRp917
(dp918
g61
(dp919
sg70
g451
sg63
(lp920
g56
(g77
g58
NtRp921
(dp922
g61
(dp923
g81
g82
ssg70
g917
sg63
(lp924
S'server_name'
p925
asbag56
(g77
g58
NtRp926
(dp927
g61
(dp928
g88
g89
ssg70
g917
sg63
(lp929
S':'
asbag56
(g77
g58
NtRp930
(dp931
g61
(dp932
sg70
g917
sg63
(lp933
g56
(g57
g58
NtRp934
(dp935
g61
(dp936
g69
I4
ssg70
g930
sg63
(lp937
S'ubu'
p938
asbasbasbag56
(g72
g58
NtRp939
(dp940
g61
(dp941
sg70
g451
sg63
(lp942
g56
(g77
g58
NtRp943
(dp944
g61
(dp945
g81
g82
ssg70
g939
sg63
(lp946
S'server_port'
p947
asbag56
(g77
g58
NtRp948
(dp949
g61
(dp950
g88
g89
ssg70
g939
sg63
(lp951
S':'
asbag56
(g77
g58
NtRp952
(dp953
g61
(dp954
sg70
g939
sg63
(lp955
g56
(g57
g58
NtRp956
(dp957
g61
(dp958
g69
I4
ssg70
g952
sg63
(lp959
S'8080'
p960
asbasbasbag56
(g72
g58
NtRp961
(dp962
g61
(dp963
sg70
g451
sg63
(lp964
g56
(g77
g58
NtRp965
(dp966
g61
(dp967
g81
g82
ssg70
g961
sg63
(lp968
S'server_protocol'
p969
asbag56
(g77
g58
NtRp970
(dp971
g61
(dp972
g88
g89
ssg70
g961
sg63
(lp973
S':'
asbag56
(g77
g58
NtRp974
(dp975
g61
(dp976
sg70
g961
sg63
(lp977
g56
(g57
g58
NtRp978
(dp979
g61
(dp980
g69
I4
ssg70
g974
sg63
(lp981
S'HTTP/1.1'
p982
asbasbasbag56
(g72
g58
NtRp983
(dp984
g61
(dp985
sg70
g451
sg63
(lp986
g56
(g77
g58
NtRp987
(dp988
g61
(dp989
g81
g82
ssg70
g983
sg63
(lp990
S'server_software'
p991
asbag56
(g77
g58
NtRp992
(dp993
g61
(dp994
g88
g89
ssg70
g983
sg63
(lp995
S':'
asbag56
(g77
g58
NtRp996
(dp997
g61
(dp998
sg70
g983
sg63
(lp999
g56
(g57
g58
NtRp1000
(dp1001
g61
(dp1002
g69
I4
ssg70
g996
sg63
(lp1003
S'Rocket 1.2.2'
p1004
asbasbasbag56
(g72
g58
NtRp1005
(dp1006
g61
(dp1007
sg70
g451
sg63
(lp1008
g56
(g77
g58
NtRp1009
(dp1010
g61
(dp1011
g81
g82
ssg70
g1005
sg63
(lp1012
S'web2py_crontype'
p1013
asbag56
(g77
g58
NtRp1014
(dp1015
g61
(dp1016
g88
g89
ssg70
g1005
sg63
(lp1017
S':'
asbag56
(g77
g58
NtRp1018
(dp1019
g61
(dp1020
sg70
g1005
sg63
(lp1021
g56
(g57
g58
NtRp1022
(dp1023
g61
(dp1024
g69
I4
ssg70
g1018
sg63
(lp1025
S'hard'
p1026
asbasbasbag56
(g72
g58
NtRp1027
(dp1028
g61
(dp1029
sg70
g451
sg63
(lp1030
g56
(g77
g58
NtRp1031
(dp1032
g61
(dp1033
g81
g82
ssg70
g1027
sg63
(lp1034
S'web2py_path'
p1035
asbag56
(g77
g58
NtRp1036
(dp1037
g61
(dp1038
g88
g89
ssg70
g1027
sg63
(lp1039
S':'
asbag56
(g77
g58
NtRp1040
(dp1041
g61
(dp1042
sg70
g1027
sg63
(lp1043
g56
(g57
g58
NtRp1044
(dp1045
g61
(dp1046
g69
I4
ssg70
g1040
sg63
(lp1047
g498
asbasbasbag56
(g72
g58
NtRp1048
(dp1049
g61
(dp1050
sg70
g451
sg63
(lp1051
g56
(g77
g58
NtRp1052
(dp1053
g61
(dp1054
g81
g82
ssg70
g1048
sg63
(lp1055
S'web2py_version'
p1056
asbag56
(g77
g58
NtRp1057
(dp1058
g61
(dp1059
g88
g89
ssg70
g1048
sg63
(lp1060
S':'
asbag56
(g77
g58
NtRp1061
(dp1062
g61
(dp1063
sg70
g1048
sg63
(lp1064
g56
(g57
g58
NtRp1065
(dp1066
g61
(dp1067
g69
I4
ssg70
g1061
sg63
(lp1068
S'Version 1.95.1 (2011-04-25 15:04:14)\n'
p1069
asbasbasbag56
(g72
g58
NtRp1070
(dp1071
g61
(dp1072
sg70
g451
sg63
(lp1073
g56
(g77
g58
NtRp1074
(dp1075
g61
(dp1076
g81
g82
ssg70
g1070
sg63
(lp1077
S'wsgi_errors'
p1078
asbag56
(g77
g58
NtRp1079
(dp1080
g61
(dp1081
g88
g89
ssg70
g1070
sg63
(lp1082
S':'
asbag56
(g77
g58
NtRp1083
(dp1084
g61
(dp1085
sg70
g1070
sg63
(lp1086
g56
(g57
g58
NtRp1087
(dp1088
g61
(dp1089
g69
I4
ssg70
g1083
sg63
(lp1090
S"<open file '<stderr>', mode 'w' at 0xb773f0d0>"
p1091
asbasbasbag56
(g72
g58
NtRp1092
(dp1093
g61
(dp1094
sg70
g451
sg63
(lp1095
g56
(g77
g58
NtRp1096
(dp1097
g61
(dp1098
g81
g82
ssg70
g1092
sg63
(lp1099
S'wsgi_file_wrapper'
p1100
asbag56
(g77
g58
NtRp1101
(dp1102
g61
(dp1103
g88
g89
ssg70
g1092
sg63
(lp1104
S':'
asbag56
(g77
g58
NtRp1105
(dp1106
g61
(dp1107
sg70
g1092
sg63
(lp1108
g56
(g57
g58
NtRp1109
(dp1110
g61
(dp1111
g69
I4
ssg70
g1105
sg63
(lp1112
S'<class gluon.rocket.FileWrapper at 0x8b2d14c>'
p1113
asbasbasbag56
(g72
g58
NtRp1114
(dp1115
g61
(dp1116
sg70
g451
sg63
(lp1117
g56
(g77
g58
NtRp1118
(dp1119
g61
(dp1120
g81
g82
ssg70
g1114
sg63
(lp1121
S'wsgi_input'
p1122
asbag56
(g77
g58
NtRp1123
(dp1124
g61
(dp1125
g88
g89
ssg70
g1114
sg63
(lp1126
S':'
asbag56
(g77
g58
NtRp1127
(dp1128
g61
(dp1129
sg70
g1114
sg63
(lp1130
g56
(g57
g58
NtRp1131
(dp1132
g61
(dp1133
g69
I4
ssg70
g1127
sg63
(lp1134
S'<socket._fileobject object at 0x8cb1f2c>'
p1135
asbasbasbag56
(g72
g58
NtRp1136
(dp1137
g61
(dp1138
sg70
g451
sg63
(lp1139
g56
(g77
g58
NtRp1140
(dp1141
g61
(dp1142
g81
g82
ssg70
g1136
sg63
(lp1143
S'wsgi_multiprocess'
p1144
asbag56
(g77
g58
NtRp1145
(dp1146
g61
(dp1147
g88
g89
ssg70
g1136
sg63
(lp1148
S':'
asbag56
(g77
g58
NtRp1149
(dp1150
g61
(dp1151
sg70
g1136
sg63
(lp1152
g56
(g57
g58
NtRp1153
(dp1154
g61
(dp1155
g69
I4
ssg70
g1149
sg63
(lp1156
g99
asbasbasbag56
(g72
g58
NtRp1157
(dp1158
g61
(dp1159
sg70
g451
sg63
(lp1160
g56
(g77
g58
NtRp1161
(dp1162
g61
(dp1163
g81
g82
ssg70
g1157
sg63
(lp1164
S'wsgi_multithread'
p1165
asbag56
(g77
g58
NtRp1166
(dp1167
g61
(dp1168
g88
g89
ssg70
g1157
sg63
(lp1169
S':'
asbag56
(g77
g58
NtRp1170
(dp1171
g61
(dp1172
sg70
g1157
sg63
(lp1173
g56
(g57
g58
NtRp1174
(dp1175
g61
(dp1176
g69
I4
ssg70
g1170
sg63
(lp1177
S'True'
p1178
asbasbasbag56
(g72
g58
NtRp1179
(dp1180
g61
(dp1181
sg70
g451
sg63
(lp1182
g56
(g77
g58
NtRp1183
(dp1184
g61
(dp1185
g81
g82
ssg70
g1179
sg63
(lp1186
S'wsgi_run_once'
p1187
asbag56
(g77
g58
NtRp1188
(dp1189
g61
(dp1190
g88
g89
ssg70
g1179
sg63
(lp1191
S':'
asbag56
(g77
g58
NtRp1192
(dp1193
g61
(dp1194
sg70
g1179
sg63
(lp1195
g56
(g57
g58
NtRp1196
(dp1197
g61
(dp1198
g69
I4
ssg70
g1192
sg63
(lp1199
g99
asbasbasbag56
(g72
g58
NtRp1200
(dp1201
g61
(dp1202
sg70
g451
sg63
(lp1203
g56
(g77
g58
NtRp1204
(dp1205
g61
(dp1206
g81
g82
ssg70
g1200
sg63
(lp1207
S'wsgi_url_scheme'
p1208
asbag56
(g77
g58
NtRp1209
(dp1210
g61
(dp1211
g88
g89
ssg70
g1200
sg63
(lp1212
S':'
asbag56
(g77
g58
NtRp1213
(dp1214
g61
(dp1215
sg70
g1200
sg63
(lp1216
g56
(g57
g58
NtRp1217
(dp1218
g61
(dp1219
g69
I4
ssg70
g1213
sg63
(lp1220
S'http'
p1221
asbasbasbag56
(g72
g58
NtRp1222
(dp1223
g61
(dp1224
sg70
g451
sg63
(lp1225
g56
(g77
g58
NtRp1226
(dp1227
g61
(dp1228
g81
g82
ssg70
g1222
sg63
(lp1229
S'wsgi_version'
p1230
asbag56
(g77
g58
NtRp1231
(dp1232
g61
(dp1233
g88
g89
ssg70
g1222
sg63
(lp1234
S':'
asbag56
(g77
g58
NtRp1235
(dp1236
g61
(dp1237
sg70
g1222
sg63
(lp1238
g56
(g57
g58
NtRp1239
(dp1240
g61
(dp1241
g69
I4
ssg70
g1235
sg63
(lp1242
g56
(g65
g58
NtRp1243
(dp1244
g61
(dp1245
g69
I3
ssg70
Nsg63
(lp1246
g56
(g72
g58
NtRp1247
(dp1248
g61
(dp1249
sg70
g1243
sg63
(lp1250
g56
(g77
g58
NtRp1251
(dp1252
g61
(dp1253
sg70
g1247
sg63
(lp1254
g56
(g57
g58
NtRp1255
(dp1256
g61
(dp1257
g69
I3
ssg70
g1251
sg63
(lp1258
S'1'
asbasbasbag56
(g72
g58
NtRp1259
(dp1260
g61
(dp1261
sg70
g1243
sg63
(lp1262
g56
(g77
g58
NtRp1263
(dp1264
g61
(dp1265
sg70
g1259
sg63
(lp1266
g56
(g57
g58
NtRp1267
(dp1268
g61
(dp1269
g69
I3
ssg70
g1263
sg63
(lp1270
S'0'
asbasbasbasbasbasbasbasbasbasbasbag56
(g72
g58
NtRp1271
(dp1272
g61
(dp1273
sg70
g66
sg63
(lp1274
g56
(g77
g58
NtRp1275
(dp1276
g61
(dp1277
g81
g82
ssg70
g1271
sg63
(lp1278
S'extension'
p1279
asbag56
(g77
g58
NtRp1280
(dp1281
g61
(dp1282
g88
g89
ssg70
g1271
sg63
(lp1283
S':'
asbag56
(g77
g58
NtRp1284
(dp1285
g61
(dp1286
sg70
g1271
sg63
(lp1287
g56
(g57
g58
NtRp1288
(dp1289
g61
(dp1290
g69
I5
ssg70
g1284
sg63
(lp1291
S'html'
p1292
asbasbasbag56
(g72
g58
NtRp1293
(dp1294
g61
(dp1295
sg70
g66
sg63
(lp1296
g56
(g77
g58
NtRp1297
(dp1298
g61
(dp1299
g81
g82
ssg70
g1293
sg63
(lp1300
S'folder'
p1301
asbag56
(g77
g58
NtRp1302
(dp1303
g61
(dp1304
g88
g89
ssg70
g1293
sg63
(lp1305
S':'
asbag56
(g77
g58
NtRp1306
(dp1307
g61
(dp1308
sg70
g1293
sg63
(lp1309
g56
(g57
g58
NtRp1310
(dp1311
g61
(dp1312
g69
I5
ssg70
g1306
sg63
(lp1313
S'/home/derek/Dropbox/SEng265-Share/pe2/codeAct_1.01/web2py/applications/codeAct/'
p1314
asbasbasbag56
(g72
g58
NtRp1315
(dp1316
g61
(dp1317
sg70
g66
sg63
(lp1318
g56
(g77
g58
NtRp1319
(dp1320
g61
(dp1321
g81
g82
ssg70
g1315
sg63
(lp1322
S'function'
p1323
asbag56
(g77
g58
NtRp1324
(dp1325
g61
(dp1326
g88
g89
ssg70
g1315
sg63
(lp1327
S':'
asbag56
(g77
g58
NtRp1328
(dp1329
g61
(dp1330
sg70
g1315
sg63
(lp1331
g56
(g57
g58
NtRp1332
(dp1333
g61
(dp1334
g69
I5
ssg70
g1328
sg63
(lp1335
S'quiz'
p1336
asbasbasbag56
(g72
g58
NtRp1337
(dp1338
g61
(dp1339
sg70
g66
sg63
(lp1340
g56
(g77
g58
NtRp1341
(dp1342
g61
(dp1343
g81
g82
ssg70
g1337
sg63
(lp1344
S'get_vars'
p1345
asbag56
(g77
g58
NtRp1346
(dp1347
g61
(dp1348
g88
g89
ssg70
g1337
sg63
(lp1349
S':'
asbag56
(g77
g58
NtRp1350
(dp1351
g61
(dp1352
sg70
g1337
sg63
(lp1353
g56
(g57
g58
NtRp1354
(dp1355
g61
(dp1356
g69
I5
ssg70
g1350
sg63
(lp1357
g56
(g65
g58
NtRp1358
(dp1359
g61
(dp1360
g69
I4
ssg70
Nsg63
(lp1361
g56
(g72
g58
NtRp1362
(dp1363
g61
(dp1364
sg70
g1358
sg63
(lp1365
g56
(g77
g58
NtRp1366
(dp1367
g61
(dp1368
g81
g82
ssg70
g1362
sg63
(lp1369
S'quiz_spec'
p1370
asbag56
(g77
g58
NtRp1371
(dp1372
g61
(dp1373
g88
g89
ssg70
g1362
sg63
(lp1374
S':'
asbag56
(g77
g58
NtRp1375
(dp1376
g61
(dp1377
sg70
g1362
sg63
(lp1378
g56
(g57
g58
NtRp1379
(dp1380
g61
(dp1381
g69
I4
ssg70
g1375
sg63
(lp1382
S'../quiz_specs/sort_quiz_spec'
p1383
asbasbasbasbasbasbasbag56
(g72
g58
NtRp1384
(dp1385
g61
(dp1386
sg70
g66
sg63
(lp1387
g56
(g77
g58
NtRp1388
(dp1389
g61
(dp1390
g81
g82
ssg70
g1384
sg63
(lp1391
S'is_restful'
p1392
asbag56
(g77
g58
NtRp1393
(dp1394
g61
(dp1395
g88
g89
ssg70
g1384
sg63
(lp1396
S':'
asbag56
(g77
g58
NtRp1397
(dp1398
g61
(dp1399
sg70
g1384
sg63
(lp1400
g56
(g57
g58
NtRp1401
(dp1402
g61
(dp1403
g69
I5
ssg70
g1397
sg63
(lp1404
g99
asbasbasbag56
(g72
g58
NtRp1405
(dp1406
g61
(dp1407
sg70
g66
sg63
(lp1408
g56
(g77
g58
NtRp1409
(dp1410
g61
(dp1411
g81
g82
ssg70
g1405
sg63
(lp1412
S'now'
p1413
asbag56
(g77
g58
NtRp1414
(dp1415
g61
(dp1416
g88
g89
ssg70
g1405
sg63
(lp1417
S':'
asbag56
(g77
g58
NtRp1418
(dp1419
g61
(dp1420
sg70
g1405
sg63
(lp1421
g56
(g57
g58
NtRp1422
(dp1423
g61
(dp1424
g69
I5
ssg70
g1418
sg63
(lp1425
S'datetime.datetime(2011, 7, 3, 15, 53, 14, 228204)'
p1426
asbasbasbag56
(g72
g58
NtRp1427
(dp1428
g61
(dp1429
sg70
g66
sg63
(lp1430
g56
(g77
g58
NtRp1431
(dp1432
g61
(dp1433
g81
g82
ssg70
g1427
sg63
(lp1434
S'post_vars'
p1435
asbag56
(g77
g58
NtRp1436
(dp1437
g61
(dp1438
g88
g89
ssg70
g1427
sg63
(lp1439
S':'
asbag56
(g77
g58
NtRp1440
(dp1441
g61
(dp1442
sg70
g1427
sg63
(lp1443
g56
(g57
g58
NtRp1444
(dp1445
g61
(dp1446
g69
I5
ssg70
g1440
sg63
(lp1447
g56
(g65
g58
NtRp1448
(dp1449
g61
(dp1450
g69
I4
ssg70
Nsg63
(lp1451
sbasbasbasbag56
(g72
g58
NtRp1452
(dp1453
g61
(dp1454
sg70
g66
sg63
(lp1455
g56
(g77
g58
NtRp1456
(dp1457
g61
(dp1458
g81
g82
ssg70
g1452
sg63
(lp1459
S'raw_extension'
p1460
asbag56
(g77
g58
NtRp1461
(dp1462
g61
(dp1463
g88
g89
ssg70
g1452
sg63
(lp1464
S':'
asbag56
(g77
g58
NtRp1465
(dp1466
g61
(dp1467
sg70
g1452
sg63
(lp1468
g56
(g57
g58
NtRp1469
(dp1470
g61
(dp1471
g69
I5
ssg70
g1465
sg63
(lp1472
g1292
asbasbasbag56
(g72
g58
NtRp1473
(dp1474
g61
(dp1475
sg70
g66
sg63
(lp1476
g56
(g77
g58
NtRp1477
(dp1478
g61
(dp1479
g81
g82
ssg70
g1473
sg63
(lp1480
S'url'
p1481
asbag56
(g77
g58
NtRp1482
(dp1483
g61
(dp1484
g88
g89
ssg70
g1473
sg63
(lp1485
S':'
asbag56
(g77
g58
NtRp1486
(dp1487
g61
(dp1488
sg70
g1473
sg63
(lp1489
g56
(g57
g58
NtRp1490
(dp1491
g61
(dp1492
g69
I5
ssg70
g1486
sg63
(lp1493
S'/codeAct/ca_controller/quiz.html'
p1494
asbasbasbag56
(g72
g58
NtRp1495
(dp1496
g61
(dp1497
sg70
g66
sg63
(lp1498
g56
(g77
g58
NtRp1499
(dp1500
g61
(dp1501
g81
g82
ssg70
g1495
sg63
(lp1502
S'uuid'
p1503
asbag56
(g77
g58
NtRp1504
(dp1505
g61
(dp1506
g88
g89
ssg70
g1495
sg63
(lp1507
S':'
asbag56
(g77
g58
NtRp1508
(dp1509
g61
(dp1510
sg70
g1495
sg63
(lp1511
g56
(g57
g58
NtRp1512
(dp1513
g61
(dp1514
g69
I5
ssg70
g1508
sg63
(lp1515
S'codeAct/127.0.0.1.2011-07-03.15-53-14.c320a37b-f9a8-4c7d-ae74-2cb10dae425b'
p1516
asbasbasbag56
(g72
g58
NtRp1517
(dp1518
g61
(dp1519
sg70
g66
sg63
(lp1520
g56
(g77
g58
NtRp1521
(dp1522
g61
(dp1523
g81
g82
ssg70
g1517
sg63
(lp1524
S'vars'
p1525
asbag56
(g77
g58
NtRp1526
(dp1527
g61
(dp1528
g88
g89
ssg70
g1517
sg63
(lp1529
S':'
asbag56
(g77
g58
NtRp1530
(dp1531
g61
(dp1532
sg70
g1517
sg63
(lp1533
g56
(g57
g58
NtRp1534
(dp1535
g61
(dp1536
g69
I5
ssg70
g1530
sg63
(lp1537
g56
(g65
g58
NtRp1538
(dp1539
g61
(dp1540
g69
I4
ssg70
Nsg63
(lp1541
g56
(g72
g58
NtRp1542
(dp1543
g61
(dp1544
sg70
g1538
sg63
(lp1545
g56
(g77
g58
NtRp1546
(dp1547
g61
(dp1548
g81
g82
ssg70
g1542
sg63
(lp1549
g1370
asbag56
(g77
g58
NtRp1550
(dp1551
g61
(dp1552
g88
g89
ssg70
g1542
sg63
(lp1553
S':'
asbag56
(g77
g58
NtRp1554
(dp1555
g61
(dp1556
sg70
g1542
sg63
(lp1557
g56
(g57
g58
NtRp1558
(dp1559
g61
(dp1560
g69
I4
ssg70
g1554
sg63
(lp1561
g1383
asbasbasbasbasbasbasbag56
(g72
g58
NtRp1562
(dp1563
g61
(dp1564
sg70
g66
sg63
(lp1565
g56
(g77
g58
NtRp1566
(dp1567
g61
(dp1568
g81
g82
ssg70
g1562
sg63
(lp1569
S'wsgi'
p1570
asbag56
(g77
g58
NtRp1571
(dp1572
g61
(dp1573
g88
g89
ssg70
g1562
sg63
(lp1574
S':'
asbag56
(g77
g58
NtRp1575
(dp1576
g61
(dp1577
sg70
g1562
sg63
(lp1578
g56
(g57
g58
NtRp1579
(dp1580
g61
(dp1581
g69
I5
ssg70
g1575
sg63
(lp1582
g56
(g65
g58
NtRp1583
(dp1584
g61
(dp1585
g69
I4
ssg70
Nsg63
(lp1586
g56
(g72
g58
NtRp1587
(dp1588
g61
(dp1589
sg70
g1583
sg63
(lp1590
g56
(g77
g58
NtRp1591
(dp1592
g61
(dp1593
g81
g82
ssg70
g1587
sg63
(lp1594
S'environ'
p1595
asbag56
(g77
g58
NtRp1596
(dp1597
g61
(dp1598
g88
g89
ssg70
g1587
sg63
(lp1599
S':'
asbag56
(g77
g58
NtRp1600
(dp1601
g61
(dp1602
sg70
g1587
sg63
(lp1603
g56
(g57
g58
NtRp1604
(dp1605
g61
(dp1606
g69
I4
ssg70
g1600
sg63
(lp1607
g56
(g65
g58
NtRp1608
(dp1609
g61
(dp1610
g69
I3
ssg70
Nsg63
(lp1611
g56
(g72
g58
NtRp1612
(dp1613
g61
(dp1614
sg70
g1608
sg63
(lp1615
g56
(g77
g58
NtRp1616
(dp1617
g61
(dp1618
g81
g82
ssg70
g1612
sg63
(lp1619
S'HTTP_ACCEPT'
p1620
asbag56
(g77
g58
NtRp1621
(dp1622
g61
(dp1623
g88
g89
ssg70
g1612
sg63
(lp1624
S':'
asbag56
(g77
g58
NtRp1625
(dp1626
g61
(dp1627
sg70
g1612
sg63
(lp1628
g56
(g57
g58
NtRp1629
(dp1630
g61
(dp1631
g69
I3
ssg70
g1625
sg63
(lp1632
g632
asbasbasbag56
(g72
g58
NtRp1633
(dp1634
g61
(dp1635
sg70
g1608
sg63
(lp1636
g56
(g77
g58
NtRp1637
(dp1638
g61
(dp1639
g81
g82
ssg70
g1633
sg63
(lp1640
S'HTTP_ACCEPT_CHARSET'
p1641
asbag56
(g77
g58
NtRp1642
(dp1643
g61
(dp1644
g88
g89
ssg70
g1633
sg63
(lp1645
S':'
asbag56
(g77
g58
NtRp1646
(dp1647
g61
(dp1648
sg70
g1633
sg63
(lp1649
g56
(g57
g58
NtRp1650
(dp1651
g61
(dp1652
g69
I3
ssg70
g1646
sg63
(lp1653
g654
asbasbasbag56
(g72
g58
NtRp1654
(dp1655
g61
(dp1656
sg70
g1608
sg63
(lp1657
g56
(g77
g58
NtRp1658
(dp1659
g61
(dp1660
g81
g82
ssg70
g1654
sg63
(lp1661
S'HTTP_ACCEPT_ENCODING'
p1662
asbag56
(g77
g58
NtRp1663
(dp1664
g61
(dp1665
g88
g89
ssg70
g1654
sg63
(lp1666
S':'
asbag56
(g77
g58
NtRp1667
(dp1668
g61
(dp1669
sg70
g1654
sg63
(lp1670
g56
(g57
g58
NtRp1671
(dp1672
g61
(dp1673
g69
I3
ssg70
g1667
sg63
(lp1674
g676
asbasbasbag56
(g72
g58
NtRp1675
(dp1676
g61
(dp1677
sg70
g1608
sg63
(lp1678
g56
(g77
g58
NtRp1679
(dp1680
g61
(dp1681
g81
g82
ssg70
g1675
sg63
(lp1682
S'HTTP_ACCEPT_LANGUAGE'
p1683
asbag56
(g77
g58
NtRp1684
(dp1685
g61
(dp1686
g88
g89
ssg70
g1675
sg63
(lp1687
S':'
asbag56
(g77
g58
NtRp1688
(dp1689
g61
(dp1690
sg70
g1675
sg63
(lp1691
g56
(g57
g58
NtRp1692
(dp1693
g61
(dp1694
g69
I3
ssg70
g1688
sg63
(lp1695
g698
asbasbasbag56
(g72
g58
NtRp1696
(dp1697
g61
(dp1698
sg70
g1608
sg63
(lp1699
g56
(g77
g58
NtRp1700
(dp1701
g61
(dp1702
g81
g82
ssg70
g1696
sg63
(lp1703
S'HTTP_CONNECTION'
p1704
asbag56
(g77
g58
NtRp1705
(dp1706
g61
(dp1707
g88
g89
ssg70
g1696
sg63
(lp1708
S':'
asbag56
(g77
g58
NtRp1709
(dp1710
g61
(dp1711
sg70
g1696
sg63
(lp1712
g56
(g57
g58
NtRp1713
(dp1714
g61
(dp1715
g69
I3
ssg70
g1709
sg63
(lp1716
g720
asbasbasbag56
(g72
g58
NtRp1717
(dp1718
g61
(dp1719
sg70
g1608
sg63
(lp1720
g56
(g77
g58
NtRp1721
(dp1722
g61
(dp1723
g81
g82
ssg70
g1717
sg63
(lp1724
S'HTTP_COOKIE'
p1725
asbag56
(g77
g58
NtRp1726
(dp1727
g61
(dp1728
g88
g89
ssg70
g1717
sg63
(lp1729
S':'
asbag56
(g77
g58
NtRp1730
(dp1731
g61
(dp1732
sg70
g1717
sg63
(lp1733
g56
(g57
g58
NtRp1734
(dp1735
g61
(dp1736
g69
I3
ssg70
g1730
sg63
(lp1737
g742
asbasbasbag56
(g72
g58
NtRp1738
(dp1739
g61
(dp1740
sg70
g1608
sg63
(lp1741
g56
(g77
g58
NtRp1742
(dp1743
g61
(dp1744
g81
g82
ssg70
g1738
sg63
(lp1745
S'HTTP_HOST'
p1746
asbag56
(g77
g58
NtRp1747
(dp1748
g61
(dp1749
g88
g89
ssg70
g1738
sg63
(lp1750
S':'
asbag56
(g77
g58
NtRp1751
(dp1752
g61
(dp1753
sg70
g1738
sg63
(lp1754
g56
(g57
g58
NtRp1755
(dp1756
g61
(dp1757
g69
I3
ssg70
g1751
sg63
(lp1758
g764
asbasbasbag56
(g72
g58
NtRp1759
(dp1760
g61
(dp1761
sg70
g1608
sg63
(lp1762
g56
(g77
g58
NtRp1763
(dp1764
g61
(dp1765
g81
g82
ssg70
g1759
sg63
(lp1766
S'HTTP_USER_AGENT'
p1767
asbag56
(g77
g58
NtRp1768
(dp1769
g61
(dp1770
g88
g89
ssg70
g1759
sg63
(lp1771
S':'
asbag56
(g77
g58
NtRp1772
(dp1773
g61
(dp1774
sg70
g1759
sg63
(lp1775
g56
(g57
g58
NtRp1776
(dp1777
g61
(dp1778
g69
I3
ssg70
g1772
sg63
(lp1779
g786
asbasbasbag56
(g72
g58
NtRp1780
(dp1781
g61
(dp1782
sg70
g1608
sg63
(lp1783
g56
(g77
g58
NtRp1784
(dp1785
g61
(dp1786
g81
g82
ssg70
g1780
sg63
(lp1787
S'PATH_INFO'
p1788
asbag56
(g77
g58
NtRp1789
(dp1790
g61
(dp1791
g88
g89
ssg70
g1780
sg63
(lp1792
S':'
asbag56
(g77
g58
NtRp1793
(dp1794
g61
(dp1795
sg70
g1780
sg63
(lp1796
g56
(g57
g58
NtRp1797
(dp1798
g61
(dp1799
g69
I3
ssg70
g1793
sg63
(lp1800
g808
asbasbasbag56
(g72
g58
NtRp1801
(dp1802
g61
(dp1803
sg70
g1608
sg63
(lp1804
g56
(g77
g58
NtRp1805
(dp1806
g61
(dp1807
g81
g82
ssg70
g1801
sg63
(lp1808
S'QUERY_STRING'
p1809
asbag56
(g77
g58
NtRp1810
(dp1811
g61
(dp1812
g88
g89
ssg70
g1801
sg63
(lp1813
S':'
asbag56
(g77
g58
NtRp1814
(dp1815
g61
(dp1816
sg70
g1801
sg63
(lp1817
g56
(g57
g58
NtRp1818
(dp1819
g61
(dp1820
g69
I3
ssg70
g1814
sg63
(lp1821
g830
asbasbasbag56
(g72
g58
NtRp1822
(dp1823
g61
(dp1824
sg70
g1608
sg63
(lp1825
g56
(g77
g58
NtRp1826
(dp1827
g61
(dp1828
g81
g82
ssg70
g1822
sg63
(lp1829
S'REMOTE_ADDR'
p1830
asbag56
(g77
g58
NtRp1831
(dp1832
g61
(dp1833
g88
g89
ssg70
g1822
sg63
(lp1834
S':'
asbag56
(g77
g58
NtRp1835
(dp1836
g61
(dp1837
sg70
g1822
sg63
(lp1838
g56
(g57
g58
NtRp1839
(dp1840
g61
(dp1841
g69
I3
ssg70
g1835
sg63
(lp1842
g189
asbasbasbag56
(g72
g58
NtRp1843
(dp1844
g61
(dp1845
sg70
g1608
sg63
(lp1846
g56
(g77
g58
NtRp1847
(dp1848
g61
(dp1849
g81
g82
ssg70
g1843
sg63
(lp1850
S'REMOTE_PORT'
p1851
asbag56
(g77
g58
NtRp1852
(dp1853
g61
(dp1854
g88
g89
ssg70
g1843
sg63
(lp1855
S':'
asbag56
(g77
g58
NtRp1856
(dp1857
g61
(dp1858
sg70
g1843
sg63
(lp1859
g56
(g57
g58
NtRp1860
(dp1861
g61
(dp1862
g69
I3
ssg70
g1856
sg63
(lp1863
g873
asbasbasbag56
(g72
g58
NtRp1864
(dp1865
g61
(dp1866
sg70
g1608
sg63
(lp1867
g56
(g77
g58
NtRp1868
(dp1869
g61
(dp1870
g81
g82
ssg70
g1864
sg63
(lp1871
S'REQUEST_METHOD'
p1872
asbag56
(g77
g58
NtRp1873
(dp1874
g61
(dp1875
g88
g89
ssg70
g1864
sg63
(lp1876
S':'
asbag56
(g77
g58
NtRp1877
(dp1878
g61
(dp1879
sg70
g1864
sg63
(lp1880
g56
(g57
g58
NtRp1881
(dp1882
g61
(dp1883
g69
I3
ssg70
g1877
sg63
(lp1884
g895
asbasbasbag56
(g72
g58
NtRp1885
(dp1886
g61
(dp1887
sg70
g1608
sg63
(lp1888
g56
(g77
g58
NtRp1889
(dp1890
g61
(dp1891
g81
g82
ssg70
g1885
sg63
(lp1892
S'SCRIPT_NAME'
p1893
asbag56
(g77
g58
NtRp1894
(dp1895
g61
(dp1896
g88
g89
ssg70
g1885
sg63
(lp1897
S':'
asbag56
(g77
g58
NtRp1898
(dp1899
g61
(dp1900
sg70
g1885
sg63
(lp1901
g56
(g57
g58
NtRp1902
(dp1903
g61
(dp1904
g69
I3
ssg70
g1898
sg63
(lp1905
S''
asbasbasbag56
(g72
g58
NtRp1906
(dp1907
g61
(dp1908
sg70
g1608
sg63
(lp1909
g56
(g77
g58
NtRp1910
(dp1911
g61
(dp1912
g81
g82
ssg70
g1906
sg63
(lp1913
S'SERVER_NAME'
p1914
asbag56
(g77
g58
NtRp1915
(dp1916
g61
(dp1917
g88
g89
ssg70
g1906
sg63
(lp1918
S':'
asbag56
(g77
g58
NtRp1919
(dp1920
g61
(dp1921
sg70
g1906
sg63
(lp1922
g56
(g57
g58
NtRp1923
(dp1924
g61
(dp1925
g69
I3
ssg70
g1919
sg63
(lp1926
g938
asbasbasbag56
(g72
g58
NtRp1927
(dp1928
g61
(dp1929
sg70
g1608
sg63
(lp1930
g56
(g77
g58
NtRp1931
(dp1932
g61
(dp1933
g81
g82
ssg70
g1927
sg63
(lp1934
S'SERVER_PORT'
p1935
asbag56
(g77
g58
NtRp1936
(dp1937
g61
(dp1938
g88
g89
ssg70
g1927
sg63
(lp1939
S':'
asbag56
(g77
g58
NtRp1940
(dp1941
g61
(dp1942
sg70
g1927
sg63
(lp1943
g56
(g57
g58
NtRp1944
(dp1945
g61
(dp1946
g69
I3
ssg70
g1940
sg63
(lp1947
g960
asbasbasbag56
(g72
g58
NtRp1948
(dp1949
g61
(dp1950
sg70
g1608
sg63
(lp1951
g56
(g77
g58
NtRp1952
(dp1953
g61
(dp1954
g81
g82
ssg70
g1948
sg63
(lp1955
S'SERVER_PROTOCOL'
p1956
asbag56
(g77
g58
NtRp1957
(dp1958
g61
(dp1959
g88
g89
ssg70
g1948
sg63
(lp1960
S':'
asbag56
(g77
g58
NtRp1961
(dp1962
g61
(dp1963
sg70
g1948
sg63
(lp1964
g56
(g57
g58
NtRp1965
(dp1966
g61
(dp1967
g69
I3
ssg70
g1961
sg63
(lp1968
g982
asbasbasbag56
(g72
g58
NtRp1969
(dp1970
g61
(dp1971
sg70
g1608
sg63
(lp1972
g56
(g77
g58
NtRp1973
(dp1974
g61
(dp1975
g81
g82
ssg70
g1969
sg63
(lp1976
S'SERVER_SOFTWARE'
p1977
asbag56
(g77
g58
NtRp1978
(dp1979
g61
(dp1980
g88
g89
ssg70
g1969
sg63
(lp1981
S':'
asbag56
(g77
g58
NtRp1982
(dp1983
g61
(dp1984
sg70
g1969
sg63
(lp1985
g56
(g57
g58
NtRp1986
(dp1987
g61
(dp1988
g69
I3
ssg70
g1982
sg63
(lp1989
g1004
asbasbasbag56
(g72
g58
NtRp1990
(dp1991
g61
(dp1992
sg70
g1608
sg63
(lp1993
g56
(g77
g58
NtRp1994
(dp1995
g61
(dp1996
g81
g82
ssg70
g1990
sg63
(lp1997
S'wsgi.errors'
p1998
asbag56
(g77
g58
NtRp1999
(dp2000
g61
(dp2001
g88
g89
ssg70
g1990
sg63
(lp2002
S':'
asbag56
(g77
g58
NtRp2003
(dp2004
g61
(dp2005
sg70
g1990
sg63
(lp2006
g56
(g57
g58
NtRp2007
(dp2008
g61
(dp2009
g69
I3
ssg70
g2003
sg63
(lp2010
S"<open file '<stderr>', mode 'w' at 0xb773f0d0>"
p2011
asbasbasbag56
(g72
g58
NtRp2012
(dp2013
g61
(dp2014
sg70
g1608
sg63
(lp2015
g56
(g77
g58
NtRp2016
(dp2017
g61
(dp2018
g81
g82
ssg70
g2012
sg63
(lp2019
S'wsgi.file_wrapper'
p2020
asbag56
(g77
g58
NtRp2021
(dp2022
g61
(dp2023
g88
g89
ssg70
g2012
sg63
(lp2024
S':'
asbag56
(g77
g58
NtRp2025
(dp2026
g61
(dp2027
sg70
g2012
sg63
(lp2028
g56
(g57
g58
NtRp2029
(dp2030
g61
(dp2031
g69
I3
ssg70
g2025
sg63
(lp2032
S'<class gluon.rocket.FileWrapper at 0x8b2d14c>'
p2033
asbasbasbag56
(g72
g58
NtRp2034
(dp2035
g61
(dp2036
sg70
g1608
sg63
(lp2037
g56
(g77
g58
NtRp2038
(dp2039
g61
(dp2040
g81
g82
ssg70
g2034
sg63
(lp2041
S'wsgi.input'
p2042
asbag56
(g77
g58
NtRp2043
(dp2044
g61
(dp2045
g88
g89
ssg70
g2034
sg63
(lp2046
S':'
asbag56
(g77
g58
NtRp2047
(dp2048
g61
(dp2049
sg70
g2034
sg63
(lp2050
g56
(g57
g58
NtRp2051
(dp2052
g61
(dp2053
g69
I3
ssg70
g2047
sg63
(lp2054
S'<cStringIO.StringO object at 0x8cbdb20>'
p2055
asbasbasbag56
(g72
g58
NtRp2056
(dp2057
g61
(dp2058
sg70
g1608
sg63
(lp2059
g56
(g77
g58
NtRp2060
(dp2061
g61
(dp2062
g81
g82
ssg70
g2056
sg63
(lp2063
S'wsgi.multiprocess'
p2064
asbag56
(g77
g58
NtRp2065
(dp2066
g61
(dp2067
g88
g89
ssg70
g2056
sg63
(lp2068
S':'
asbag56
(g77
g58
NtRp2069
(dp2070
g61
(dp2071
sg70
g2056
sg63
(lp2072
g56
(g57
g58
NtRp2073
(dp2074
g61
(dp2075
g69
I3
ssg70
g2069
sg63
(lp2076
g99
asbasbasbag56
(g72
g58
NtRp2077
(dp2078
g61
(dp2079
sg70
g1608
sg63
(lp2080
g56
(g77
g58
NtRp2081
(dp2082
g61
(dp2083
g81
g82
ssg70
g2077
sg63
(lp2084
S'wsgi.multithread'
p2085
asbag56
(g77
g58
NtRp2086
(dp2087
g61
(dp2088
g88
g89
ssg70
g2077
sg63
(lp2089
S':'
asbag56
(g77
g58
NtRp2090
(dp2091
g61
(dp2092
sg70
g2077
sg63
(lp2093
g56
(g57
g58
NtRp2094
(dp2095
g61
(dp2096
g69
I3
ssg70
g2090
sg63
(lp2097
g1178
asbasbasbag56
(g72
g58
NtRp2098
(dp2099
g61
(dp2100
sg70
g1608
sg63
(lp2101
g56
(g77
g58
NtRp2102
(dp2103
g61
(dp2104
g81
g82
ssg70
g2098
sg63
(lp2105
S'wsgi.run_once'
p2106
asbag56
(g77
g58
NtRp2107
(dp2108
g61
(dp2109
g88
g89
ssg70
g2098
sg63
(lp2110
S':'
asbag56
(g77
g58
NtRp2111
(dp2112
g61
(dp2113
sg70
g2098
sg63
(lp2114
g56
(g57
g58
NtRp2115
(dp2116
g61
(dp2117
g69
I3
ssg70
g2111
sg63
(lp2118
g99
asbasbasbag56
(g72
g58
NtRp2119
(dp2120
g61
(dp2121
sg70
g1608
sg63
(lp2122
g56
(g77
g58
NtRp2123
(dp2124
g61
(dp2125
g81
g82
ssg70
g2119
sg63
(lp2126
S'wsgi.url_scheme'
p2127
asbag56
(g77
g58
NtRp2128
(dp2129
g61
(dp2130
g88
g89
ssg70
g2119
sg63
(lp2131
S':'
asbag56
(g77
g58
NtRp2132
(dp2133
g61
(dp2134
sg70
g2119
sg63
(lp2135
g56
(g57
g58
NtRp2136
(dp2137
g61
(dp2138
g69
I3
ssg70
g2132
sg63
(lp2139
g1221
asbasbasbag56
(g72
g58
NtRp2140
(dp2141
g61
(dp2142
sg70
g1608
sg63
(lp2143
g56
(g77
g58
NtRp2144
(dp2145
g61
(dp2146
g81
g82
ssg70
g2140
sg63
(lp2147
S'wsgi.version'
p2148
asbag56
(g77
g58
NtRp2149
(dp2150
g61
(dp2151
g88
g89
ssg70
g2140
sg63
(lp2152
S':'
asbag56
(g77
g58
NtRp2153
(dp2154
g61
(dp2155
sg70
g2140
sg63
(lp2156
g56
(g57
g58
NtRp2157
(dp2158
g61
(dp2159
g69
I3
ssg70
g2153
sg63
(lp2160
S'1'
asbasbasbasbasbasbasbasbasbasbasbasbasbsS'frames'
p2161
(lp2162
(dp2163
S'file'
p2164
S'/home/derek/Dropbox/SEng265-Share/pe2/codeAct_1.01/web2py/gluon/restricted.py'
p2165
sS'dump'
p2166
(dp2167
S'environment'
p2168
S"{'A': <class 'gluon.html.A'>, 'B': <class 'gluon.html.B'>, 'BEAUTIFY': <class 'gluon.html.BEAUTIFY'>, 'BODY': <class 'gluon.html.BODY'>, 'BR': <class 'gluon.html.BR'>, 'CENTER': <class 'gluon.html.CENTER'>, 'CLEANUP': <class 'gluon.validators.CLEANUP'>, 'CODE': <class 'gluon.html.CODE'>, 'CRYPT': <class 'gluon.validators.CRYPT'>, 'DAL': <class 'gluon.dal.DAL'>, ...}"
p2169
sS'ccode'
p2170
S'<code object <module> at 0x8cba140, file "/home/...ns/codeAct/controllers/ca_controller.py", line 1>'
p2171
ssS'lnum'
p2172
I181
sS'lines'
p2173
(dp2174
I176
S'    try:'
p2175
sI177
S'        if type(code) == types.CodeType:'
p2176
sI178
S'            ccode = code'
p2177
sI179
S'        else:'
p2178
sI180
S'            ccode = compile2(code,layer)'
p2179
sI181
S'        exec ccode in environment'
p2180
sI182
S'    except HTTP:'
p2181
sI183
S'        raise'
p2182
sI184
S'    except Exception:'
p2183
sI185
S'        # XXX Show exception in Wing IDE if running in debugger'
p2184
ssS'call'
p2185
S"(code='import sys\\nimport time\\nimport os\\n\\nimport ca_quiz...turn code\\n\\nresponse._vars=response._caller(quiz)\\n', environment={'A': <class 'gluon.html.A'>, 'B': <class 'gluon.html.B'>, 'BEAUTIFY': <class 'gluon.html.BEAUTIFY'>, 'BODY': <class 'gluon.html.BODY'>, 'BR': <class 'gluon.html.BR'>, 'CENTER': <class 'gluon.html.CENTER'>, 'CLEANUP': <class 'gluon.validators.CLEANUP'>, 'CODE': <class 'gluon.html.CODE'>, 'CRYPT': <class 'gluon.validators.CRYPT'>, 'DAL': <class 'gluon.dal.DAL'>, ...}, layer='/home/derek/Dropbox/SEng265-Share/pe2/codeAct_1....applications/codeAct/controllers/ca_controller.py')"
p2186
sS'func'
p2187
S'restricted'
p2188
sa(dp2189
g2164
S'/home/derek/Dropbox/SEng265-Share/pe2/codeAct_1.01/web2py/applications/codeAct/controllers/ca_controller.py'
p2190
sg2166
(dp2191
sg2172
I85
sg2173
(dp2192
I74
S"\t session['quiz'].practice_mode,session['login'],"
p2193
sI75
S"\t session['answer_list'][question_number-1],"
p2194
sI76
S"\t request.vars,session['question_timer'])"
p2195
sI77
S"\tcode = utility.add_submit_label(code,session['quiz'].practice_mode)"
p2196
sI78
S'\tcode = utility.disable_navi_buttons(code,question_number,'
p2197
sI79
S"\t session['quiz'])"
p2198
sI80
S''
sI81
S'\t# update question timer'
p2199
sI82
S"\tsession['question_timer'] = int(time.time())"
p2200
sI83
S'\treturn code'
p2201
ssg2185
S'()'
p2202
sg2187
S'<module>'
p2203
sa(dp2204
g2164
S'/home/derek/Dropbox/SEng265-Share/pe2/codeAct_1.01/web2py/gluon/globals.py'
p2205
sg2166
(dp2206
S'self'
p2207
S'undefined'
p2208
sS'f'
S'<function quiz>'
p2209
ssg2172
I133
sg2173
(dp2210
I128
S"        self.flash = ''           # used by the default view layout"
p2211
sI129
S'        self.meta = Storage()     # used by web2py_ajax.html'
p2212
sI130
S'        self.menu = []            # used by the default view layout'
p2213
sI131
S'        self.files = []           # used by web2py_ajax.html'
p2214
sI132
S'        self._vars = None'
p2215
sI133
S'        self._caller = lambda f: f()'
p2216
sI134
S'        self._view_environment = None'
p2217
sI135
S'        self._custom_commit = None'
p2218
sI136
S'        self._custom_rollback = None'
p2219
sI137
S''
ssg2185
S'(f=<function quiz>)'
p2220
sg2187
S'<lambda>'
p2221
sa(dp2222
g2164
S'/home/derek/Dropbox/SEng265-Share/pe2/codeAct_1.01/web2py/applications/codeAct/controllers/ca_controller.py'
p2223
sg2166
(dp2224
S'global request'
p2225
S"<Storage {'function': 'quiz', 'body': <cStringIO....15-53-14.c320a37b-f9a8-4c7d-ae74-2cb10dae425b'}>"
p2226
sS'request.vars'
p2227
S"<Storage {'quiz_spec': '../quiz_specs/sort_quiz_spec'}>"
p2228
sS'global session'
p2229
S"<Storage {'login': '', 'question_timer': 1309733...], 'quiz': <ca_quiz.quiz instance at 0x8cbda0c>}>"
p2230
sS'Quiz.quiz'
p2231
S'<class ca_quiz.quiz>'
p2232
sS'global Quiz'
p2233
S"<module 'ca_quiz' from '/home/derek/Dropbox/SEng...ct_1.01/web2py/applications/codeAct/ca_quiz.pyc'>"
p2234
ssg2172
I40
sg2173
(dp2235
I35
S"\t\tredirect(URL(r=request, f='quiz'))"
p2236
sI36
S''
sI37
S'def quiz():'
p2237
sI38
S'\t# the beginning of the quiz, create quiz and init answer_list'
p2238
sI39
S"\tif 'quiz_spec' in request.vars.keys():"
p2239
sI40
S"\t\tsession['quiz'] = Quiz.quiz(request.vars['quiz_spec'])"
p2240
sI41
S"\t\tsession['answer_list'] = utility.init_answer_list("
p2241
sI42
S"\t\t session['quiz'])"
p2242
sI43
S'\t\t# initialize question_timer'
p2243
sI44
S"\t\tsession['question_timer'] = int(time.time())"
p2244
ssg2185
S'()'
p2245
sg2187
S'quiz'
p2246
sa(dp2247
g2164
S'/home/derek/Dropbox/SEng265-Share/pe2/codeAct_1.01/web2py/applications/codeAct/ca_quiz.py'
p2248
sg2166
(dp2249
S'path'
p2250
S"('../quiz_specs', 'sort_quiz_spec')"
p2251
sS'quiz_spec_file'
p2252
g2208
sS'builtin__import__'
p2253
S'<built-in function __import__>'
p2254
ssg2172
I18
sg2173
(dp2255
I13
S'\tdef __init__(self,quiz_spec):'
p2256
sI14
S'\t\t# parse the path and import quiz spec'
p2257
sI15
S'\t\tpath = os.path.split(quiz_spec)'
p2258
sI16
S'\t\tsys.path.append(os.path.abspath(path[0]))'
p2259
sI17
S'\t\t# import quiz_spec_file'
p2260
sI18
S'\t\tquiz_spec_file = __import__(path[1])'
p2261
sI19
S'\t\t# construct quiz_spec_object'
p2262
sI20
S'\t\tspec = Quiz_spec.Quiz_spec(quiz_spec_file.code_lib_path,'
p2263
sI21
S'\t\t quiz_spec_file.question_list,quiz_spec_file.practice_mode,'
p2264
sI22
S'\t\t quiz_spec_file.standalone,quiz_spec_file.logged,'
p2265
ssg2185
S"(self=<ca_quiz.quiz instance>, quiz_spec='../quiz_specs/sort_quiz_spec')"
p2266
sg2187
g49
sa(dp2267
g2164
S'/home/derek/Dropbox/SEng265-Share/pe2/codeAct_1.01/quiz_specs/sort_quiz_spec.py'
p2268
sg2166
(dp2269
S'count'
p2270
g2208
sS'directories'
p2271
g2208
sS'mark'
p2272
g2208
ssg2172
I3
sg2173
(dp2273
I2
S'question_list = ['
p2274
sI3
S'\t(mark, \tcount, [directories])'
p2275
sI4
S"\t(1,     1,      ['bubble_sort_swap_count_0']),\t\t# Bubble Sort - Swap"
p2276
sI5
S"\t(1,     1,      ['bubble_sort_swap_count_1']),"
p2277
sI6
S"\t(1,     1,      ['bubble_sort_swap_count_2']),"
p2278
sI7
S"\t(1,     1,      ['bubble_sort_swap_count_3']),"
p2279
sI8
S"\t(1,     1,      ['bubble_sort_swap_count_4']),"
p2280
sI9
S''
sI10
S"\t(1,     1,      ['bubble_sort_min_position_0']),\t# Bubble Sort - Min position"
p2281
sI11
S"\t(1,     1,      ['bubble_sort_min_position_1']),"
p2282
ssg2185
S'()'
p2283
sg2187
g2203
sasS'pyver'
p2284
S'Python 2.7.1+: /usr/bin/python'
p2285
sS'session'
p2286
g56
(g57
g58
NtRp2287
(dp2288
g61
(dp2289
sg63
(lp2290
g56
(g65
g58
NtRp2291
(dp2292
g61
(dp2293
g69
I5
ssg70
Nsg63
(lp2294
g56
(g72
g58
NtRp2295
(dp2296
g61
(dp2297
sg70
g2291
sg63
(lp2298
g56
(g77
g58
NtRp2299
(dp2300
g61
(dp2301
g81
g82
ssg70
g2295
sg63
(lp2302
S'answer_list'
p2303
asbag56
(g77
g58
NtRp2304
(dp2305
g61
(dp2306
g88
g89
ssg70
g2295
sg63
(lp2307
S':'
asbag56
(g77
g58
NtRp2308
(dp2309
g61
(dp2310
sg70
g2295
sg63
(lp2311
g56
(g57
g58
NtRp2312
(dp2313
g61
(dp2314
g69
I5
ssg70
g2308
sg63
(lp2315
g56
(g65
g58
NtRp2316
(dp2317
g61
(dp2318
g69
I4
ssg70
Nsg63
(lp2319
g56
(g72
g58
NtRp2320
(dp2321
g61
(dp2322
sg70
g2316
sg63
(lp2323
g56
(g77
g58
NtRp2324
(dp2325
g61
(dp2326
sg70
g2320
sg63
(lp2327
g56
(g57
g58
NtRp2328
(dp2329
g61
(dp2330
g69
I4
ssg70
g2324
sg63
(lp2331
g56
(g65
g58
NtRp2332
(dp2333
g61
(dp2334
g69
I3
ssg70
Nsg63
(lp2335
g56
(g72
g58
NtRp2336
(dp2337
g61
(dp2338
sg70
g2332
sg63
(lp2339
g56
(g77
g58
NtRp2340
(dp2341
g61
(dp2342
g81
g82
ssg70
g2336
sg63
(lp2343
S'argvs'
p2344
asbag56
(g77
g58
NtRp2345
(dp2346
g61
(dp2347
g88
g89
ssg70
g2336
sg63
(lp2348
S':'
asbag56
(g77
g58
NtRp2349
(dp2350
g61
(dp2351
sg70
g2336
sg63
(lp2352
g56
(g57
g58
NtRp2353
(dp2354
g61
(dp2355
g69
I3
ssg70
g2349
sg63
(lp2356
g56
(g65
g58
NtRp2357
(dp2358
g61
(dp2359
g69
I2
ssg70
Nsg63
(lp2360
sbasbasbasbag56
(g72
g58
NtRp2361
(dp2362
g61
(dp2363
sg70
g2332
sg63
(lp2364
g56
(g77
g58
NtRp2365
(dp2366
g61
(dp2367
g81
g82
ssg70
g2361
sg63
(lp2368
S'code'
p2369
asbag56
(g77
g58
NtRp2370
(dp2371
g61
(dp2372
g88
g89
ssg70
g2361
sg63
(lp2373
S':'
asbag56
(g77
g58
NtRp2374
(dp2375
g61
(dp2376
sg70
g2361
sg63
(lp2377
g56
(g57
g58
NtRp2378
(dp2379
g61
(dp2380
g69
I3
ssg70
g2374
sg63
(lp2381
g56
(g65
g58
NtRp2382
(dp2383
g61
(dp2384
g69
I2
ssg70
Nsg63
(lp2385
sbasbasbasbag56
(g72
g58
NtRp2386
(dp2387
g61
(dp2388
sg70
g2332
sg63
(lp2389
g56
(g77
g58
NtRp2390
(dp2391
g61
(dp2392
g81
g82
ssg70
g2386
sg63
(lp2393
S'stdin'
p2394
asbag56
(g77
g58
NtRp2395
(dp2396
g61
(dp2397
g88
g89
ssg70
g2386
sg63
(lp2398
S':'
asbag56
(g77
g58
NtRp2399
(dp2400
g61
(dp2401
sg70
g2386
sg63
(lp2402
g56
(g57
g58
NtRp2403
(dp2404
g61
(dp2405
g69
I3
ssg70
g2399
sg63
(lp2406
g56
(g65
g58
NtRp2407
(dp2408
g61
(dp2409
g69
I2
ssg70
Nsg63
(lp2410
sbasbasbasbag56
(g72
g58
NtRp2411
(dp2412
g61
(dp2413
sg70
g2332
sg63
(lp2414
g56
(g77
g58
NtRp2415
(dp2416
g61
(dp2417
g81
g82
ssg70
g2411
sg63
(lp2418
S'stdout'
p2419
asbag56
(g77
g58
NtRp2420
(dp2421
g61
(dp2422
g88
g89
ssg70
g2411
sg63
(lp2423
S':'
asbag56
(g77
g58
NtRp2424
(dp2425
g61
(dp2426
sg70
g2411
sg63
(lp2427
g56
(g57
g58
NtRp2428
(dp2429
g61
(dp2430
g69
I3
ssg70
g2424
sg63
(lp2431
g56
(g65
g58
NtRp2432
(dp2433
g61
(dp2434
g69
I2
ssg70
Nsg63
(lp2435
g56
(g72
g58
NtRp2436
(dp2437
g61
(dp2438
sg70
g2432
sg63
(lp2439
g56
(g77
g58
NtRp2440
(dp2441
g61
(dp2442
g81
g82
ssg70
g2436
sg63
(lp2443
S'$y0'
p2444
asbag56
(g77
g58
NtRp2445
(dp2446
g61
(dp2447
g88
g89
ssg70
g2436
sg63
(lp2448
S':'
asbag56
(g77
g58
NtRp2449
(dp2450
g61
(dp2451
sg70
g2436
sg63
(lp2452
g56
(g57
g58
NtRp2453
(dp2454
g61
(dp2455
g69
I2
ssg70
g2449
sg63
(lp2456
S''
asbasbasbag56
(g72
g58
NtRp2457
(dp2458
g61
(dp2459
sg70
g2432
sg63
(lp2460
g56
(g77
g58
NtRp2461
(dp2462
g61
(dp2463
g81
g82
ssg70
g2457
sg63
(lp2464
S'$y1'
p2465
asbag56
(g77
g58
NtRp2466
(dp2467
g61
(dp2468
g88
g89
ssg70
g2457
sg63
(lp2469
S':'
asbag56
(g77
g58
NtRp2470
(dp2471
g61
(dp2472
sg70
g2457
sg63
(lp2473
g56
(g57
g58
NtRp2474
(dp2475
g61
(dp2476
g69
I2
ssg70
g2470
sg63
(lp2477
S''
asbasbasbag56
(g72
g58
NtRp2478
(dp2479
g61
(dp2480
sg70
g2432
sg63
(lp2481
g56
(g77
g58
NtRp2482
(dp2483
g61
(dp2484
g81
g82
ssg70
g2478
sg63
(lp2485
S'$y2'
p2486
asbag56
(g77
g58
NtRp2487
(dp2488
g61
(dp2489
g88
g89
ssg70
g2478
sg63
(lp2490
S':'
asbag56
(g77
g58
NtRp2491
(dp2492
g61
(dp2493
sg70
g2478
sg63
(lp2494
g56
(g57
g58
NtRp2495
(dp2496
g61
(dp2497
g69
I2
ssg70
g2491
sg63
(lp2498
S''
asbasbasbasbasbasbasbasbasbasbasbasbasbasbasbag56
(g72
g58
NtRp2499
(dp2500
g61
(dp2501
sg70
g2291
sg63
(lp2502
g56
(g77
g58
NtRp2503
(dp2504
g61
(dp2505
g81
g82
ssg70
g2499
sg63
(lp2506
S'login'
p2507
asbag56
(g77
g58
NtRp2508
(dp2509
g61
(dp2510
g88
g89
ssg70
g2499
sg63
(lp2511
S':'
asbag56
(g77
g58
NtRp2512
(dp2513
g61
(dp2514
sg70
g2499
sg63
(lp2515
g56
(g57
g58
NtRp2516
(dp2517
g61
(dp2518
g69
I5
ssg70
g2512
sg63
(lp2519
S''
asbasbasbag56
(g72
g58
NtRp2520
(dp2521
g61
(dp2522
sg70
g2291
sg63
(lp2523
g56
(g77
g58
NtRp2524
(dp2525
g61
(dp2526
g81
g82
ssg70
g2520
sg63
(lp2527
S'question_timer'
p2528
asbag56
(g77
g58
NtRp2529
(dp2530
g61
(dp2531
g88
g89
ssg70
g2520
sg63
(lp2532
S':'
asbag56
(g77
g58
NtRp2533
(dp2534
g61
(dp2535
sg70
g2520
sg63
(lp2536
g56
(g57
g58
NtRp2537
(dp2538
g61
(dp2539
g69
I5
ssg70
g2533
sg63
(lp2540
S'1309733419'
p2541
asbasbasbag56
(g72
g58
NtRp2542
(dp2543
g61
(dp2544
sg70
g2291
sg63
(lp2545
g56
(g77
g58
NtRp2546
(dp2547
g61
(dp2548
g81
g82
ssg70
g2542
sg63
(lp2549
S'quiz'
p2550
asbag56
(g77
g58
NtRp2551
(dp2552
g61
(dp2553
g88
g89
ssg70
g2542
sg63
(lp2554
S':'
asbag56
(g77
g58
NtRp2555
(dp2556
g61
(dp2557
sg70
g2542
sg63
(lp2558
g56
(g57
g58
NtRp2559
(dp2560
g61
(dp2561
g69
I5
ssg70
g2555
sg63
(lp2562
S'<ca_quiz.quiz instance at 0x8cbda0c>'
p2563
asbasbasbasbasbsS'etype'
p2564
S"<type 'exceptions.NameError'>"
p2565
sS'date'
p2566
S'Sun Jul  3 15:53:14 2011'
p2567
sS'response'
p2568
g56
(g57
g58
NtRp2569
(dp2570
g61
(dp2571
sg63
(lp2572
g56
(g65
g58
NtRp2573
(dp2574
g61
(dp2575
g69
I5
ssg70
Nsg63
(lp2576
g56
(g72
g58
NtRp2577
(dp2578
g61
(dp2579
sg70
g2573
sg63
(lp2580
g56
(g77
g58
NtRp2581
(dp2582
g61
(dp2583
g81
g82
ssg70
g2577
sg63
(lp2584
g154
asbag56
(g77
g58
NtRp2585
(dp2586
g61
(dp2587
g88
g89
ssg70
g2577
sg63
(lp2588
S':'
asbag56
(g77
g58
NtRp2589
(dp2590
g61
(dp2591
sg70
g2577
sg63
(lp2592
g56
(g57
g58
NtRp2593
(dp2594
g61
(dp2595
g69
I5
ssg70
g2589
sg63
(lp2596
S'<cStringIO.StringO object at 0x8d31e20>'
p2597
asbasbasbag56
(g72
g58
NtRp2598
(dp2599
g61
(dp2600
sg70
g2573
sg63
(lp2601
g56
(g77
g58
NtRp2602
(dp2603
g61
(dp2604
g81
g82
ssg70
g2598
sg63
(lp2605
g220
asbag56
(g77
g58
NtRp2606
(dp2607
g61
(dp2608
g88
g89
ssg70
g2598
sg63
(lp2609
S':'
asbag56
(g77
g58
NtRp2610
(dp2611
g61
(dp2612
sg70
g2598
sg63
(lp2613
g56
(g57
g58
NtRp2614
(dp2615
g61
(dp2616
g69
I5
ssg70
g2610
sg63
(lp2617
g56
(g65
g58
NtRp2618
(dp2619
g61
(dp2620
g69
I4
ssg70
Nsg63
(lp2621
g56
(g72
g58
NtRp2622
(dp2623
g61
(dp2624
sg70
g2618
sg63
(lp2625
g56
(g77
g58
NtRp2626
(dp2627
g61
(dp2628
g81
g82
ssg70
g2622
sg63
(lp2629
S'session_id_codeact'
p2630
asbag56
(g77
g58
NtRp2631
(dp2632
g61
(dp2633
g88
g89
ssg70
g2622
sg63
(lp2634
S':'
asbag56
(g77
g58
NtRp2635
(dp2636
g61
(dp2637
sg70
g2622
sg63
(lp2638
g56
(g57
g58
NtRp2639
(dp2640
g61
(dp2641
g69
I4
ssg70
g2635
sg63
(lp2642
g56
(g65
g58
NtRp2643
(dp2644
g61
(dp2645
g69
I3
ssg70
Nsg63
(lp2646
g56
(g72
g58
NtRp2647
(dp2648
g61
(dp2649
sg70
g2643
sg63
(lp2650
g56
(g77
g58
NtRp2651
(dp2652
g61
(dp2653
g81
g82
ssg70
g2647
sg63
(lp2654
g270
asbag56
(g77
g58
NtRp2655
(dp2656
g61
(dp2657
g88
g89
ssg70
g2647
sg63
(lp2658
S':'
asbag56
(g77
g58
NtRp2659
(dp2660
g61
(dp2661
sg70
g2647
sg63
(lp2662
g56
(g57
g58
NtRp2663
(dp2664
g61
(dp2665
g69
I3
ssg70
g2659
sg63
(lp2666
S''
asbasbasbag56
(g72
g58
NtRp2667
(dp2668
g61
(dp2669
sg70
g2643
sg63
(lp2670
g56
(g77
g58
NtRp2671
(dp2672
g61
(dp2673
g81
g82
ssg70
g2667
sg63
(lp2674
g291
asbag56
(g77
g58
NtRp2675
(dp2676
g61
(dp2677
g88
g89
ssg70
g2667
sg63
(lp2678
S':'
asbag56
(g77
g58
NtRp2679
(dp2680
g61
(dp2681
sg70
g2667
sg63
(lp2682
g56
(g57
g58
NtRp2683
(dp2684
g61
(dp2685
g69
I3
ssg70
g2679
sg63
(lp2686
S''
asbasbasbag56
(g72
g58
NtRp2687
(dp2688
g61
(dp2689
sg70
g2643
sg63
(lp2690
g56
(g77
g58
NtRp2691
(dp2692
g61
(dp2693
g81
g82
ssg70
g2687
sg63
(lp2694
g312
asbag56
(g77
g58
NtRp2695
(dp2696
g61
(dp2697
g88
g89
ssg70
g2687
sg63
(lp2698
S':'
asbag56
(g77
g58
NtRp2699
(dp2700
g61
(dp2701
sg70
g2687
sg63
(lp2702
g56
(g57
g58
NtRp2703
(dp2704
g61
(dp2705
g69
I3
ssg70
g2699
sg63
(lp2706
S''
asbasbasbag56
(g72
g58
NtRp2707
(dp2708
g61
(dp2709
sg70
g2643
sg63
(lp2710
g56
(g77
g58
NtRp2711
(dp2712
g61
(dp2713
g81
g82
ssg70
g2707
sg63
(lp2714
g333
asbag56
(g77
g58
NtRp2715
(dp2716
g61
(dp2717
g88
g89
ssg70
g2707
sg63
(lp2718
S':'
asbag56
(g77
g58
NtRp2719
(dp2720
g61
(dp2721
sg70
g2707
sg63
(lp2722
g56
(g57
g58
NtRp2723
(dp2724
g61
(dp2725
g69
I3
ssg70
g2719
sg63
(lp2726
S''
asbasbasbag56
(g72
g58
NtRp2727
(dp2728
g61
(dp2729
sg70
g2643
sg63
(lp2730
g56
(g77
g58
NtRp2731
(dp2732
g61
(dp2733
g81
g82
ssg70
g2727
sg63
(lp2734
g354
asbag56
(g77
g58
NtRp2735
(dp2736
g61
(dp2737
g88
g89
ssg70
g2727
sg63
(lp2738
S':'
asbag56
(g77
g58
NtRp2739
(dp2740
g61
(dp2741
sg70
g2727
sg63
(lp2742
g56
(g57
g58
NtRp2743
(dp2744
g61
(dp2745
g69
I3
ssg70
g2739
sg63
(lp2746
S''
asbasbasbag56
(g72
g58
NtRp2747
(dp2748
g61
(dp2749
sg70
g2643
sg63
(lp2750
g56
(g77
g58
NtRp2751
(dp2752
g61
(dp2753
g81
g82
ssg70
g2747
sg63
(lp2754
g375
asbag56
(g77
g58
NtRp2755
(dp2756
g61
(dp2757
g88
g89
ssg70
g2747
sg63
(lp2758
S':'
asbag56
(g77
g58
NtRp2759
(dp2760
g61
(dp2761
sg70
g2747
sg63
(lp2762
g56
(g57
g58
NtRp2763
(dp2764
g61
(dp2765
g69
I3
ssg70
g2759
sg63
(lp2766
S'/'
asbasbasbag56
(g72
g58
NtRp2767
(dp2768
g61
(dp2769
sg70
g2643
sg63
(lp2770
g56
(g77
g58
NtRp2771
(dp2772
g61
(dp2773
g81
g82
ssg70
g2767
sg63
(lp2774
g396
asbag56
(g77
g58
NtRp2775
(dp2776
g61
(dp2777
g88
g89
ssg70
g2767
sg63
(lp2778
S':'
asbag56
(g77
g58
NtRp2779
(dp2780
g61
(dp2781
sg70
g2767
sg63
(lp2782
g56
(g57
g58
NtRp2783
(dp2784
g61
(dp2785
g69
I3
ssg70
g2779
sg63
(lp2786
S''
asbasbasbag56
(g72
g58
NtRp2787
(dp2788
g61
(dp2789
sg70
g2643
sg63
(lp2790
g56
(g77
g58
NtRp2791
(dp2792
g61
(dp2793
g81
g82
ssg70
g2787
sg63
(lp2794
g417
asbag56
(g77
g58
NtRp2795
(dp2796
g61
(dp2797
g88
g89
ssg70
g2787
sg63
(lp2798
S':'
asbag56
(g77
g58
NtRp2799
(dp2800
g61
(dp2801
sg70
g2787
sg63
(lp2802
g56
(g57
g58
NtRp2803
(dp2804
g61
(dp2805
g69
I3
ssg70
g2799
sg63
(lp2806
S''
asbasbasbasbasbasbasbasbasbasbasbag56
(g72
g58
NtRp2807
(dp2808
g61
(dp2809
sg70
g2573
sg63
(lp2810
g56
(g77
g58
NtRp2811
(dp2812
g61
(dp2813
g81
g82
ssg70
g2807
sg63
(lp2814
S'files'
p2815
asbag56
(g77
g58
NtRp2816
(dp2817
g61
(dp2818
g88
g89
ssg70
g2807
sg63
(lp2819
S':'
asbag56
(g77
g58
NtRp2820
(dp2821
g61
(dp2822
sg70
g2807
sg63
(lp2823
g56
(g57
g58
NtRp2824
(dp2825
g61
(dp2826
g69
I5
ssg70
g2820
sg63
(lp2827
g56
(g65
g58
NtRp2828
(dp2829
g61
(dp2830
g69
I4
ssg70
Nsg63
(lp2831
sbasbasbasbag56
(g72
g58
NtRp2832
(dp2833
g61
(dp2834
sg70
g2573
sg63
(lp2835
g56
(g77
g58
NtRp2836
(dp2837
g61
(dp2838
g81
g82
ssg70
g2832
sg63
(lp2839
S'flash'
p2840
asbag56
(g77
g58
NtRp2841
(dp2842
g61
(dp2843
g88
g89
ssg70
g2832
sg63
(lp2844
S':'
asbag56
(g77
g58
NtRp2845
(dp2846
g61
(dp2847
sg70
g2832
sg63
(lp2848
g56
(g57
g58
NtRp2849
(dp2850
g61
(dp2851
g69
I5
ssg70
g2845
sg63
(lp2852
S''
asbasbasbag56
(g72
g58
NtRp2853
(dp2854
g61
(dp2855
sg70
g2573
sg63
(lp2856
g56
(g77
g58
NtRp2857
(dp2858
g61
(dp2859
g81
g82
ssg70
g2853
sg63
(lp2860
S'headers'
p2861
asbag56
(g77
g58
NtRp2862
(dp2863
g61
(dp2864
g88
g89
ssg70
g2853
sg63
(lp2865
S':'
asbag56
(g77
g58
NtRp2866
(dp2867
g61
(dp2868
sg70
g2853
sg63
(lp2869
g56
(g57
g58
NtRp2870
(dp2871
g61
(dp2872
g69
I5
ssg70
g2866
sg63
(lp2873
g56
(g65
g58
NtRp2874
(dp2875
g61
(dp2876
g69
I4
ssg70
Nsg63
(lp2877
g56
(g72
g58
NtRp2878
(dp2879
g61
(dp2880
sg70
g2874
sg63
(lp2881
g56
(g77
g58
NtRp2882
(dp2883
g61
(dp2884
g81
g82
ssg70
g2878
sg63
(lp2885
S'Cache-Control'
p2886
asbag56
(g77
g58
NtRp2887
(dp2888
g61
(dp2889
g88
g89
ssg70
g2878
sg63
(lp2890
S':'
asbag56
(g77
g58
NtRp2891
(dp2892
g61
(dp2893
sg70
g2878
sg63
(lp2894
g56
(g57
g58
NtRp2895
(dp2896
g61
(dp2897
g69
I4
ssg70
g2891
sg63
(lp2898
S'no-store, no-cache, must-revalidate, post-check=0, pre-check=0'
p2899
asbasbasbag56
(g72
g58
NtRp2900
(dp2901
g61
(dp2902
sg70
g2874
sg63
(lp2903
g56
(g77
g58
NtRp2904
(dp2905
g61
(dp2906
g81
g82
ssg70
g2900
sg63
(lp2907
S'Content-Type'
p2908
asbag56
(g77
g58
NtRp2909
(dp2910
g61
(dp2911
g88
g89
ssg70
g2900
sg63
(lp2912
S':'
asbag56
(g77
g58
NtRp2913
(dp2914
g61
(dp2915
sg70
g2900
sg63
(lp2916
g56
(g57
g58
NtRp2917
(dp2918
g61
(dp2919
g69
I4
ssg70
g2913
sg63
(lp2920
S'text/html; charset=utf-8'
p2921
asbasbasbag56
(g72
g58
NtRp2922
(dp2923
g61
(dp2924
sg70
g2874
sg63
(lp2925
g56
(g77
g58
NtRp2926
(dp2927
g61
(dp2928
g81
g82
ssg70
g2922
sg63
(lp2929
S'Expires'
p2930
asbag56
(g77
g58
NtRp2931
(dp2932
g61
(dp2933
g88
g89
ssg70
g2922
sg63
(lp2934
S':'
asbag56
(g77
g58
NtRp2935
(dp2936
g61
(dp2937
sg70
g2922
sg63
(lp2938
g56
(g57
g58
NtRp2939
(dp2940
g61
(dp2941
g69
I4
ssg70
g2935
sg63
(lp2942
S'Sun, 03 Jul 2011 22:53:14 GMT'
p2943
asbasbasbag56
(g72
g58
NtRp2944
(dp2945
g61
(dp2946
sg70
g2874
sg63
(lp2947
g56
(g77
g58
NtRp2948
(dp2949
g61
(dp2950
g81
g82
ssg70
g2944
sg63
(lp2951
S'Pragma'
p2952
asbag56
(g77
g58
NtRp2953
(dp2954
g61
(dp2955
g88
g89
ssg70
g2944
sg63
(lp2956
S':'
asbag56
(g77
g58
NtRp2957
(dp2958
g61
(dp2959
sg70
g2944
sg63
(lp2960
g56
(g57
g58
NtRp2961
(dp2962
g61
(dp2963
g69
I4
ssg70
g2957
sg63
(lp2964
S'no-cache'
p2965
asbasbasbasbasbasbasbag56
(g72
g58
NtRp2966
(dp2967
g61
(dp2968
sg70
g2573
sg63
(lp2969
g56
(g77
g58
NtRp2970
(dp2971
g61
(dp2972
g81
g82
ssg70
g2966
sg63
(lp2973
S'menu'
p2974
asbag56
(g77
g58
NtRp2975
(dp2976
g61
(dp2977
g88
g89
ssg70
g2966
sg63
(lp2978
S':'
asbag56
(g77
g58
NtRp2979
(dp2980
g61
(dp2981
sg70
g2966
sg63
(lp2982
g56
(g57
g58
NtRp2983
(dp2984
g61
(dp2985
g69
I5
ssg70
g2979
sg63
(lp2986
g56
(g65
g58
NtRp2987
(dp2988
g61
(dp2989
g69
I4
ssg70
Nsg63
(lp2990
sbasbasbasbag56
(g72
g58
NtRp2991
(dp2992
g61
(dp2993
sg70
g2573
sg63
(lp2994
g56
(g77
g58
NtRp2995
(dp2996
g61
(dp2997
g81
g82
ssg70
g2991
sg63
(lp2998
S'meta'
p2999
asbag56
(g77
g58
NtRp3000
(dp3001
g61
(dp3002
g88
g89
ssg70
g2991
sg63
(lp3003
S':'
asbag56
(g77
g58
NtRp3004
(dp3005
g61
(dp3006
sg70
g2991
sg63
(lp3007
g56
(g57
g58
NtRp3008
(dp3009
g61
(dp3010
g69
I5
ssg70
g3004
sg63
(lp3011
g56
(g65
g58
NtRp3012
(dp3013
g61
(dp3014
g69
I4
ssg70
Nsg63
(lp3015
sbasbasbasbag56
(g72
g58
NtRp3016
(dp3017
g61
(dp3018
sg70
g2573
sg63
(lp3019
g56
(g77
g58
NtRp3020
(dp3021
g61
(dp3022
g81
g82
ssg70
g3016
sg63
(lp3023
S'postprocessing'
p3024
asbag56
(g77
g58
NtRp3025
(dp3026
g61
(dp3027
g88
g89
ssg70
g3016
sg63
(lp3028
S':'
asbag56
(g77
g58
NtRp3029
(dp3030
g61
(dp3031
sg70
g3016
sg63
(lp3032
g56
(g57
g58
NtRp3033
(dp3034
g61
(dp3035
g69
I5
ssg70
g3029
sg63
(lp3036
g56
(g65
g58
NtRp3037
(dp3038
g61
(dp3039
g69
I4
ssg70
Nsg63
(lp3040
sbasbasbasbag56
(g72
g58
NtRp3041
(dp3042
g61
(dp3043
sg70
g2573
sg63
(lp3044
g56
(g77
g58
NtRp3045
(dp3046
g61
(dp3047
g81
g82
ssg70
g3041
sg63
(lp3048
S'session_file'
p3049
asbag56
(g77
g58
NtRp3050
(dp3051
g61
(dp3052
g88
g89
ssg70
g3041
sg63
(lp3053
S':'
asbag56
(g77
g58
NtRp3054
(dp3055
g61
(dp3056
sg70
g3041
sg63
(lp3057
g56
(g57
g58
NtRp3058
(dp3059
g61
(dp3060
g69
I5
ssg70
g3054
sg63
(lp3061
S"<open file '/home/derek/Dropbox/SEng265-Share/pe2/codeAct_1.01/web2py/applications/codeAct/sessions/127.0.0.1-d1d831bb-53ed-4595-ba8e-79f8327f07e5', mode 'rb+' at 0x8ca0ac8>"
p3062
asbasbasbag56
(g72
g58
NtRp3063
(dp3064
g61
(dp3065
sg70
g2573
sg63
(lp3066
g56
(g77
g58
NtRp3067
(dp3068
g61
(dp3069
g81
g82
ssg70
g3063
sg63
(lp3070
S'session_filename'
p3071
asbag56
(g77
g58
NtRp3072
(dp3073
g61
(dp3074
g88
g89
ssg70
g3063
sg63
(lp3075
S':'
asbag56
(g77
g58
NtRp3076
(dp3077
g61
(dp3078
sg70
g3063
sg63
(lp3079
g56
(g57
g58
NtRp3080
(dp3081
g61
(dp3082
g69
I5
ssg70
g3076
sg63
(lp3083
S'/home/derek/Dropbox/SEng265-Share/pe2/codeAct_1.01/web2py/applications/codeAct/sessions/127.0.0.1-d1d831bb-53ed-4595-ba8e-79f8327f07e5'
p3084
asbasbasbag56
(g72
g58
NtRp3085
(dp3086
g61
(dp3087
sg70
g2573
sg63
(lp3088
g56
(g77
g58
NtRp3089
(dp3090
g61
(dp3091
g81
g82
ssg70
g3085
sg63
(lp3092
S'session_id'
p3093
asbag56
(g77
g58
NtRp3094
(dp3095
g61
(dp3096
g88
g89
ssg70
g3085
sg63
(lp3097
S':'
asbag56
(g77
g58
NtRp3098
(dp3099
g61
(dp3100
sg70
g3085
sg63
(lp3101
g56
(g57
g58
NtRp3102
(dp3103
g61
(dp3104
g69
I5
ssg70
g3098
sg63
(lp3105
S'127.0.0.1-d1d831bb-53ed-4595-ba8e-79f8327f07e5'
p3106
asbasbasbag56
(g72
g58
NtRp3107
(dp3108
g61
(dp3109
sg70
g2573
sg63
(lp3110
g56
(g77
g58
NtRp3111
(dp3112
g61
(dp3113
g81
g82
ssg70
g3107
sg63
(lp3114
S'session_id_name'
p3115
asbag56
(g77
g58
NtRp3116
(dp3117
g61
(dp3118
g88
g89
ssg70
g3107
sg63
(lp3119
S':'
asbag56
(g77
g58
NtRp3120
(dp3121
g61
(dp3122
sg70
g3107
sg63
(lp3123
g56
(g57
g58
NtRp3124
(dp3125
g61
(dp3126
g69
I5
ssg70
g3120
sg63
(lp3127
g2630
asbasbasbag56
(g72
g58
NtRp3128
(dp3129
g61
(dp3130
sg70
g2573
sg63
(lp3131
g56
(g77
g58
NtRp3132
(dp3133
g61
(dp3134
g81
g82
ssg70
g3128
sg63
(lp3135
S'session_locked'
p3136
asbag56
(g77
g58
NtRp3137
(dp3138
g61
(dp3139
g88
g89
ssg70
g3128
sg63
(lp3140
S':'
asbag56
(g77
g58
NtRp3141
(dp3142
g61
(dp3143
sg70
g3128
sg63
(lp3144
g56
(g57
g58
NtRp3145
(dp3146
g61
(dp3147
g69
I5
ssg70
g3141
sg63
(lp3148
g1178
asbasbasbag56
(g72
g58
NtRp3149
(dp3150
g61
(dp3151
sg70
g2573
sg63
(lp3152
g56
(g77
g58
NtRp3153
(dp3154
g61
(dp3155
g81
g82
ssg70
g3149
sg63
(lp3156
S'session_new'
p3157
asbag56
(g77
g58
NtRp3158
(dp3159
g61
(dp3160
g88
g89
ssg70
g3149
sg63
(lp3161
S':'
asbag56
(g77
g58
NtRp3162
(dp3163
g61
(dp3164
sg70
g3149
sg63
(lp3165
g56
(g57
g58
NtRp3166
(dp3167
g61
(dp3168
g69
I5
ssg70
g3162
sg63
(lp3169
g99
asbasbasbag56
(g72
g58
NtRp3170
(dp3171
g61
(dp3172
sg70
g2573
sg63
(lp3173
g56
(g77
g58
NtRp3174
(dp3175
g61
(dp3176
g81
g82
ssg70
g3170
sg63
(lp3177
S'status'
p3178
asbag56
(g77
g58
NtRp3179
(dp3180
g61
(dp3181
g88
g89
ssg70
g3170
sg63
(lp3182
S':'
asbag56
(g77
g58
NtRp3183
(dp3184
g61
(dp3185
sg70
g3170
sg63
(lp3186
g56
(g57
g58
NtRp3187
(dp3188
g61
(dp3189
g69
I5
ssg70
g3183
sg63
(lp3190
S'200'
p3191
asbasbasbag56
(g72
g58
NtRp3192
(dp3193
g61
(dp3194
sg70
g2573
sg63
(lp3195
g56
(g77
g58
NtRp3196
(dp3197
g61
(dp3198
g81
g82
ssg70
g3192
sg63
(lp3199
g1503
asbag56
(g77
g58
NtRp3200
(dp3201
g61
(dp3202
g88
g89
ssg70
g3192
sg63
(lp3203
S':'
asbag56
(g77
g58
NtRp3204
(dp3205
g61
(dp3206
sg70
g3192
sg63
(lp3207
g56
(g57
g58
NtRp3208
(dp3209
g61
(dp3210
g69
I5
ssg70
g3204
sg63
(lp3211
g1516
asbasbasbag56
(g72
g58
NtRp3212
(dp3213
g61
(dp3214
sg70
g2573
sg63
(lp3215
g56
(g77
g58
NtRp3216
(dp3217
g61
(dp3218
g81
g82
ssg70
g3212
sg63
(lp3219
S'view'
p3220
asbag56
(g77
g58
NtRp3221
(dp3222
g61
(dp3223
g88
g89
ssg70
g3212
sg63
(lp3224
S':'
asbag56
(g77
g58
NtRp3225
(dp3226
g61
(dp3227
sg70
g3212
sg63
(lp3228
g56
(g57
g58
NtRp3229
(dp3230
g61
(dp3231
g69
I5
ssg70
g3225
sg63
(lp3232
S'ca_controller/quiz.html'
p3233
asbasbasbasbasbsS'locals'
p3234
(dp3235
S'__builtins__'
p3236
S"{'ArithmeticError': <type 'exceptions.ArithmeticError'>, 'AssertionError': <type 'exceptions.AssertionError'>, 'AttributeError': <type 'exceptions.AttributeError'>, 'BaseException': <type 'exceptions.BaseException'>, 'BufferError': <type 'exceptions.BufferError'>, 'BytesWarning': <type 'exceptions.BytesWarning'>, 'DeprecationWarning': <type 'exceptions.DeprecationWarning'>, 'EOFError': <type 'exceptions.EOFError'>, 'Ellipsis': Ellipsis, 'EnvironmentError': <type 'exceptions.EnvironmentError'>, ...}"
p3237
sS'__file__'
p3238
S'None'
p3239
sS'__package__'
p3240
S'None'
p3241
sS'code_lib_path'
p3242
S'None'
p3243
sS'__name__'
p3244
S'None'
p3245
sg47
S'None'
p3246
sssS'traceback'
p3247
S'Traceback (most recent call last):\n  File "/home/derek/Dropbox/SEng265-Share/pe2/codeAct_1.01/web2py/gluon/restricted.py", line 181, in restricted\n    exec ccode in environment\n  File "/home/derek/Dropbox/SEng265-Share/pe2/codeAct_1.01/web2py/applications/codeAct/controllers/ca_controller.py", line 85, in <module>\n  File "/home/derek/Dropbox/SEng265-Share/pe2/codeAct_1.01/web2py/gluon/globals.py", line 133, in <lambda>\n    self._caller = lambda f: f()\n  File "/home/derek/Dropbox/SEng265-Share/pe2/codeAct_1.01/web2py/applications/codeAct/controllers/ca_controller.py", line 40, in quiz\n    session[\'quiz\'] = Quiz.quiz(request.vars[\'quiz_spec\'])\n  File "/home/derek/Dropbox/SEng265-Share/pe2/codeAct_1.01/web2py/applications/codeAct/ca_quiz.py", line 18, in __init__\n    quiz_spec_file = __import__(path[1])\n  File "/home/derek/Dropbox/SEng265-Share/pe2/codeAct_1.01/quiz_specs/sort_quiz_spec.py", line 3, in <module>\n    (mark, \tcount, [directories])\nNameError: name \'mark\' is not defined\n'
p3248
s.