(dp1
S'output'
p2
S''
sS'layer'
p3
S'/home/jacobbl/SENG265/pe2/codeAct_1.01/web2py/applications/codeAct/controllers/ca_controller.py'
p4
sS'code'
p5
S"import sys\nimport time\nimport os\n\nimport ca_quiz as Quiz\nimport ca_log_create as log_create\n\nsys.path.append('applications/codeAct/controllers')\nimport ca_utility as utility\n\nsys.path.append('applications/codeAct/views/ca_controller')\nimport ca_question_HTML as question_HTML\n\nSERVERNAME = 'cdoku'\n\ndef ca_login():\n\tif not 'username' in request.vars.keys(): # not a submission\n\t\treturn dict(msg='')\n\telse: # request is a submission\n\t\t# get user list\n\t\tuser_list = 'allowed_users.txt'\n\t\t# check if student is registered in SENG265\n\t\tusers = open(os.path.join('../users/',user_list),\n\t\t 'r').read().split('\\n')\n\t\tif not request.vars['username'] in users:\n\t\t\treturn dict(\n\t\t\t msg = 'Not registered in the current session.')\n\t\t# authenticate username and password\n\t\tif os.uname()[1] == SERVERNAME:\n\t\t\tseng_auth = __import__('ca_seng_auth')\n\t\t\tif seng_auth.authenticate(request.vars['username'],\n\t\t\t request.vars['password']) != 0:\n\t\t\t\treturn dict(msg='Wrong username or password.')\n\t\tsession.login = request.vars['username']\n\t\tredirect(URL(r=request, f='quiz'))\n\ndef quiz():\n\t# the beginning of the quiz, create quiz and init answer_list\n\tif 'quiz_spec' in request.vars.keys():\n\t\tsession['quiz'] = Quiz.quiz(request.vars['quiz_spec'])\n\t\tsession['answer_list'] = utility.init_answer_list(\n\t\t session['quiz'])\n\t\t# initialize question_timer\n\t\tsession['question_timer'] = int(time.time())\n\t\t# reset the login\n\t\tif 'login' in session.keys():\n\t\t\tdel session['login']\n\n\t# if quiz does not exist, redirect to home page\n\tif not 'quiz' in session.keys():\n\t\tredirect(URL(r=request, f='ca_index'))\n\n\t# check login in marked mode\n\tif not 'login' in session.keys():\n\t\tif not session['quiz'].practice_mode: \n\t\t\tredirect(URL(r=request, f='ca_login'))\n\t\telse:\n\t\t\tsession['login'] = ''\n\n\t# init log_dir and log\n\tif session['quiz'].logged:\n\t\tlog_create.create_log(session['quiz'].log_dir,\n\t\t session['login'])\n\n\t# generate HTML code\n\tquestion_number = utility.get_question_number(request.vars)\n\tquestion = session['quiz'].get_question(question_number-1)\n\tutility.update_answer(question,question_number,session['answer_list'],\n\t request.vars)\n\tcode = question_HTML.generate_html(session['quiz'],question_number,\n\t session['answer_list'][question_number-1])\n\tcode = utility.get_result(code,question,question_number,\n\t session['quiz'].logged,session['quiz'].log_dir,\n\t session['quiz'].practice_mode,session['login'],\n\t session['answer_list'][question_number-1],\n\t request.vars,session['question_timer'])\n\tcode = utility.add_submit_label(code,session['quiz'].practice_mode)\n\tcode = utility.disable_navi_buttons(code,question_number,\n\t session['quiz'])\n\n\t# update question timer\n\tsession['question_timer'] = int(time.time())\n\treturn code\n\nresponse._vars=response._caller(quiz)\n"
p6
sS'snapshot'
p7
(dp8
S'exception'
p9
(dp10
S'__hash__'
p11
S"<method-wrapper '__hash__' of exceptions.IndexError object>"
p12
sS'__setattr__'
p13
S"<method-wrapper '__setattr__' of exceptions.IndexError object>"
p14
sS'__reduce_ex__'
p15
S'<built-in method __reduce_ex__ of exceptions.IndexError object>'
p16
sS'__getslice__'
p17
S"<method-wrapper '__getslice__' of exceptions.IndexError object>"
p18
sS'__getitem__'
p19
S"<method-wrapper '__getitem__' of exceptions.IndexError object>"
p20
sS'__setstate__'
p21
S'<built-in method __setstate__ of exceptions.IndexError object>'
p22
sS'__reduce__'
p23
S'<built-in method __reduce__ of exceptions.IndexError object>'
p24
sS'__str__'
p25
S"<method-wrapper '__str__' of exceptions.IndexError object>"
p26
sS'__format__'
p27
S'<built-in method __format__ of exceptions.IndexError object>'
p28
sS'__getattribute__'
p29
S"<method-wrapper '__getattribute__' of exceptions.IndexError object>"
p30
sS'__class__'
p31
S"<type 'exceptions.IndexError'>"
p32
sS'__unicode__'
p33
S'<built-in method __unicode__ of exceptions.IndexError object>'
p34
sS'__delattr__'
p35
S"<method-wrapper '__delattr__' of exceptions.IndexError object>"
p36
sS'__subclasshook__'
p37
S'<built-in method __subclasshook__ of type object>'
p38
sS'__repr__'
p39
S"<method-wrapper '__repr__' of exceptions.IndexError object>"
p40
sS'args'
p41
S"('list index out of range',)"
p42
sS'__dict__'
p43
S'{}'
p44
sS'__sizeof__'
p45
S'<built-in method __sizeof__ of exceptions.IndexError object>'
p46
sS'__doc__'
p47
S"'Sequence index out of range.'"
p48
sS'__init__'
p49
S"<method-wrapper '__init__' of exceptions.IndexError object>"
p50
sS'__new__'
p51
S'<built-in method __new__ of type object>'
p52
ssS'evalue'
p53
S'list index out of range'
p54
sS'request'
p55
ccopy_reg
_reconstructor
p56
(cgluon.html
BEAUTIFY
p57
c__builtin__
object
p58
NtRp59
(dp60
S'attributes'
p61
(dp62
sS'components'
p63
(lp64
g56
(cgluon.html
TABLE
p65
g58
NtRp66
(dp67
g61
(dp68
S'level'
p69
I5
ssS'parent'
p70
Nsg63
(lp71
g56
(cgluon.html
TR
p72
g58
NtRp73
(dp74
g61
(dp75
sg70
g66
sg63
(lp76
g56
(cgluon.html
TD
p77
g58
NtRp78
(dp79
g61
(dp80
S'_style'
p81
S'font-weight:bold;'
p82
ssg70
g73
sg63
(lp83
S'ajax'
p84
asbag56
(g77
g58
NtRp85
(dp86
g61
(dp87
S'_valign'
p88
S'top'
p89
ssg70
g73
sg63
(lp90
S':'
asbag56
(g77
g58
NtRp91
(dp92
g61
(dp93
sg70
g73
sg63
(lp94
g56
(g57
g58
NtRp95
(dp96
g61
(dp97
g69
I5
ssg70
g91
sg63
(lp98
S'False'
p99
asbasbasbag56
(g72
g58
NtRp100
(dp101
g61
(dp102
sg70
g66
sg63
(lp103
g56
(g77
g58
NtRp104
(dp105
g61
(dp106
g81
g82
ssg70
g100
sg63
(lp107
S'application'
p108
asbag56
(g77
g58
NtRp109
(dp110
g61
(dp111
g88
g89
ssg70
g100
sg63
(lp112
S':'
asbag56
(g77
g58
NtRp113
(dp114
g61
(dp115
sg70
g100
sg63
(lp116
g56
(g57
g58
NtRp117
(dp118
g61
(dp119
g69
I5
ssg70
g113
sg63
(lp120
S'codeAct'
p121
asbasbasbag56
(g72
g58
NtRp122
(dp123
g61
(dp124
sg70
g66
sg63
(lp125
g56
(g77
g58
NtRp126
(dp127
g61
(dp128
g81
g82
ssg70
g122
sg63
(lp129
g41
asbag56
(g77
g58
NtRp130
(dp131
g61
(dp132
g88
g89
ssg70
g122
sg63
(lp133
S':'
asbag56
(g77
g58
NtRp134
(dp135
g61
(dp136
sg70
g122
sg63
(lp137
g56
(g57
g58
NtRp138
(dp139
g61
(dp140
g69
I5
ssg70
g134
sg63
(lp141
g56
(g65
g58
NtRp142
(dp143
g61
(dp144
g69
I4
ssg70
Nsg63
(lp145
sbasbasbasbag56
(g72
g58
NtRp146
(dp147
g61
(dp148
sg70
g66
sg63
(lp149
g56
(g77
g58
NtRp150
(dp151
g61
(dp152
g81
g82
ssg70
g146
sg63
(lp153
S'body'
p154
asbag56
(g77
g58
NtRp155
(dp156
g61
(dp157
g88
g89
ssg70
g146
sg63
(lp158
S':'
asbag56
(g77
g58
NtRp159
(dp160
g61
(dp161
sg70
g146
sg63
(lp162
g56
(g57
g58
NtRp163
(dp164
g61
(dp165
g69
I5
ssg70
g159
sg63
(lp166
S'<cStringIO.StringO object at 0x8fd1d80>'
p167
asbasbasbag56
(g72
g58
NtRp168
(dp169
g61
(dp170
sg70
g66
sg63
(lp171
g56
(g77
g58
NtRp172
(dp173
g61
(dp174
g81
g82
ssg70
g168
sg63
(lp175
S'client'
p176
asbag56
(g77
g58
NtRp177
(dp178
g61
(dp179
g88
g89
ssg70
g168
sg63
(lp180
S':'
asbag56
(g77
g58
NtRp181
(dp182
g61
(dp183
sg70
g168
sg63
(lp184
g56
(g57
g58
NtRp185
(dp186
g61
(dp187
g69
I5
ssg70
g181
sg63
(lp188
S'127.0.0.1'
p189
asbasbasbag56
(g72
g58
NtRp190
(dp191
g61
(dp192
sg70
g66
sg63
(lp193
g56
(g77
g58
NtRp194
(dp195
g61
(dp196
g81
g82
ssg70
g190
sg63
(lp197
S'controller'
p198
asbag56
(g77
g58
NtRp199
(dp200
g61
(dp201
g88
g89
ssg70
g190
sg63
(lp202
S':'
asbag56
(g77
g58
NtRp203
(dp204
g61
(dp205
sg70
g190
sg63
(lp206
g56
(g57
g58
NtRp207
(dp208
g61
(dp209
g69
I5
ssg70
g203
sg63
(lp210
S'ca_controller'
p211
asbasbasbag56
(g72
g58
NtRp212
(dp213
g61
(dp214
sg70
g66
sg63
(lp215
g56
(g77
g58
NtRp216
(dp217
g61
(dp218
g81
g82
ssg70
g212
sg63
(lp219
S'cookies'
p220
asbag56
(g77
g58
NtRp221
(dp222
g61
(dp223
g88
g89
ssg70
g212
sg63
(lp224
S':'
asbag56
(g77
g58
NtRp225
(dp226
g61
(dp227
sg70
g212
sg63
(lp228
g56
(g57
g58
NtRp229
(dp230
g61
(dp231
g69
I5
ssg70
g225
sg63
(lp232
g56
(g65
g58
NtRp233
(dp234
g61
(dp235
g69
I4
ssg70
Nsg63
(lp236
g56
(g72
g58
NtRp237
(dp238
g61
(dp239
sg70
g233
sg63
(lp240
g56
(g77
g58
NtRp241
(dp242
g61
(dp243
g81
g82
ssg70
g237
sg63
(lp244
S'session_id_admin'
p245
asbag56
(g77
g58
NtRp246
(dp247
g61
(dp248
g88
g89
ssg70
g237
sg63
(lp249
S':'
asbag56
(g77
g58
NtRp250
(dp251
g61
(dp252
sg70
g237
sg63
(lp253
g56
(g57
g58
NtRp254
(dp255
g61
(dp256
g69
I4
ssg70
g250
sg63
(lp257
g56
(g65
g58
NtRp258
(dp259
g61
(dp260
g69
I3
ssg70
Nsg63
(lp261
g56
(g72
g58
NtRp262
(dp263
g61
(dp264
sg70
g258
sg63
(lp265
g56
(g77
g58
NtRp266
(dp267
g61
(dp268
g81
g82
ssg70
g262
sg63
(lp269
S'comment'
p270
asbag56
(g77
g58
NtRp271
(dp272
g61
(dp273
g88
g89
ssg70
g262
sg63
(lp274
S':'
asbag56
(g77
g58
NtRp275
(dp276
g61
(dp277
sg70
g262
sg63
(lp278
g56
(g57
g58
NtRp279
(dp280
g61
(dp281
g69
I3
ssg70
g275
sg63
(lp282
S''
asbasbasbag56
(g72
g58
NtRp283
(dp284
g61
(dp285
sg70
g258
sg63
(lp286
g56
(g77
g58
NtRp287
(dp288
g61
(dp289
g81
g82
ssg70
g283
sg63
(lp290
S'domain'
p291
asbag56
(g77
g58
NtRp292
(dp293
g61
(dp294
g88
g89
ssg70
g283
sg63
(lp295
S':'
asbag56
(g77
g58
NtRp296
(dp297
g61
(dp298
sg70
g283
sg63
(lp299
g56
(g57
g58
NtRp300
(dp301
g61
(dp302
g69
I3
ssg70
g296
sg63
(lp303
S''
asbasbasbag56
(g72
g58
NtRp304
(dp305
g61
(dp306
sg70
g258
sg63
(lp307
g56
(g77
g58
NtRp308
(dp309
g61
(dp310
g81
g82
ssg70
g304
sg63
(lp311
S'expires'
p312
asbag56
(g77
g58
NtRp313
(dp314
g61
(dp315
g88
g89
ssg70
g304
sg63
(lp316
S':'
asbag56
(g77
g58
NtRp317
(dp318
g61
(dp319
sg70
g304
sg63
(lp320
g56
(g57
g58
NtRp321
(dp322
g61
(dp323
g69
I3
ssg70
g317
sg63
(lp324
S''
asbasbasbag56
(g72
g58
NtRp325
(dp326
g61
(dp327
sg70
g258
sg63
(lp328
g56
(g77
g58
NtRp329
(dp330
g61
(dp331
g81
g82
ssg70
g325
sg63
(lp332
S'httponly'
p333
asbag56
(g77
g58
NtRp334
(dp335
g61
(dp336
g88
g89
ssg70
g325
sg63
(lp337
S':'
asbag56
(g77
g58
NtRp338
(dp339
g61
(dp340
sg70
g325
sg63
(lp341
g56
(g57
g58
NtRp342
(dp343
g61
(dp344
g69
I3
ssg70
g338
sg63
(lp345
S''
asbasbasbag56
(g72
g58
NtRp346
(dp347
g61
(dp348
sg70
g258
sg63
(lp349
g56
(g77
g58
NtRp350
(dp351
g61
(dp352
g81
g82
ssg70
g346
sg63
(lp353
S'max-age'
p354
asbag56
(g77
g58
NtRp355
(dp356
g61
(dp357
g88
g89
ssg70
g346
sg63
(lp358
S':'
asbag56
(g77
g58
NtRp359
(dp360
g61
(dp361
sg70
g346
sg63
(lp362
g56
(g57
g58
NtRp363
(dp364
g61
(dp365
g69
I3
ssg70
g359
sg63
(lp366
S''
asbasbasbag56
(g72
g58
NtRp367
(dp368
g61
(dp369
sg70
g258
sg63
(lp370
g56
(g77
g58
NtRp371
(dp372
g61
(dp373
g81
g82
ssg70
g367
sg63
(lp374
S'path'
p375
asbag56
(g77
g58
NtRp376
(dp377
g61
(dp378
g88
g89
ssg70
g367
sg63
(lp379
S':'
asbag56
(g77
g58
NtRp380
(dp381
g61
(dp382
sg70
g367
sg63
(lp383
g56
(g57
g58
NtRp384
(dp385
g61
(dp386
g69
I3
ssg70
g380
sg63
(lp387
S''
asbasbasbag56
(g72
g58
NtRp388
(dp389
g61
(dp390
sg70
g258
sg63
(lp391
g56
(g77
g58
NtRp392
(dp393
g61
(dp394
g81
g82
ssg70
g388
sg63
(lp395
S'secure'
p396
asbag56
(g77
g58
NtRp397
(dp398
g61
(dp399
g88
g89
ssg70
g388
sg63
(lp400
S':'
asbag56
(g77
g58
NtRp401
(dp402
g61
(dp403
sg70
g388
sg63
(lp404
g56
(g57
g58
NtRp405
(dp406
g61
(dp407
g69
I3
ssg70
g401
sg63
(lp408
S''
asbasbasbag56
(g72
g58
NtRp409
(dp410
g61
(dp411
sg70
g258
sg63
(lp412
g56
(g77
g58
NtRp413
(dp414
g61
(dp415
g81
g82
ssg70
g409
sg63
(lp416
S'version'
p417
asbag56
(g77
g58
NtRp418
(dp419
g61
(dp420
g88
g89
ssg70
g409
sg63
(lp421
S':'
asbag56
(g77
g58
NtRp422
(dp423
g61
(dp424
sg70
g409
sg63
(lp425
g56
(g57
g58
NtRp426
(dp427
g61
(dp428
g69
I3
ssg70
g422
sg63
(lp429
S''
asbasbasbasbasbasbasbag56
(g72
g58
NtRp430
(dp431
g61
(dp432
sg70
g233
sg63
(lp433
g56
(g77
g58
NtRp434
(dp435
g61
(dp436
g81
g82
ssg70
g430
sg63
(lp437
S'session_id_codeact'
p438
asbag56
(g77
g58
NtRp439
(dp440
g61
(dp441
g88
g89
ssg70
g430
sg63
(lp442
S':'
asbag56
(g77
g58
NtRp443
(dp444
g61
(dp445
sg70
g430
sg63
(lp446
g56
(g57
g58
NtRp447
(dp448
g61
(dp449
g69
I4
ssg70
g443
sg63
(lp450
g56
(g65
g58
NtRp451
(dp452
g61
(dp453
g69
I3
ssg70
Nsg63
(lp454
g56
(g72
g58
NtRp455
(dp456
g61
(dp457
sg70
g451
sg63
(lp458
g56
(g77
g58
NtRp459
(dp460
g61
(dp461
g81
g82
ssg70
g455
sg63
(lp462
g270
asbag56
(g77
g58
NtRp463
(dp464
g61
(dp465
g88
g89
ssg70
g455
sg63
(lp466
S':'
asbag56
(g77
g58
NtRp467
(dp468
g61
(dp469
sg70
g455
sg63
(lp470
g56
(g57
g58
NtRp471
(dp472
g61
(dp473
g69
I3
ssg70
g467
sg63
(lp474
S''
asbasbasbag56
(g72
g58
NtRp475
(dp476
g61
(dp477
sg70
g451
sg63
(lp478
g56
(g77
g58
NtRp479
(dp480
g61
(dp481
g81
g82
ssg70
g475
sg63
(lp482
g291
asbag56
(g77
g58
NtRp483
(dp484
g61
(dp485
g88
g89
ssg70
g475
sg63
(lp486
S':'
asbag56
(g77
g58
NtRp487
(dp488
g61
(dp489
sg70
g475
sg63
(lp490
g56
(g57
g58
NtRp491
(dp492
g61
(dp493
g69
I3
ssg70
g487
sg63
(lp494
S''
asbasbasbag56
(g72
g58
NtRp495
(dp496
g61
(dp497
sg70
g451
sg63
(lp498
g56
(g77
g58
NtRp499
(dp500
g61
(dp501
g81
g82
ssg70
g495
sg63
(lp502
g312
asbag56
(g77
g58
NtRp503
(dp504
g61
(dp505
g88
g89
ssg70
g495
sg63
(lp506
S':'
asbag56
(g77
g58
NtRp507
(dp508
g61
(dp509
sg70
g495
sg63
(lp510
g56
(g57
g58
NtRp511
(dp512
g61
(dp513
g69
I3
ssg70
g507
sg63
(lp514
S''
asbasbasbag56
(g72
g58
NtRp515
(dp516
g61
(dp517
sg70
g451
sg63
(lp518
g56
(g77
g58
NtRp519
(dp520
g61
(dp521
g81
g82
ssg70
g515
sg63
(lp522
g333
asbag56
(g77
g58
NtRp523
(dp524
g61
(dp525
g88
g89
ssg70
g515
sg63
(lp526
S':'
asbag56
(g77
g58
NtRp527
(dp528
g61
(dp529
sg70
g515
sg63
(lp530
g56
(g57
g58
NtRp531
(dp532
g61
(dp533
g69
I3
ssg70
g527
sg63
(lp534
S''
asbasbasbag56
(g72
g58
NtRp535
(dp536
g61
(dp537
sg70
g451
sg63
(lp538
g56
(g77
g58
NtRp539
(dp540
g61
(dp541
g81
g82
ssg70
g535
sg63
(lp542
g354
asbag56
(g77
g58
NtRp543
(dp544
g61
(dp545
g88
g89
ssg70
g535
sg63
(lp546
S':'
asbag56
(g77
g58
NtRp547
(dp548
g61
(dp549
sg70
g535
sg63
(lp550
g56
(g57
g58
NtRp551
(dp552
g61
(dp553
g69
I3
ssg70
g547
sg63
(lp554
S''
asbasbasbag56
(g72
g58
NtRp555
(dp556
g61
(dp557
sg70
g451
sg63
(lp558
g56
(g77
g58
NtRp559
(dp560
g61
(dp561
g81
g82
ssg70
g555
sg63
(lp562
g375
asbag56
(g77
g58
NtRp563
(dp564
g61
(dp565
g88
g89
ssg70
g555
sg63
(lp566
S':'
asbag56
(g77
g58
NtRp567
(dp568
g61
(dp569
sg70
g555
sg63
(lp570
g56
(g57
g58
NtRp571
(dp572
g61
(dp573
g69
I3
ssg70
g567
sg63
(lp574
S''
asbasbasbag56
(g72
g58
NtRp575
(dp576
g61
(dp577
sg70
g451
sg63
(lp578
g56
(g77
g58
NtRp579
(dp580
g61
(dp581
g81
g82
ssg70
g575
sg63
(lp582
g396
asbag56
(g77
g58
NtRp583
(dp584
g61
(dp585
g88
g89
ssg70
g575
sg63
(lp586
S':'
asbag56
(g77
g58
NtRp587
(dp588
g61
(dp589
sg70
g575
sg63
(lp590
g56
(g57
g58
NtRp591
(dp592
g61
(dp593
g69
I3
ssg70
g587
sg63
(lp594
S''
asbasbasbag56
(g72
g58
NtRp595
(dp596
g61
(dp597
sg70
g451
sg63
(lp598
g56
(g77
g58
NtRp599
(dp600
g61
(dp601
g81
g82
ssg70
g595
sg63
(lp602
g417
asbag56
(g77
g58
NtRp603
(dp604
g61
(dp605
g88
g89
ssg70
g595
sg63
(lp606
S':'
asbag56
(g77
g58
NtRp607
(dp608
g61
(dp609
sg70
g595
sg63
(lp610
g56
(g57
g58
NtRp611
(dp612
g61
(dp613
g69
I3
ssg70
g607
sg63
(lp614
S''
asbasbasbasbasbasbasbasbasbasbasbag56
(g72
g58
NtRp615
(dp616
g61
(dp617
sg70
g66
sg63
(lp618
g56
(g77
g58
NtRp619
(dp620
g61
(dp621
g81
g82
ssg70
g615
sg63
(lp622
S'env'
p623
asbag56
(g77
g58
NtRp624
(dp625
g61
(dp626
g88
g89
ssg70
g615
sg63
(lp627
S':'
asbag56
(g77
g58
NtRp628
(dp629
g61
(dp630
sg70
g615
sg63
(lp631
g56
(g57
g58
NtRp632
(dp633
g61
(dp634
g69
I5
ssg70
g628
sg63
(lp635
g56
(g65
g58
NtRp636
(dp637
g61
(dp638
g69
I4
ssg70
Nsg63
(lp639
g56
(g72
g58
NtRp640
(dp641
g61
(dp642
sg70
g636
sg63
(lp643
g56
(g77
g58
NtRp644
(dp645
g61
(dp646
g81
g82
ssg70
g640
sg63
(lp647
S'app_folders'
p648
asbag56
(g77
g58
NtRp649
(dp650
g61
(dp651
g88
g89
ssg70
g640
sg63
(lp652
S':'
asbag56
(g77
g58
NtRp653
(dp654
g61
(dp655
sg70
g640
sg63
(lp656
g56
(g57
g58
NtRp657
(dp658
g61
(dp659
g69
I4
ssg70
g653
sg63
(lp660
S"set(['/home/jacobbl/SENG265/pe2/codeAct_1.01/web2py/applications/codeAct/', '/home/jacobbl/SENG265/pe2/codeAct_1.01/web2py/applications/admin/'])"
p661
asbasbasbag56
(g72
g58
NtRp662
(dp663
g61
(dp664
sg70
g636
sg63
(lp665
g56
(g77
g58
NtRp666
(dp667
g61
(dp668
g81
g82
ssg70
g662
sg63
(lp669
S'applications_parent'
p670
asbag56
(g77
g58
NtRp671
(dp672
g61
(dp673
g88
g89
ssg70
g662
sg63
(lp674
S':'
asbag56
(g77
g58
NtRp675
(dp676
g61
(dp677
sg70
g662
sg63
(lp678
g56
(g57
g58
NtRp679
(dp680
g61
(dp681
g69
I4
ssg70
g675
sg63
(lp682
S'/home/jacobbl/SENG265/pe2/codeAct_1.01/web2py'
p683
asbasbasbag56
(g72
g58
NtRp684
(dp685
g61
(dp686
sg70
g636
sg63
(lp687
g56
(g77
g58
NtRp688
(dp689
g61
(dp690
g81
g82
ssg70
g684
sg63
(lp691
S'cmd_args'
p692
asbag56
(g77
g58
NtRp693
(dp694
g61
(dp695
g88
g89
ssg70
g684
sg63
(lp696
S':'
asbag56
(g77
g58
NtRp697
(dp698
g61
(dp699
sg70
g684
sg63
(lp700
g56
(g57
g58
NtRp701
(dp702
g61
(dp703
g69
I4
ssg70
g697
sg63
(lp704
g56
(g65
g58
NtRp705
(dp706
g61
(dp707
g69
I3
ssg70
Nsg63
(lp708
sbasbasbasbag56
(g72
g58
NtRp709
(dp710
g61
(dp711
sg70
g636
sg63
(lp712
g56
(g77
g58
NtRp713
(dp714
g61
(dp715
g81
g82
ssg70
g709
sg63
(lp716
S'cmd_options'
p717
asbag56
(g77
g58
NtRp718
(dp719
g61
(dp720
g88
g89
ssg70
g709
sg63
(lp721
S':'
asbag56
(g77
g58
NtRp722
(dp723
g61
(dp724
sg70
g709
sg63
(lp725
g56
(g57
g58
NtRp726
(dp727
g61
(dp728
g69
I4
ssg70
g722
sg63
(lp729
S"<Values at 0x8e2e24c: {'verbose': False, 'ip': '127.0.0.1', 'shutdown_timeout': 5, 'taskbar': False, 'port': 8080, 'maxthreads': None, 'softcron': False, 'server_name': 'c74', 'bpython': False, 'nogui': False, 'nocron': False, 'extcron': False, 'debuglevel': 30, 'test': None, 'folder': '/home/jacobbl/SENG265/pe2/codeAct_1.01/web2py', 'config': '', 'import_models': False, 'winservice': '', 'shell': None, 'run': '', 'log_filename': 'httpserver.log', 'args': [''], 'profiler_filename': None, 'ssl_private_key': '', 'password': 'password', 'request_queue_size': 5, 'ssl_certificate': '', 'cronjob': False, 'plain': False, 'quiet': False, 'interfaces': None, 'minthreads': None, 'timeout': 10, 'numthreads': None, 'pid_filename': 'httpserver.pid'}>"
p730
asbasbasbag56
(g72
g58
NtRp731
(dp732
g61
(dp733
sg70
g636
sg63
(lp734
g56
(g77
g58
NtRp735
(dp736
g61
(dp737
g81
g82
ssg70
g731
sg63
(lp738
S'db_sessions'
p739
asbag56
(g77
g58
NtRp740
(dp741
g61
(dp742
g88
g89
ssg70
g731
sg63
(lp743
S':'
asbag56
(g77
g58
NtRp744
(dp745
g61
(dp746
sg70
g731
sg63
(lp747
g56
(g57
g58
NtRp748
(dp749
g61
(dp750
g69
I4
ssg70
g744
sg63
(lp751
S'set([])'
p752
asbasbasbag56
(g72
g58
NtRp753
(dp754
g61
(dp755
sg70
g636
sg63
(lp756
g56
(g77
g58
NtRp757
(dp758
g61
(dp759
g81
g82
ssg70
g753
sg63
(lp760
S'debugging'
p761
asbag56
(g77
g58
NtRp762
(dp763
g61
(dp764
g88
g89
ssg70
g753
sg63
(lp765
S':'
asbag56
(g77
g58
NtRp766
(dp767
g61
(dp768
sg70
g753
sg63
(lp769
g56
(g57
g58
NtRp770
(dp771
g61
(dp772
g69
I4
ssg70
g766
sg63
(lp773
g99
asbasbasbag56
(g72
g58
NtRp774
(dp775
g61
(dp776
sg70
g636
sg63
(lp777
g56
(g77
g58
NtRp778
(dp779
g61
(dp780
g81
g82
ssg70
g774
sg63
(lp781
S'gluon_parent'
p782
asbag56
(g77
g58
NtRp783
(dp784
g61
(dp785
g88
g89
ssg70
g774
sg63
(lp786
S':'
asbag56
(g77
g58
NtRp787
(dp788
g61
(dp789
sg70
g774
sg63
(lp790
g56
(g57
g58
NtRp791
(dp792
g61
(dp793
g69
I4
ssg70
g787
sg63
(lp794
S'/home/jacobbl/SENG265/pe2/codeAct_1.01/web2py'
p795
asbasbasbag56
(g72
g58
NtRp796
(dp797
g61
(dp798
sg70
g636
sg63
(lp799
g56
(g77
g58
NtRp800
(dp801
g61
(dp802
g81
g82
ssg70
g796
sg63
(lp803
S'http_accept'
p804
asbag56
(g77
g58
NtRp805
(dp806
g61
(dp807
g88
g89
ssg70
g796
sg63
(lp808
S':'
asbag56
(g77
g58
NtRp809
(dp810
g61
(dp811
sg70
g796
sg63
(lp812
g56
(g57
g58
NtRp813
(dp814
g61
(dp815
g69
I4
ssg70
g809
sg63
(lp816
S'text/html,application/xhtml+xml,application/xml;q=0.9,*/*;q=0.8'
p817
asbasbasbag56
(g72
g58
NtRp818
(dp819
g61
(dp820
sg70
g636
sg63
(lp821
g56
(g77
g58
NtRp822
(dp823
g61
(dp824
g81
g82
ssg70
g818
sg63
(lp825
S'http_accept_charset'
p826
asbag56
(g77
g58
NtRp827
(dp828
g61
(dp829
g88
g89
ssg70
g818
sg63
(lp830
S':'
asbag56
(g77
g58
NtRp831
(dp832
g61
(dp833
sg70
g818
sg63
(lp834
g56
(g57
g58
NtRp835
(dp836
g61
(dp837
g69
I4
ssg70
g831
sg63
(lp838
S'ISO-8859-1,utf-8;q=0.7,*;q=0.7'
p839
asbasbasbag56
(g72
g58
NtRp840
(dp841
g61
(dp842
sg70
g636
sg63
(lp843
g56
(g77
g58
NtRp844
(dp845
g61
(dp846
g81
g82
ssg70
g840
sg63
(lp847
S'http_accept_encoding'
p848
asbag56
(g77
g58
NtRp849
(dp850
g61
(dp851
g88
g89
ssg70
g840
sg63
(lp852
S':'
asbag56
(g77
g58
NtRp853
(dp854
g61
(dp855
sg70
g840
sg63
(lp856
g56
(g57
g58
NtRp857
(dp858
g61
(dp859
g69
I4
ssg70
g853
sg63
(lp860
S'gzip,deflate'
p861
asbasbasbag56
(g72
g58
NtRp862
(dp863
g61
(dp864
sg70
g636
sg63
(lp865
g56
(g77
g58
NtRp866
(dp867
g61
(dp868
g81
g82
ssg70
g862
sg63
(lp869
S'http_accept_language'
p870
asbag56
(g77
g58
NtRp871
(dp872
g61
(dp873
g88
g89
ssg70
g862
sg63
(lp874
S':'
asbag56
(g77
g58
NtRp875
(dp876
g61
(dp877
sg70
g862
sg63
(lp878
g56
(g57
g58
NtRp879
(dp880
g61
(dp881
g69
I4
ssg70
g875
sg63
(lp882
S'en-us,en;q=0.5'
p883
asbasbasbag56
(g72
g58
NtRp884
(dp885
g61
(dp886
sg70
g636
sg63
(lp887
g56
(g77
g58
NtRp888
(dp889
g61
(dp890
g81
g82
ssg70
g884
sg63
(lp891
S'http_connection'
p892
asbag56
(g77
g58
NtRp893
(dp894
g61
(dp895
g88
g89
ssg70
g884
sg63
(lp896
S':'
asbag56
(g77
g58
NtRp897
(dp898
g61
(dp899
sg70
g884
sg63
(lp900
g56
(g57
g58
NtRp901
(dp902
g61
(dp903
g69
I4
ssg70
g897
sg63
(lp904
S'keep-alive'
p905
asbasbasbag56
(g72
g58
NtRp906
(dp907
g61
(dp908
sg70
g636
sg63
(lp909
g56
(g77
g58
NtRp910
(dp911
g61
(dp912
g81
g82
ssg70
g906
sg63
(lp913
S'http_cookie'
p914
asbag56
(g77
g58
NtRp915
(dp916
g61
(dp917
g88
g89
ssg70
g906
sg63
(lp918
S':'
asbag56
(g77
g58
NtRp919
(dp920
g61
(dp921
sg70
g906
sg63
(lp922
g56
(g57
g58
NtRp923
(dp924
g61
(dp925
g69
I4
ssg70
g919
sg63
(lp926
S'session_id_codeact=127.0.0.1-919396c9-dffc-4b6e-bb96-f08da977b37b; session_id_admin=127.0.0.1-c5c2ca46-6917-4f3e-b4fe-855769b138af'
p927
asbasbasbag56
(g72
g58
NtRp928
(dp929
g61
(dp930
sg70
g636
sg63
(lp931
g56
(g77
g58
NtRp932
(dp933
g61
(dp934
g81
g82
ssg70
g928
sg63
(lp935
S'http_host'
p936
asbag56
(g77
g58
NtRp937
(dp938
g61
(dp939
g88
g89
ssg70
g928
sg63
(lp940
S':'
asbag56
(g77
g58
NtRp941
(dp942
g61
(dp943
sg70
g928
sg63
(lp944
g56
(g57
g58
NtRp945
(dp946
g61
(dp947
g69
I4
ssg70
g941
sg63
(lp948
S'localhost:8080'
p949
asbasbasbag56
(g72
g58
NtRp950
(dp951
g61
(dp952
sg70
g636
sg63
(lp953
g56
(g77
g58
NtRp954
(dp955
g61
(dp956
g81
g82
ssg70
g950
sg63
(lp957
S'http_keep_alive'
p958
asbag56
(g77
g58
NtRp959
(dp960
g61
(dp961
g88
g89
ssg70
g950
sg63
(lp962
S':'
asbag56
(g77
g58
NtRp963
(dp964
g61
(dp965
sg70
g950
sg63
(lp966
g56
(g57
g58
NtRp967
(dp968
g61
(dp969
g69
I4
ssg70
g963
sg63
(lp970
S'115'
p971
asbasbasbag56
(g72
g58
NtRp972
(dp973
g61
(dp974
sg70
g636
sg63
(lp975
g56
(g77
g58
NtRp976
(dp977
g61
(dp978
g81
g82
ssg70
g972
sg63
(lp979
S'http_user_agent'
p980
asbag56
(g77
g58
NtRp981
(dp982
g61
(dp983
g88
g89
ssg70
g972
sg63
(lp984
S':'
asbag56
(g77
g58
NtRp985
(dp986
g61
(dp987
sg70
g972
sg63
(lp988
g56
(g57
g58
NtRp989
(dp990
g61
(dp991
g69
I4
ssg70
g985
sg63
(lp992
S'Mozilla/5.0 (X11; U; Linux i686; en-US; rv:1.9.2.17) Gecko/20110422 Ubuntu/10.04 (lucid) Firefox/3.6.17'
p993
asbasbasbag56
(g72
g58
NtRp994
(dp995
g61
(dp996
sg70
g636
sg63
(lp997
g56
(g77
g58
NtRp998
(dp999
g61
(dp1000
g81
g82
ssg70
g994
sg63
(lp1001
S'path_info'
p1002
asbag56
(g77
g58
NtRp1003
(dp1004
g61
(dp1005
g88
g89
ssg70
g994
sg63
(lp1006
S':'
asbag56
(g77
g58
NtRp1007
(dp1008
g61
(dp1009
sg70
g994
sg63
(lp1010
g56
(g57
g58
NtRp1011
(dp1012
g61
(dp1013
g69
I4
ssg70
g1007
sg63
(lp1014
S'/codeAct/ca_controller/quiz.html'
p1015
asbasbasbag56
(g72
g58
NtRp1016
(dp1017
g61
(dp1018
sg70
g636
sg63
(lp1019
g56
(g77
g58
NtRp1020
(dp1021
g61
(dp1022
g81
g82
ssg70
g1016
sg63
(lp1023
S'query_string'
p1024
asbag56
(g77
g58
NtRp1025
(dp1026
g61
(dp1027
g88
g89
ssg70
g1016
sg63
(lp1028
S':'
asbag56
(g77
g58
NtRp1029
(dp1030
g61
(dp1031
sg70
g1016
sg63
(lp1032
g56
(g57
g58
NtRp1033
(dp1034
g61
(dp1035
g69
I4
ssg70
g1029
sg63
(lp1036
S'quiz_spec=../quiz_specs/sort_quiz_spec'
p1037
asbasbasbag56
(g72
g58
NtRp1038
(dp1039
g61
(dp1040
sg70
g636
sg63
(lp1041
g56
(g77
g58
NtRp1042
(dp1043
g61
(dp1044
g81
g82
ssg70
g1038
sg63
(lp1045
S'remote_addr'
p1046
asbag56
(g77
g58
NtRp1047
(dp1048
g61
(dp1049
g88
g89
ssg70
g1038
sg63
(lp1050
S':'
asbag56
(g77
g58
NtRp1051
(dp1052
g61
(dp1053
sg70
g1038
sg63
(lp1054
g56
(g57
g58
NtRp1055
(dp1056
g61
(dp1057
g69
I4
ssg70
g1051
sg63
(lp1058
g189
asbasbasbag56
(g72
g58
NtRp1059
(dp1060
g61
(dp1061
sg70
g636
sg63
(lp1062
g56
(g77
g58
NtRp1063
(dp1064
g61
(dp1065
g81
g82
ssg70
g1059
sg63
(lp1066
S'remote_port'
p1067
asbag56
(g77
g58
NtRp1068
(dp1069
g61
(dp1070
g88
g89
ssg70
g1059
sg63
(lp1071
S':'
asbag56
(g77
g58
NtRp1072
(dp1073
g61
(dp1074
sg70
g1059
sg63
(lp1075
g56
(g57
g58
NtRp1076
(dp1077
g61
(dp1078
g69
I4
ssg70
g1072
sg63
(lp1079
S'33780'
p1080
asbasbasbag56
(g72
g58
NtRp1081
(dp1082
g61
(dp1083
sg70
g636
sg63
(lp1084
g56
(g77
g58
NtRp1085
(dp1086
g61
(dp1087
g81
g82
ssg70
g1081
sg63
(lp1088
S'request_method'
p1089
asbag56
(g77
g58
NtRp1090
(dp1091
g61
(dp1092
g88
g89
ssg70
g1081
sg63
(lp1093
S':'
asbag56
(g77
g58
NtRp1094
(dp1095
g61
(dp1096
sg70
g1081
sg63
(lp1097
g56
(g57
g58
NtRp1098
(dp1099
g61
(dp1100
g69
I4
ssg70
g1094
sg63
(lp1101
S'GET'
p1102
asbasbasbag56
(g72
g58
NtRp1103
(dp1104
g61
(dp1105
sg70
g636
sg63
(lp1106
g56
(g77
g58
NtRp1107
(dp1108
g61
(dp1109
g81
g82
ssg70
g1103
sg63
(lp1110
S'script_name'
p1111
asbag56
(g77
g58
NtRp1112
(dp1113
g61
(dp1114
g88
g89
ssg70
g1103
sg63
(lp1115
S':'
asbag56
(g77
g58
NtRp1116
(dp1117
g61
(dp1118
sg70
g1103
sg63
(lp1119
g56
(g57
g58
NtRp1120
(dp1121
g61
(dp1122
g69
I4
ssg70
g1116
sg63
(lp1123
S''
asbasbasbag56
(g72
g58
NtRp1124
(dp1125
g61
(dp1126
sg70
g636
sg63
(lp1127
g56
(g77
g58
NtRp1128
(dp1129
g61
(dp1130
g81
g82
ssg70
g1124
sg63
(lp1131
S'server_name'
p1132
asbag56
(g77
g58
NtRp1133
(dp1134
g61
(dp1135
g88
g89
ssg70
g1124
sg63
(lp1136
S':'
asbag56
(g77
g58
NtRp1137
(dp1138
g61
(dp1139
sg70
g1124
sg63
(lp1140
g56
(g57
g58
NtRp1141
(dp1142
g61
(dp1143
g69
I4
ssg70
g1137
sg63
(lp1144
S'c74'
p1145
asbasbasbag56
(g72
g58
NtRp1146
(dp1147
g61
(dp1148
sg70
g636
sg63
(lp1149
g56
(g77
g58
NtRp1150
(dp1151
g61
(dp1152
g81
g82
ssg70
g1146
sg63
(lp1153
S'server_port'
p1154
asbag56
(g77
g58
NtRp1155
(dp1156
g61
(dp1157
g88
g89
ssg70
g1146
sg63
(lp1158
S':'
asbag56
(g77
g58
NtRp1159
(dp1160
g61
(dp1161
sg70
g1146
sg63
(lp1162
g56
(g57
g58
NtRp1163
(dp1164
g61
(dp1165
g69
I4
ssg70
g1159
sg63
(lp1166
S'8080'
p1167
asbasbasbag56
(g72
g58
NtRp1168
(dp1169
g61
(dp1170
sg70
g636
sg63
(lp1171
g56
(g77
g58
NtRp1172
(dp1173
g61
(dp1174
g81
g82
ssg70
g1168
sg63
(lp1175
S'server_protocol'
p1176
asbag56
(g77
g58
NtRp1177
(dp1178
g61
(dp1179
g88
g89
ssg70
g1168
sg63
(lp1180
S':'
asbag56
(g77
g58
NtRp1181
(dp1182
g61
(dp1183
sg70
g1168
sg63
(lp1184
g56
(g57
g58
NtRp1185
(dp1186
g61
(dp1187
g69
I4
ssg70
g1181
sg63
(lp1188
S'HTTP/1.1'
p1189
asbasbasbag56
(g72
g58
NtRp1190
(dp1191
g61
(dp1192
sg70
g636
sg63
(lp1193
g56
(g77
g58
NtRp1194
(dp1195
g61
(dp1196
g81
g82
ssg70
g1190
sg63
(lp1197
S'server_software'
p1198
asbag56
(g77
g58
NtRp1199
(dp1200
g61
(dp1201
g88
g89
ssg70
g1190
sg63
(lp1202
S':'
asbag56
(g77
g58
NtRp1203
(dp1204
g61
(dp1205
sg70
g1190
sg63
(lp1206
g56
(g57
g58
NtRp1207
(dp1208
g61
(dp1209
g69
I4
ssg70
g1203
sg63
(lp1210
S'Rocket 1.2.2'
p1211
asbasbasbag56
(g72
g58
NtRp1212
(dp1213
g61
(dp1214
sg70
g636
sg63
(lp1215
g56
(g77
g58
NtRp1216
(dp1217
g61
(dp1218
g81
g82
ssg70
g1212
sg63
(lp1219
S'web2py_crontype'
p1220
asbag56
(g77
g58
NtRp1221
(dp1222
g61
(dp1223
g88
g89
ssg70
g1212
sg63
(lp1224
S':'
asbag56
(g77
g58
NtRp1225
(dp1226
g61
(dp1227
sg70
g1212
sg63
(lp1228
g56
(g57
g58
NtRp1229
(dp1230
g61
(dp1231
g69
I4
ssg70
g1225
sg63
(lp1232
S'hard'
p1233
asbasbasbag56
(g72
g58
NtRp1234
(dp1235
g61
(dp1236
sg70
g636
sg63
(lp1237
g56
(g77
g58
NtRp1238
(dp1239
g61
(dp1240
g81
g82
ssg70
g1234
sg63
(lp1241
S'web2py_path'
p1242
asbag56
(g77
g58
NtRp1243
(dp1244
g61
(dp1245
g88
g89
ssg70
g1234
sg63
(lp1246
S':'
asbag56
(g77
g58
NtRp1247
(dp1248
g61
(dp1249
sg70
g1234
sg63
(lp1250
g56
(g57
g58
NtRp1251
(dp1252
g61
(dp1253
g69
I4
ssg70
g1247
sg63
(lp1254
g683
asbasbasbag56
(g72
g58
NtRp1255
(dp1256
g61
(dp1257
sg70
g636
sg63
(lp1258
g56
(g77
g58
NtRp1259
(dp1260
g61
(dp1261
g81
g82
ssg70
g1255
sg63
(lp1262
S'web2py_version'
p1263
asbag56
(g77
g58
NtRp1264
(dp1265
g61
(dp1266
g88
g89
ssg70
g1255
sg63
(lp1267
S':'
asbag56
(g77
g58
NtRp1268
(dp1269
g61
(dp1270
sg70
g1255
sg63
(lp1271
g56
(g57
g58
NtRp1272
(dp1273
g61
(dp1274
g69
I4
ssg70
g1268
sg63
(lp1275
S'Version 1.95.1 (2011-04-25 15:04:14)\n'
p1276
asbasbasbag56
(g72
g58
NtRp1277
(dp1278
g61
(dp1279
sg70
g636
sg63
(lp1280
g56
(g77
g58
NtRp1281
(dp1282
g61
(dp1283
g81
g82
ssg70
g1277
sg63
(lp1284
S'wsgi_errors'
p1285
asbag56
(g77
g58
NtRp1286
(dp1287
g61
(dp1288
g88
g89
ssg70
g1277
sg63
(lp1289
S':'
asbag56
(g77
g58
NtRp1290
(dp1291
g61
(dp1292
sg70
g1277
sg63
(lp1293
g56
(g57
g58
NtRp1294
(dp1295
g61
(dp1296
g69
I4
ssg70
g1290
sg63
(lp1297
S"<open file '<stderr>', mode 'w' at 0xb78440d0>"
p1298
asbasbasbag56
(g72
g58
NtRp1299
(dp1300
g61
(dp1301
sg70
g636
sg63
(lp1302
g56
(g77
g58
NtRp1303
(dp1304
g61
(dp1305
g81
g82
ssg70
g1299
sg63
(lp1306
S'wsgi_file_wrapper'
p1307
asbag56
(g77
g58
NtRp1308
(dp1309
g61
(dp1310
g88
g89
ssg70
g1299
sg63
(lp1311
S':'
asbag56
(g77
g58
NtRp1312
(dp1313
g61
(dp1314
sg70
g1299
sg63
(lp1315
g56
(g57
g58
NtRp1316
(dp1317
g61
(dp1318
g69
I4
ssg70
g1312
sg63
(lp1319
S'<class gluon.rocket.FileWrapper at 0x8d8d44c>'
p1320
asbasbasbag56
(g72
g58
NtRp1321
(dp1322
g61
(dp1323
sg70
g636
sg63
(lp1324
g56
(g77
g58
NtRp1325
(dp1326
g61
(dp1327
g81
g82
ssg70
g1321
sg63
(lp1328
S'wsgi_input'
p1329
asbag56
(g77
g58
NtRp1330
(dp1331
g61
(dp1332
g88
g89
ssg70
g1321
sg63
(lp1333
S':'
asbag56
(g77
g58
NtRp1334
(dp1335
g61
(dp1336
sg70
g1321
sg63
(lp1337
g56
(g57
g58
NtRp1338
(dp1339
g61
(dp1340
g69
I4
ssg70
g1334
sg63
(lp1341
S'<socket._fileobject object at 0x8f87fac>'
p1342
asbasbasbag56
(g72
g58
NtRp1343
(dp1344
g61
(dp1345
sg70
g636
sg63
(lp1346
g56
(g77
g58
NtRp1347
(dp1348
g61
(dp1349
g81
g82
ssg70
g1343
sg63
(lp1350
S'wsgi_multiprocess'
p1351
asbag56
(g77
g58
NtRp1352
(dp1353
g61
(dp1354
g88
g89
ssg70
g1343
sg63
(lp1355
S':'
asbag56
(g77
g58
NtRp1356
(dp1357
g61
(dp1358
sg70
g1343
sg63
(lp1359
g56
(g57
g58
NtRp1360
(dp1361
g61
(dp1362
g69
I4
ssg70
g1356
sg63
(lp1363
g99
asbasbasbag56
(g72
g58
NtRp1364
(dp1365
g61
(dp1366
sg70
g636
sg63
(lp1367
g56
(g77
g58
NtRp1368
(dp1369
g61
(dp1370
g81
g82
ssg70
g1364
sg63
(lp1371
S'wsgi_multithread'
p1372
asbag56
(g77
g58
NtRp1373
(dp1374
g61
(dp1375
g88
g89
ssg70
g1364
sg63
(lp1376
S':'
asbag56
(g77
g58
NtRp1377
(dp1378
g61
(dp1379
sg70
g1364
sg63
(lp1380
g56
(g57
g58
NtRp1381
(dp1382
g61
(dp1383
g69
I4
ssg70
g1377
sg63
(lp1384
S'True'
p1385
asbasbasbag56
(g72
g58
NtRp1386
(dp1387
g61
(dp1388
sg70
g636
sg63
(lp1389
g56
(g77
g58
NtRp1390
(dp1391
g61
(dp1392
g81
g82
ssg70
g1386
sg63
(lp1393
S'wsgi_run_once'
p1394
asbag56
(g77
g58
NtRp1395
(dp1396
g61
(dp1397
g88
g89
ssg70
g1386
sg63
(lp1398
S':'
asbag56
(g77
g58
NtRp1399
(dp1400
g61
(dp1401
sg70
g1386
sg63
(lp1402
g56
(g57
g58
NtRp1403
(dp1404
g61
(dp1405
g69
I4
ssg70
g1399
sg63
(lp1406
g99
asbasbasbag56
(g72
g58
NtRp1407
(dp1408
g61
(dp1409
sg70
g636
sg63
(lp1410
g56
(g77
g58
NtRp1411
(dp1412
g61
(dp1413
g81
g82
ssg70
g1407
sg63
(lp1414
S'wsgi_url_scheme'
p1415
asbag56
(g77
g58
NtRp1416
(dp1417
g61
(dp1418
g88
g89
ssg70
g1407
sg63
(lp1419
S':'
asbag56
(g77
g58
NtRp1420
(dp1421
g61
(dp1422
sg70
g1407
sg63
(lp1423
g56
(g57
g58
NtRp1424
(dp1425
g61
(dp1426
g69
I4
ssg70
g1420
sg63
(lp1427
S'http'
p1428
asbasbasbag56
(g72
g58
NtRp1429
(dp1430
g61
(dp1431
sg70
g636
sg63
(lp1432
g56
(g77
g58
NtRp1433
(dp1434
g61
(dp1435
g81
g82
ssg70
g1429
sg63
(lp1436
S'wsgi_version'
p1437
asbag56
(g77
g58
NtRp1438
(dp1439
g61
(dp1440
g88
g89
ssg70
g1429
sg63
(lp1441
S':'
asbag56
(g77
g58
NtRp1442
(dp1443
g61
(dp1444
sg70
g1429
sg63
(lp1445
g56
(g57
g58
NtRp1446
(dp1447
g61
(dp1448
g69
I4
ssg70
g1442
sg63
(lp1449
g56
(g65
g58
NtRp1450
(dp1451
g61
(dp1452
g69
I3
ssg70
Nsg63
(lp1453
g56
(g72
g58
NtRp1454
(dp1455
g61
(dp1456
sg70
g1450
sg63
(lp1457
g56
(g77
g58
NtRp1458
(dp1459
g61
(dp1460
sg70
g1454
sg63
(lp1461
g56
(g57
g58
NtRp1462
(dp1463
g61
(dp1464
g69
I3
ssg70
g1458
sg63
(lp1465
S'1'
asbasbasbag56
(g72
g58
NtRp1466
(dp1467
g61
(dp1468
sg70
g1450
sg63
(lp1469
g56
(g77
g58
NtRp1470
(dp1471
g61
(dp1472
sg70
g1466
sg63
(lp1473
g56
(g57
g58
NtRp1474
(dp1475
g61
(dp1476
g69
I3
ssg70
g1470
sg63
(lp1477
S'0'
asbasbasbasbasbasbasbasbasbasbasbag56
(g72
g58
NtRp1478
(dp1479
g61
(dp1480
sg70
g66
sg63
(lp1481
g56
(g77
g58
NtRp1482
(dp1483
g61
(dp1484
g81
g82
ssg70
g1478
sg63
(lp1485
S'extension'
p1486
asbag56
(g77
g58
NtRp1487
(dp1488
g61
(dp1489
g88
g89
ssg70
g1478
sg63
(lp1490
S':'
asbag56
(g77
g58
NtRp1491
(dp1492
g61
(dp1493
sg70
g1478
sg63
(lp1494
g56
(g57
g58
NtRp1495
(dp1496
g61
(dp1497
g69
I5
ssg70
g1491
sg63
(lp1498
S'html'
p1499
asbasbasbag56
(g72
g58
NtRp1500
(dp1501
g61
(dp1502
sg70
g66
sg63
(lp1503
g56
(g77
g58
NtRp1504
(dp1505
g61
(dp1506
g81
g82
ssg70
g1500
sg63
(lp1507
S'folder'
p1508
asbag56
(g77
g58
NtRp1509
(dp1510
g61
(dp1511
g88
g89
ssg70
g1500
sg63
(lp1512
S':'
asbag56
(g77
g58
NtRp1513
(dp1514
g61
(dp1515
sg70
g1500
sg63
(lp1516
g56
(g57
g58
NtRp1517
(dp1518
g61
(dp1519
g69
I5
ssg70
g1513
sg63
(lp1520
S'/home/jacobbl/SENG265/pe2/codeAct_1.01/web2py/applications/codeAct/'
p1521
asbasbasbag56
(g72
g58
NtRp1522
(dp1523
g61
(dp1524
sg70
g66
sg63
(lp1525
g56
(g77
g58
NtRp1526
(dp1527
g61
(dp1528
g81
g82
ssg70
g1522
sg63
(lp1529
S'function'
p1530
asbag56
(g77
g58
NtRp1531
(dp1532
g61
(dp1533
g88
g89
ssg70
g1522
sg63
(lp1534
S':'
asbag56
(g77
g58
NtRp1535
(dp1536
g61
(dp1537
sg70
g1522
sg63
(lp1538
g56
(g57
g58
NtRp1539
(dp1540
g61
(dp1541
g69
I5
ssg70
g1535
sg63
(lp1542
S'quiz'
p1543
asbasbasbag56
(g72
g58
NtRp1544
(dp1545
g61
(dp1546
sg70
g66
sg63
(lp1547
g56
(g77
g58
NtRp1548
(dp1549
g61
(dp1550
g81
g82
ssg70
g1544
sg63
(lp1551
S'get_vars'
p1552
asbag56
(g77
g58
NtRp1553
(dp1554
g61
(dp1555
g88
g89
ssg70
g1544
sg63
(lp1556
S':'
asbag56
(g77
g58
NtRp1557
(dp1558
g61
(dp1559
sg70
g1544
sg63
(lp1560
g56
(g57
g58
NtRp1561
(dp1562
g61
(dp1563
g69
I5
ssg70
g1557
sg63
(lp1564
g56
(g65
g58
NtRp1565
(dp1566
g61
(dp1567
g69
I4
ssg70
Nsg63
(lp1568
g56
(g72
g58
NtRp1569
(dp1570
g61
(dp1571
sg70
g1565
sg63
(lp1572
g56
(g77
g58
NtRp1573
(dp1574
g61
(dp1575
g81
g82
ssg70
g1569
sg63
(lp1576
S'quiz_spec'
p1577
asbag56
(g77
g58
NtRp1578
(dp1579
g61
(dp1580
g88
g89
ssg70
g1569
sg63
(lp1581
S':'
asbag56
(g77
g58
NtRp1582
(dp1583
g61
(dp1584
sg70
g1569
sg63
(lp1585
g56
(g57
g58
NtRp1586
(dp1587
g61
(dp1588
g69
I4
ssg70
g1582
sg63
(lp1589
S'../quiz_specs/sort_quiz_spec'
p1590
asbasbasbasbasbasbasbag56
(g72
g58
NtRp1591
(dp1592
g61
(dp1593
sg70
g66
sg63
(lp1594
g56
(g77
g58
NtRp1595
(dp1596
g61
(dp1597
g81
g82
ssg70
g1591
sg63
(lp1598
S'is_restful'
p1599
asbag56
(g77
g58
NtRp1600
(dp1601
g61
(dp1602
g88
g89
ssg70
g1591
sg63
(lp1603
S':'
asbag56
(g77
g58
NtRp1604
(dp1605
g61
(dp1606
sg70
g1591
sg63
(lp1607
g56
(g57
g58
NtRp1608
(dp1609
g61
(dp1610
g69
I5
ssg70
g1604
sg63
(lp1611
g99
asbasbasbag56
(g72
g58
NtRp1612
(dp1613
g61
(dp1614
sg70
g66
sg63
(lp1615
g56
(g77
g58
NtRp1616
(dp1617
g61
(dp1618
g81
g82
ssg70
g1612
sg63
(lp1619
S'now'
p1620
asbag56
(g77
g58
NtRp1621
(dp1622
g61
(dp1623
g88
g89
ssg70
g1612
sg63
(lp1624
S':'
asbag56
(g77
g58
NtRp1625
(dp1626
g61
(dp1627
sg70
g1612
sg63
(lp1628
g56
(g57
g58
NtRp1629
(dp1630
g61
(dp1631
g69
I5
ssg70
g1625
sg63
(lp1632
S'datetime.datetime(2011, 7, 2, 17, 7, 12, 444366)'
p1633
asbasbasbag56
(g72
g58
NtRp1634
(dp1635
g61
(dp1636
sg70
g66
sg63
(lp1637
g56
(g77
g58
NtRp1638
(dp1639
g61
(dp1640
g81
g82
ssg70
g1634
sg63
(lp1641
S'post_vars'
p1642
asbag56
(g77
g58
NtRp1643
(dp1644
g61
(dp1645
g88
g89
ssg70
g1634
sg63
(lp1646
S':'
asbag56
(g77
g58
NtRp1647
(dp1648
g61
(dp1649
sg70
g1634
sg63
(lp1650
g56
(g57
g58
NtRp1651
(dp1652
g61
(dp1653
g69
I5
ssg70
g1647
sg63
(lp1654
g56
(g65
g58
NtRp1655
(dp1656
g61
(dp1657
g69
I4
ssg70
Nsg63
(lp1658
sbasbasbasbag56
(g72
g58
NtRp1659
(dp1660
g61
(dp1661
sg70
g66
sg63
(lp1662
g56
(g77
g58
NtRp1663
(dp1664
g61
(dp1665
g81
g82
ssg70
g1659
sg63
(lp1666
S'raw_extension'
p1667
asbag56
(g77
g58
NtRp1668
(dp1669
g61
(dp1670
g88
g89
ssg70
g1659
sg63
(lp1671
S':'
asbag56
(g77
g58
NtRp1672
(dp1673
g61
(dp1674
sg70
g1659
sg63
(lp1675
g56
(g57
g58
NtRp1676
(dp1677
g61
(dp1678
g69
I5
ssg70
g1672
sg63
(lp1679
g1499
asbasbasbag56
(g72
g58
NtRp1680
(dp1681
g61
(dp1682
sg70
g66
sg63
(lp1683
g56
(g77
g58
NtRp1684
(dp1685
g61
(dp1686
g81
g82
ssg70
g1680
sg63
(lp1687
S'url'
p1688
asbag56
(g77
g58
NtRp1689
(dp1690
g61
(dp1691
g88
g89
ssg70
g1680
sg63
(lp1692
S':'
asbag56
(g77
g58
NtRp1693
(dp1694
g61
(dp1695
sg70
g1680
sg63
(lp1696
g56
(g57
g58
NtRp1697
(dp1698
g61
(dp1699
g69
I5
ssg70
g1693
sg63
(lp1700
S'/codeAct/ca_controller/quiz.html'
p1701
asbasbasbag56
(g72
g58
NtRp1702
(dp1703
g61
(dp1704
sg70
g66
sg63
(lp1705
g56
(g77
g58
NtRp1706
(dp1707
g61
(dp1708
g81
g82
ssg70
g1702
sg63
(lp1709
S'uuid'
p1710
asbag56
(g77
g58
NtRp1711
(dp1712
g61
(dp1713
g88
g89
ssg70
g1702
sg63
(lp1714
S':'
asbag56
(g77
g58
NtRp1715
(dp1716
g61
(dp1717
sg70
g1702
sg63
(lp1718
g56
(g57
g58
NtRp1719
(dp1720
g61
(dp1721
g69
I5
ssg70
g1715
sg63
(lp1722
S'codeAct/127.0.0.1.2011-07-02.17-07-12.fcb43071-675a-4109-aa24-0a170dcf32cc'
p1723
asbasbasbag56
(g72
g58
NtRp1724
(dp1725
g61
(dp1726
sg70
g66
sg63
(lp1727
g56
(g77
g58
NtRp1728
(dp1729
g61
(dp1730
g81
g82
ssg70
g1724
sg63
(lp1731
S'vars'
p1732
asbag56
(g77
g58
NtRp1733
(dp1734
g61
(dp1735
g88
g89
ssg70
g1724
sg63
(lp1736
S':'
asbag56
(g77
g58
NtRp1737
(dp1738
g61
(dp1739
sg70
g1724
sg63
(lp1740
g56
(g57
g58
NtRp1741
(dp1742
g61
(dp1743
g69
I5
ssg70
g1737
sg63
(lp1744
g56
(g65
g58
NtRp1745
(dp1746
g61
(dp1747
g69
I4
ssg70
Nsg63
(lp1748
g56
(g72
g58
NtRp1749
(dp1750
g61
(dp1751
sg70
g1745
sg63
(lp1752
g56
(g77
g58
NtRp1753
(dp1754
g61
(dp1755
g81
g82
ssg70
g1749
sg63
(lp1756
g1577
asbag56
(g77
g58
NtRp1757
(dp1758
g61
(dp1759
g88
g89
ssg70
g1749
sg63
(lp1760
S':'
asbag56
(g77
g58
NtRp1761
(dp1762
g61
(dp1763
sg70
g1749
sg63
(lp1764
g56
(g57
g58
NtRp1765
(dp1766
g61
(dp1767
g69
I4
ssg70
g1761
sg63
(lp1768
g1590
asbasbasbasbasbasbasbag56
(g72
g58
NtRp1769
(dp1770
g61
(dp1771
sg70
g66
sg63
(lp1772
g56
(g77
g58
NtRp1773
(dp1774
g61
(dp1775
g81
g82
ssg70
g1769
sg63
(lp1776
S'wsgi'
p1777
asbag56
(g77
g58
NtRp1778
(dp1779
g61
(dp1780
g88
g89
ssg70
g1769
sg63
(lp1781
S':'
asbag56
(g77
g58
NtRp1782
(dp1783
g61
(dp1784
sg70
g1769
sg63
(lp1785
g56
(g57
g58
NtRp1786
(dp1787
g61
(dp1788
g69
I5
ssg70
g1782
sg63
(lp1789
g56
(g65
g58
NtRp1790
(dp1791
g61
(dp1792
g69
I4
ssg70
Nsg63
(lp1793
g56
(g72
g58
NtRp1794
(dp1795
g61
(dp1796
sg70
g1790
sg63
(lp1797
g56
(g77
g58
NtRp1798
(dp1799
g61
(dp1800
g81
g82
ssg70
g1794
sg63
(lp1801
S'environ'
p1802
asbag56
(g77
g58
NtRp1803
(dp1804
g61
(dp1805
g88
g89
ssg70
g1794
sg63
(lp1806
S':'
asbag56
(g77
g58
NtRp1807
(dp1808
g61
(dp1809
sg70
g1794
sg63
(lp1810
g56
(g57
g58
NtRp1811
(dp1812
g61
(dp1813
g69
I4
ssg70
g1807
sg63
(lp1814
g56
(g65
g58
NtRp1815
(dp1816
g61
(dp1817
g69
I3
ssg70
Nsg63
(lp1818
g56
(g72
g58
NtRp1819
(dp1820
g61
(dp1821
sg70
g1815
sg63
(lp1822
g56
(g77
g58
NtRp1823
(dp1824
g61
(dp1825
g81
g82
ssg70
g1819
sg63
(lp1826
S'HTTP_ACCEPT'
p1827
asbag56
(g77
g58
NtRp1828
(dp1829
g61
(dp1830
g88
g89
ssg70
g1819
sg63
(lp1831
S':'
asbag56
(g77
g58
NtRp1832
(dp1833
g61
(dp1834
sg70
g1819
sg63
(lp1835
g56
(g57
g58
NtRp1836
(dp1837
g61
(dp1838
g69
I3
ssg70
g1832
sg63
(lp1839
g817
asbasbasbag56
(g72
g58
NtRp1840
(dp1841
g61
(dp1842
sg70
g1815
sg63
(lp1843
g56
(g77
g58
NtRp1844
(dp1845
g61
(dp1846
g81
g82
ssg70
g1840
sg63
(lp1847
S'HTTP_ACCEPT_CHARSET'
p1848
asbag56
(g77
g58
NtRp1849
(dp1850
g61
(dp1851
g88
g89
ssg70
g1840
sg63
(lp1852
S':'
asbag56
(g77
g58
NtRp1853
(dp1854
g61
(dp1855
sg70
g1840
sg63
(lp1856
g56
(g57
g58
NtRp1857
(dp1858
g61
(dp1859
g69
I3
ssg70
g1853
sg63
(lp1860
g839
asbasbasbag56
(g72
g58
NtRp1861
(dp1862
g61
(dp1863
sg70
g1815
sg63
(lp1864
g56
(g77
g58
NtRp1865
(dp1866
g61
(dp1867
g81
g82
ssg70
g1861
sg63
(lp1868
S'HTTP_ACCEPT_ENCODING'
p1869
asbag56
(g77
g58
NtRp1870
(dp1871
g61
(dp1872
g88
g89
ssg70
g1861
sg63
(lp1873
S':'
asbag56
(g77
g58
NtRp1874
(dp1875
g61
(dp1876
sg70
g1861
sg63
(lp1877
g56
(g57
g58
NtRp1878
(dp1879
g61
(dp1880
g69
I3
ssg70
g1874
sg63
(lp1881
g861
asbasbasbag56
(g72
g58
NtRp1882
(dp1883
g61
(dp1884
sg70
g1815
sg63
(lp1885
g56
(g77
g58
NtRp1886
(dp1887
g61
(dp1888
g81
g82
ssg70
g1882
sg63
(lp1889
S'HTTP_ACCEPT_LANGUAGE'
p1890
asbag56
(g77
g58
NtRp1891
(dp1892
g61
(dp1893
g88
g89
ssg70
g1882
sg63
(lp1894
S':'
asbag56
(g77
g58
NtRp1895
(dp1896
g61
(dp1897
sg70
g1882
sg63
(lp1898
g56
(g57
g58
NtRp1899
(dp1900
g61
(dp1901
g69
I3
ssg70
g1895
sg63
(lp1902
g883
asbasbasbag56
(g72
g58
NtRp1903
(dp1904
g61
(dp1905
sg70
g1815
sg63
(lp1906
g56
(g77
g58
NtRp1907
(dp1908
g61
(dp1909
g81
g82
ssg70
g1903
sg63
(lp1910
S'HTTP_CONNECTION'
p1911
asbag56
(g77
g58
NtRp1912
(dp1913
g61
(dp1914
g88
g89
ssg70
g1903
sg63
(lp1915
S':'
asbag56
(g77
g58
NtRp1916
(dp1917
g61
(dp1918
sg70
g1903
sg63
(lp1919
g56
(g57
g58
NtRp1920
(dp1921
g61
(dp1922
g69
I3
ssg70
g1916
sg63
(lp1923
g905
asbasbasbag56
(g72
g58
NtRp1924
(dp1925
g61
(dp1926
sg70
g1815
sg63
(lp1927
g56
(g77
g58
NtRp1928
(dp1929
g61
(dp1930
g81
g82
ssg70
g1924
sg63
(lp1931
S'HTTP_COOKIE'
p1932
asbag56
(g77
g58
NtRp1933
(dp1934
g61
(dp1935
g88
g89
ssg70
g1924
sg63
(lp1936
S':'
asbag56
(g77
g58
NtRp1937
(dp1938
g61
(dp1939
sg70
g1924
sg63
(lp1940
g56
(g57
g58
NtRp1941
(dp1942
g61
(dp1943
g69
I3
ssg70
g1937
sg63
(lp1944
g927
asbasbasbag56
(g72
g58
NtRp1945
(dp1946
g61
(dp1947
sg70
g1815
sg63
(lp1948
g56
(g77
g58
NtRp1949
(dp1950
g61
(dp1951
g81
g82
ssg70
g1945
sg63
(lp1952
S'HTTP_HOST'
p1953
asbag56
(g77
g58
NtRp1954
(dp1955
g61
(dp1956
g88
g89
ssg70
g1945
sg63
(lp1957
S':'
asbag56
(g77
g58
NtRp1958
(dp1959
g61
(dp1960
sg70
g1945
sg63
(lp1961
g56
(g57
g58
NtRp1962
(dp1963
g61
(dp1964
g69
I3
ssg70
g1958
sg63
(lp1965
g949
asbasbasbag56
(g72
g58
NtRp1966
(dp1967
g61
(dp1968
sg70
g1815
sg63
(lp1969
g56
(g77
g58
NtRp1970
(dp1971
g61
(dp1972
g81
g82
ssg70
g1966
sg63
(lp1973
S'HTTP_KEEP_ALIVE'
p1974
asbag56
(g77
g58
NtRp1975
(dp1976
g61
(dp1977
g88
g89
ssg70
g1966
sg63
(lp1978
S':'
asbag56
(g77
g58
NtRp1979
(dp1980
g61
(dp1981
sg70
g1966
sg63
(lp1982
g56
(g57
g58
NtRp1983
(dp1984
g61
(dp1985
g69
I3
ssg70
g1979
sg63
(lp1986
g971
asbasbasbag56
(g72
g58
NtRp1987
(dp1988
g61
(dp1989
sg70
g1815
sg63
(lp1990
g56
(g77
g58
NtRp1991
(dp1992
g61
(dp1993
g81
g82
ssg70
g1987
sg63
(lp1994
S'HTTP_USER_AGENT'
p1995
asbag56
(g77
g58
NtRp1996
(dp1997
g61
(dp1998
g88
g89
ssg70
g1987
sg63
(lp1999
S':'
asbag56
(g77
g58
NtRp2000
(dp2001
g61
(dp2002
sg70
g1987
sg63
(lp2003
g56
(g57
g58
NtRp2004
(dp2005
g61
(dp2006
g69
I3
ssg70
g2000
sg63
(lp2007
g993
asbasbasbag56
(g72
g58
NtRp2008
(dp2009
g61
(dp2010
sg70
g1815
sg63
(lp2011
g56
(g77
g58
NtRp2012
(dp2013
g61
(dp2014
g81
g82
ssg70
g2008
sg63
(lp2015
S'PATH_INFO'
p2016
asbag56
(g77
g58
NtRp2017
(dp2018
g61
(dp2019
g88
g89
ssg70
g2008
sg63
(lp2020
S':'
asbag56
(g77
g58
NtRp2021
(dp2022
g61
(dp2023
sg70
g2008
sg63
(lp2024
g56
(g57
g58
NtRp2025
(dp2026
g61
(dp2027
g69
I3
ssg70
g2021
sg63
(lp2028
g1015
asbasbasbag56
(g72
g58
NtRp2029
(dp2030
g61
(dp2031
sg70
g1815
sg63
(lp2032
g56
(g77
g58
NtRp2033
(dp2034
g61
(dp2035
g81
g82
ssg70
g2029
sg63
(lp2036
S'QUERY_STRING'
p2037
asbag56
(g77
g58
NtRp2038
(dp2039
g61
(dp2040
g88
g89
ssg70
g2029
sg63
(lp2041
S':'
asbag56
(g77
g58
NtRp2042
(dp2043
g61
(dp2044
sg70
g2029
sg63
(lp2045
g56
(g57
g58
NtRp2046
(dp2047
g61
(dp2048
g69
I3
ssg70
g2042
sg63
(lp2049
g1037
asbasbasbag56
(g72
g58
NtRp2050
(dp2051
g61
(dp2052
sg70
g1815
sg63
(lp2053
g56
(g77
g58
NtRp2054
(dp2055
g61
(dp2056
g81
g82
ssg70
g2050
sg63
(lp2057
S'REMOTE_ADDR'
p2058
asbag56
(g77
g58
NtRp2059
(dp2060
g61
(dp2061
g88
g89
ssg70
g2050
sg63
(lp2062
S':'
asbag56
(g77
g58
NtRp2063
(dp2064
g61
(dp2065
sg70
g2050
sg63
(lp2066
g56
(g57
g58
NtRp2067
(dp2068
g61
(dp2069
g69
I3
ssg70
g2063
sg63
(lp2070
g189
asbasbasbag56
(g72
g58
NtRp2071
(dp2072
g61
(dp2073
sg70
g1815
sg63
(lp2074
g56
(g77
g58
NtRp2075
(dp2076
g61
(dp2077
g81
g82
ssg70
g2071
sg63
(lp2078
S'REMOTE_PORT'
p2079
asbag56
(g77
g58
NtRp2080
(dp2081
g61
(dp2082
g88
g89
ssg70
g2071
sg63
(lp2083
S':'
asbag56
(g77
g58
NtRp2084
(dp2085
g61
(dp2086
sg70
g2071
sg63
(lp2087
g56
(g57
g58
NtRp2088
(dp2089
g61
(dp2090
g69
I3
ssg70
g2084
sg63
(lp2091
g1080
asbasbasbag56
(g72
g58
NtRp2092
(dp2093
g61
(dp2094
sg70
g1815
sg63
(lp2095
g56
(g77
g58
NtRp2096
(dp2097
g61
(dp2098
g81
g82
ssg70
g2092
sg63
(lp2099
S'REQUEST_METHOD'
p2100
asbag56
(g77
g58
NtRp2101
(dp2102
g61
(dp2103
g88
g89
ssg70
g2092
sg63
(lp2104
S':'
asbag56
(g77
g58
NtRp2105
(dp2106
g61
(dp2107
sg70
g2092
sg63
(lp2108
g56
(g57
g58
NtRp2109
(dp2110
g61
(dp2111
g69
I3
ssg70
g2105
sg63
(lp2112
g1102
asbasbasbag56
(g72
g58
NtRp2113
(dp2114
g61
(dp2115
sg70
g1815
sg63
(lp2116
g56
(g77
g58
NtRp2117
(dp2118
g61
(dp2119
g81
g82
ssg70
g2113
sg63
(lp2120
S'SCRIPT_NAME'
p2121
asbag56
(g77
g58
NtRp2122
(dp2123
g61
(dp2124
g88
g89
ssg70
g2113
sg63
(lp2125
S':'
asbag56
(g77
g58
NtRp2126
(dp2127
g61
(dp2128
sg70
g2113
sg63
(lp2129
g56
(g57
g58
NtRp2130
(dp2131
g61
(dp2132
g69
I3
ssg70
g2126
sg63
(lp2133
S''
asbasbasbag56
(g72
g58
NtRp2134
(dp2135
g61
(dp2136
sg70
g1815
sg63
(lp2137
g56
(g77
g58
NtRp2138
(dp2139
g61
(dp2140
g81
g82
ssg70
g2134
sg63
(lp2141
S'SERVER_NAME'
p2142
asbag56
(g77
g58
NtRp2143
(dp2144
g61
(dp2145
g88
g89
ssg70
g2134
sg63
(lp2146
S':'
asbag56
(g77
g58
NtRp2147
(dp2148
g61
(dp2149
sg70
g2134
sg63
(lp2150
g56
(g57
g58
NtRp2151
(dp2152
g61
(dp2153
g69
I3
ssg70
g2147
sg63
(lp2154
g1145
asbasbasbag56
(g72
g58
NtRp2155
(dp2156
g61
(dp2157
sg70
g1815
sg63
(lp2158
g56
(g77
g58
NtRp2159
(dp2160
g61
(dp2161
g81
g82
ssg70
g2155
sg63
(lp2162
S'SERVER_PORT'
p2163
asbag56
(g77
g58
NtRp2164
(dp2165
g61
(dp2166
g88
g89
ssg70
g2155
sg63
(lp2167
S':'
asbag56
(g77
g58
NtRp2168
(dp2169
g61
(dp2170
sg70
g2155
sg63
(lp2171
g56
(g57
g58
NtRp2172
(dp2173
g61
(dp2174
g69
I3
ssg70
g2168
sg63
(lp2175
g1167
asbasbasbag56
(g72
g58
NtRp2176
(dp2177
g61
(dp2178
sg70
g1815
sg63
(lp2179
g56
(g77
g58
NtRp2180
(dp2181
g61
(dp2182
g81
g82
ssg70
g2176
sg63
(lp2183
S'SERVER_PROTOCOL'
p2184
asbag56
(g77
g58
NtRp2185
(dp2186
g61
(dp2187
g88
g89
ssg70
g2176
sg63
(lp2188
S':'
asbag56
(g77
g58
NtRp2189
(dp2190
g61
(dp2191
sg70
g2176
sg63
(lp2192
g56
(g57
g58
NtRp2193
(dp2194
g61
(dp2195
g69
I3
ssg70
g2189
sg63
(lp2196
g1189
asbasbasbag56
(g72
g58
NtRp2197
(dp2198
g61
(dp2199
sg70
g1815
sg63
(lp2200
g56
(g77
g58
NtRp2201
(dp2202
g61
(dp2203
g81
g82
ssg70
g2197
sg63
(lp2204
S'SERVER_SOFTWARE'
p2205
asbag56
(g77
g58
NtRp2206
(dp2207
g61
(dp2208
g88
g89
ssg70
g2197
sg63
(lp2209
S':'
asbag56
(g77
g58
NtRp2210
(dp2211
g61
(dp2212
sg70
g2197
sg63
(lp2213
g56
(g57
g58
NtRp2214
(dp2215
g61
(dp2216
g69
I3
ssg70
g2210
sg63
(lp2217
g1211
asbasbasbag56
(g72
g58
NtRp2218
(dp2219
g61
(dp2220
sg70
g1815
sg63
(lp2221
g56
(g77
g58
NtRp2222
(dp2223
g61
(dp2224
g81
g82
ssg70
g2218
sg63
(lp2225
S'wsgi.errors'
p2226
asbag56
(g77
g58
NtRp2227
(dp2228
g61
(dp2229
g88
g89
ssg70
g2218
sg63
(lp2230
S':'
asbag56
(g77
g58
NtRp2231
(dp2232
g61
(dp2233
sg70
g2218
sg63
(lp2234
g56
(g57
g58
NtRp2235
(dp2236
g61
(dp2237
g69
I3
ssg70
g2231
sg63
(lp2238
S"<open file '<stderr>', mode 'w' at 0xb78440d0>"
p2239
asbasbasbag56
(g72
g58
NtRp2240
(dp2241
g61
(dp2242
sg70
g1815
sg63
(lp2243
g56
(g77
g58
NtRp2244
(dp2245
g61
(dp2246
g81
g82
ssg70
g2240
sg63
(lp2247
S'wsgi.file_wrapper'
p2248
asbag56
(g77
g58
NtRp2249
(dp2250
g61
(dp2251
g88
g89
ssg70
g2240
sg63
(lp2252
S':'
asbag56
(g77
g58
NtRp2253
(dp2254
g61
(dp2255
sg70
g2240
sg63
(lp2256
g56
(g57
g58
NtRp2257
(dp2258
g61
(dp2259
g69
I3
ssg70
g2253
sg63
(lp2260
S'<class gluon.rocket.FileWrapper at 0x8d8d44c>'
p2261
asbasbasbag56
(g72
g58
NtRp2262
(dp2263
g61
(dp2264
sg70
g1815
sg63
(lp2265
g56
(g77
g58
NtRp2266
(dp2267
g61
(dp2268
g81
g82
ssg70
g2262
sg63
(lp2269
S'wsgi.input'
p2270
asbag56
(g77
g58
NtRp2271
(dp2272
g61
(dp2273
g88
g89
ssg70
g2262
sg63
(lp2274
S':'
asbag56
(g77
g58
NtRp2275
(dp2276
g61
(dp2277
sg70
g2262
sg63
(lp2278
g56
(g57
g58
NtRp2279
(dp2280
g61
(dp2281
g69
I3
ssg70
g2275
sg63
(lp2282
S'<cStringIO.StringO object at 0x8fd1d80>'
p2283
asbasbasbag56
(g72
g58
NtRp2284
(dp2285
g61
(dp2286
sg70
g1815
sg63
(lp2287
g56
(g77
g58
NtRp2288
(dp2289
g61
(dp2290
g81
g82
ssg70
g2284
sg63
(lp2291
S'wsgi.multiprocess'
p2292
asbag56
(g77
g58
NtRp2293
(dp2294
g61
(dp2295
g88
g89
ssg70
g2284
sg63
(lp2296
S':'
asbag56
(g77
g58
NtRp2297
(dp2298
g61
(dp2299
sg70
g2284
sg63
(lp2300
g56
(g57
g58
NtRp2301
(dp2302
g61
(dp2303
g69
I3
ssg70
g2297
sg63
(lp2304
g99
asbasbasbag56
(g72
g58
NtRp2305
(dp2306
g61
(dp2307
sg70
g1815
sg63
(lp2308
g56
(g77
g58
NtRp2309
(dp2310
g61
(dp2311
g81
g82
ssg70
g2305
sg63
(lp2312
S'wsgi.multithread'
p2313
asbag56
(g77
g58
NtRp2314
(dp2315
g61
(dp2316
g88
g89
ssg70
g2305
sg63
(lp2317
S':'
asbag56
(g77
g58
NtRp2318
(dp2319
g61
(dp2320
sg70
g2305
sg63
(lp2321
g56
(g57
g58
NtRp2322
(dp2323
g61
(dp2324
g69
I3
ssg70
g2318
sg63
(lp2325
g1385
asbasbasbag56
(g72
g58
NtRp2326
(dp2327
g61
(dp2328
sg70
g1815
sg63
(lp2329
g56
(g77
g58
NtRp2330
(dp2331
g61
(dp2332
g81
g82
ssg70
g2326
sg63
(lp2333
S'wsgi.run_once'
p2334
asbag56
(g77
g58
NtRp2335
(dp2336
g61
(dp2337
g88
g89
ssg70
g2326
sg63
(lp2338
S':'
asbag56
(g77
g58
NtRp2339
(dp2340
g61
(dp2341
sg70
g2326
sg63
(lp2342
g56
(g57
g58
NtRp2343
(dp2344
g61
(dp2345
g69
I3
ssg70
g2339
sg63
(lp2346
g99
asbasbasbag56
(g72
g58
NtRp2347
(dp2348
g61
(dp2349
sg70
g1815
sg63
(lp2350
g56
(g77
g58
NtRp2351
(dp2352
g61
(dp2353
g81
g82
ssg70
g2347
sg63
(lp2354
S'wsgi.url_scheme'
p2355
asbag56
(g77
g58
NtRp2356
(dp2357
g61
(dp2358
g88
g89
ssg70
g2347
sg63
(lp2359
S':'
asbag56
(g77
g58
NtRp2360
(dp2361
g61
(dp2362
sg70
g2347
sg63
(lp2363
g56
(g57
g58
NtRp2364
(dp2365
g61
(dp2366
g69
I3
ssg70
g2360
sg63
(lp2367
g1428
asbasbasbag56
(g72
g58
NtRp2368
(dp2369
g61
(dp2370
sg70
g1815
sg63
(lp2371
g56
(g77
g58
NtRp2372
(dp2373
g61
(dp2374
g81
g82
ssg70
g2368
sg63
(lp2375
S'wsgi.version'
p2376
asbag56
(g77
g58
NtRp2377
(dp2378
g61
(dp2379
g88
g89
ssg70
g2368
sg63
(lp2380
S':'
asbag56
(g77
g58
NtRp2381
(dp2382
g61
(dp2383
sg70
g2368
sg63
(lp2384
g56
(g57
g58
NtRp2385
(dp2386
g61
(dp2387
g69
I3
ssg70
g2381
sg63
(lp2388
S'1'
asbasbasbasbasbasbasbasbasbasbasbasbasbsS'frames'
p2389
(lp2390
(dp2391
S'file'
p2392
S'/home/jacobbl/SENG265/pe2/codeAct_1.01/web2py/gluon/restricted.py'
p2393
sS'dump'
p2394
(dp2395
S'environment'
p2396
S"{'A': <class 'gluon.html.A'>, 'B': <class 'gluon.html.B'>, 'BEAUTIFY': <class 'gluon.html.BEAUTIFY'>, 'BODY': <class 'gluon.html.BODY'>, 'BR': <class 'gluon.html.BR'>, 'CENTER': <class 'gluon.html.CENTER'>, 'CLEANUP': <class 'gluon.validators.CLEANUP'>, 'CODE': <class 'gluon.html.CODE'>, 'CRYPT': <class 'gluon.validators.CRYPT'>, 'DAL': <class 'gluon.dal.DAL'>, ...}"
p2397
sS'ccode'
p2398
S'<code object <module> at 0x8fd39f8, file "/home/...ns/codeAct/controllers/ca_controller.py", line 1>'
p2399
ssS'lnum'
p2400
I181
sS'lines'
p2401
(dp2402
I176
S'    try:'
p2403
sI177
S'        if type(code) == types.CodeType:'
p2404
sI178
S'            ccode = code'
p2405
sI179
S'        else:'
p2406
sI180
S'            ccode = compile2(code,layer)'
p2407
sI181
S'        exec ccode in environment'
p2408
sI182
S'    except HTTP:'
p2409
sI183
S'        raise'
p2410
sI184
S'    except Exception:'
p2411
sI185
S'        # XXX Show exception in Wing IDE if running in debugger'
p2412
ssS'call'
p2413
S"(code='import sys\\nimport time\\nimport os\\n\\nimport ca_quiz...turn code\\n\\nresponse._vars=response._caller(quiz)\\n', environment={'A': <class 'gluon.html.A'>, 'B': <class 'gluon.html.B'>, 'BEAUTIFY': <class 'gluon.html.BEAUTIFY'>, 'BODY': <class 'gluon.html.BODY'>, 'BR': <class 'gluon.html.BR'>, 'CENTER': <class 'gluon.html.CENTER'>, 'CLEANUP': <class 'gluon.validators.CLEANUP'>, 'CODE': <class 'gluon.html.CODE'>, 'CRYPT': <class 'gluon.validators.CRYPT'>, 'DAL': <class 'gluon.dal.DAL'>, ...}, layer='/home/jacobbl/SENG265/pe2/codeAct_1.01/web2py/applications/codeAct/controllers/ca_controller.py')"
p2414
sS'func'
p2415
S'restricted'
p2416
sa(dp2417
g2392
S'/home/jacobbl/SENG265/pe2/codeAct_1.01/web2py/applications/codeAct/controllers/ca_controller.py'
p2418
sg2394
(dp2419
sg2400
I85
sg2401
(dp2420
I74
S"\t session['quiz'].practice_mode,session['login'],"
p2421
sI75
S"\t session['answer_list'][question_number-1],"
p2422
sI76
S"\t request.vars,session['question_timer'])"
p2423
sI77
S"\tcode = utility.add_submit_label(code,session['quiz'].practice_mode)"
p2424
sI78
S'\tcode = utility.disable_navi_buttons(code,question_number,'
p2425
sI79
S"\t session['quiz'])"
p2426
sI80
S''
sI81
S'\t# update question timer'
p2427
sI82
S"\tsession['question_timer'] = int(time.time())"
p2428
sI83
S'\treturn code'
p2429
ssg2413
S'()'
p2430
sg2415
S'<module>'
p2431
sa(dp2432
g2392
S'/home/jacobbl/SENG265/pe2/codeAct_1.01/web2py/gluon/globals.py'
p2433
sg2394
(dp2434
S'self'
p2435
S'undefined'
p2436
sS'f'
S'<function quiz>'
p2437
ssg2400
I133
sg2401
(dp2438
I128
S"        self.flash = ''           # used by the default view layout"
p2439
sI129
S'        self.meta = Storage()     # used by web2py_ajax.html'
p2440
sI130
S'        self.menu = []            # used by the default view layout'
p2441
sI131
S'        self.files = []           # used by web2py_ajax.html'
p2442
sI132
S'        self._vars = None'
p2443
sI133
S'        self._caller = lambda f: f()'
p2444
sI134
S'        self._view_environment = None'
p2445
sI135
S'        self._custom_commit = None'
p2446
sI136
S'        self._custom_rollback = None'
p2447
sI137
S''
ssg2413
S'(f=<function quiz>)'
p2448
sg2415
S'<lambda>'
p2449
sa(dp2450
g2392
S'/home/jacobbl/SENG265/pe2/codeAct_1.01/web2py/applications/codeAct/controllers/ca_controller.py'
p2451
sg2394
(dp2452
S'].get_question'
p2453
S'None'
p2454
sS'global session'
p2455
S"<Storage {'login': '', 'question_timer': 1309651...], 'quiz': <ca_quiz.quiz instance at 0x8f06bec>}>"
p2456
sS'question'
p2457
g2436
sS'question_number'
p2458
S'1'
ssg2400
I67
sg2401
(dp2459
I64
S''
sI65
S'\t# generate HTML code'
p2460
sI66
S'\tquestion_number = utility.get_question_number(request.vars)'
p2461
sI67
S"\tquestion = session['quiz'].get_question(question_number-1)"
p2462
sI68
S"\tutility.update_answer(question,question_number,session['answer_list'],"
p2463
sI69
S'\t request.vars)'
p2464
sI70
S"\tcode = question_HTML.generate_html(session['quiz'],question_number,"
p2465
sI71
S"\t session['answer_list'][question_number-1])"
p2466
sI62
S"\t\tlog_create.create_log(session['quiz'].log_dir,"
p2467
sI63
S"\t\t session['login'])"
p2468
ssg2413
S'()'
p2469
sg2415
S'quiz'
p2470
sa(dp2471
g2392
S'/home/jacobbl/SENG265/pe2/codeAct_1.01/web2py/applications/codeAct/ca_quiz.py'
p2472
sg2394
(dp2473
S'self.question_list'
p2474
S'[]'
p2475
sS'self'
p2476
S'<ca_quiz.quiz instance>'
p2477
sS'index'
p2478
S'0'
ssg2400
I63
sg2401
(dp2479
I64
S'\t\t# if index is out of range, should we return the first question'
p2480
sI65
S'\t\t# instead of throw an exception'
p2481
sI56
S"\t'''"
p2482
sI57
S'\tPurpose'
p2483
sI58
S'\t\treturn the ith question'
p2484
sI59
S'\tPrecondition'
p2485
sI60
S'\t\tindex > 0 and index < len(self.question_list)'
p2486
sI61
S"\t'''"
p2487
sI62
S'\tdef get_question(self,index):'
p2488
sI63
S'\t\treturn self.question_list[index]'
p2489
ssg2413
S'(self=<ca_quiz.quiz instance>, index=0)'
p2490
sg2415
S'get_question'
p2491
sasS'pyver'
p2492
S'Python 2.6.5: /usr/bin/python'
p2493
sS'session'
p2494
g56
(g57
g58
NtRp2495
(dp2496
g61
(dp2497
sg63
(lp2498
g56
(g65
g58
NtRp2499
(dp2500
g61
(dp2501
g69
I5
ssg70
Nsg63
(lp2502
g56
(g72
g58
NtRp2503
(dp2504
g61
(dp2505
sg70
g2499
sg63
(lp2506
g56
(g77
g58
NtRp2507
(dp2508
g61
(dp2509
g81
g82
ssg70
g2503
sg63
(lp2510
S'answer_list'
p2511
asbag56
(g77
g58
NtRp2512
(dp2513
g61
(dp2514
g88
g89
ssg70
g2503
sg63
(lp2515
S':'
asbag56
(g77
g58
NtRp2516
(dp2517
g61
(dp2518
sg70
g2503
sg63
(lp2519
g56
(g57
g58
NtRp2520
(dp2521
g61
(dp2522
g69
I5
ssg70
g2516
sg63
(lp2523
g56
(g65
g58
NtRp2524
(dp2525
g61
(dp2526
g69
I4
ssg70
Nsg63
(lp2527
sbasbasbasbag56
(g72
g58
NtRp2528
(dp2529
g61
(dp2530
sg70
g2499
sg63
(lp2531
g56
(g77
g58
NtRp2532
(dp2533
g61
(dp2534
g81
g82
ssg70
g2528
sg63
(lp2535
S'login'
p2536
asbag56
(g77
g58
NtRp2537
(dp2538
g61
(dp2539
g88
g89
ssg70
g2528
sg63
(lp2540
S':'
asbag56
(g77
g58
NtRp2541
(dp2542
g61
(dp2543
sg70
g2528
sg63
(lp2544
g56
(g57
g58
NtRp2545
(dp2546
g61
(dp2547
g69
I5
ssg70
g2541
sg63
(lp2548
S''
asbasbasbag56
(g72
g58
NtRp2549
(dp2550
g61
(dp2551
sg70
g2499
sg63
(lp2552
g56
(g77
g58
NtRp2553
(dp2554
g61
(dp2555
g81
g82
ssg70
g2549
sg63
(lp2556
S'question_timer'
p2557
asbag56
(g77
g58
NtRp2558
(dp2559
g61
(dp2560
g88
g89
ssg70
g2549
sg63
(lp2561
S':'
asbag56
(g77
g58
NtRp2562
(dp2563
g61
(dp2564
sg70
g2549
sg63
(lp2565
g56
(g57
g58
NtRp2566
(dp2567
g61
(dp2568
g69
I5
ssg70
g2562
sg63
(lp2569
S'1309651632'
p2570
asbasbasbag56
(g72
g58
NtRp2571
(dp2572
g61
(dp2573
sg70
g2499
sg63
(lp2574
g56
(g77
g58
NtRp2575
(dp2576
g61
(dp2577
g81
g82
ssg70
g2571
sg63
(lp2578
S'quiz'
p2579
asbag56
(g77
g58
NtRp2580
(dp2581
g61
(dp2582
g88
g89
ssg70
g2571
sg63
(lp2583
S':'
asbag56
(g77
g58
NtRp2584
(dp2585
g61
(dp2586
sg70
g2571
sg63
(lp2587
g56
(g57
g58
NtRp2588
(dp2589
g61
(dp2590
g69
I5
ssg70
g2584
sg63
(lp2591
S'<ca_quiz.quiz instance at 0x8f06bec>'
p2592
asbasbasbasbasbsS'etype'
p2593
S"<type 'exceptions.IndexError'>"
p2594
sS'date'
p2595
S'Sat Jul  2 17:07:12 2011'
p2596
sS'response'
p2597
g56
(g57
g58
NtRp2598
(dp2599
g61
(dp2600
sg63
(lp2601
g56
(g65
g58
NtRp2602
(dp2603
g61
(dp2604
g69
I5
ssg70
Nsg63
(lp2605
g56
(g72
g58
NtRp2606
(dp2607
g61
(dp2608
sg70
g2602
sg63
(lp2609
g56
(g77
g58
NtRp2610
(dp2611
g61
(dp2612
g81
g82
ssg70
g2606
sg63
(lp2613
g154
asbag56
(g77
g58
NtRp2614
(dp2615
g61
(dp2616
g88
g89
ssg70
g2606
sg63
(lp2617
S':'
asbag56
(g77
g58
NtRp2618
(dp2619
g61
(dp2620
sg70
g2606
sg63
(lp2621
g56
(g57
g58
NtRp2622
(dp2623
g61
(dp2624
g69
I5
ssg70
g2618
sg63
(lp2625
S'<cStringIO.StringO object at 0x8fc5760>'
p2626
asbasbasbag56
(g72
g58
NtRp2627
(dp2628
g61
(dp2629
sg70
g2602
sg63
(lp2630
g56
(g77
g58
NtRp2631
(dp2632
g61
(dp2633
g81
g82
ssg70
g2627
sg63
(lp2634
g220
asbag56
(g77
g58
NtRp2635
(dp2636
g61
(dp2637
g88
g89
ssg70
g2627
sg63
(lp2638
S':'
asbag56
(g77
g58
NtRp2639
(dp2640
g61
(dp2641
sg70
g2627
sg63
(lp2642
g56
(g57
g58
NtRp2643
(dp2644
g61
(dp2645
g69
I5
ssg70
g2639
sg63
(lp2646
g56
(g65
g58
NtRp2647
(dp2648
g61
(dp2649
g69
I4
ssg70
Nsg63
(lp2650
g56
(g72
g58
NtRp2651
(dp2652
g61
(dp2653
sg70
g2647
sg63
(lp2654
g56
(g77
g58
NtRp2655
(dp2656
g61
(dp2657
g81
g82
ssg70
g2651
sg63
(lp2658
S'session_id_codeact'
p2659
asbag56
(g77
g58
NtRp2660
(dp2661
g61
(dp2662
g88
g89
ssg70
g2651
sg63
(lp2663
S':'
asbag56
(g77
g58
NtRp2664
(dp2665
g61
(dp2666
sg70
g2651
sg63
(lp2667
g56
(g57
g58
NtRp2668
(dp2669
g61
(dp2670
g69
I4
ssg70
g2664
sg63
(lp2671
g56
(g65
g58
NtRp2672
(dp2673
g61
(dp2674
g69
I3
ssg70
Nsg63
(lp2675
g56
(g72
g58
NtRp2676
(dp2677
g61
(dp2678
sg70
g2672
sg63
(lp2679
g56
(g77
g58
NtRp2680
(dp2681
g61
(dp2682
g81
g82
ssg70
g2676
sg63
(lp2683
g270
asbag56
(g77
g58
NtRp2684
(dp2685
g61
(dp2686
g88
g89
ssg70
g2676
sg63
(lp2687
S':'
asbag56
(g77
g58
NtRp2688
(dp2689
g61
(dp2690
sg70
g2676
sg63
(lp2691
g56
(g57
g58
NtRp2692
(dp2693
g61
(dp2694
g69
I3
ssg70
g2688
sg63
(lp2695
S''
asbasbasbag56
(g72
g58
NtRp2696
(dp2697
g61
(dp2698
sg70
g2672
sg63
(lp2699
g56
(g77
g58
NtRp2700
(dp2701
g61
(dp2702
g81
g82
ssg70
g2696
sg63
(lp2703
g291
asbag56
(g77
g58
NtRp2704
(dp2705
g61
(dp2706
g88
g89
ssg70
g2696
sg63
(lp2707
S':'
asbag56
(g77
g58
NtRp2708
(dp2709
g61
(dp2710
sg70
g2696
sg63
(lp2711
g56
(g57
g58
NtRp2712
(dp2713
g61
(dp2714
g69
I3
ssg70
g2708
sg63
(lp2715
S''
asbasbasbag56
(g72
g58
NtRp2716
(dp2717
g61
(dp2718
sg70
g2672
sg63
(lp2719
g56
(g77
g58
NtRp2720
(dp2721
g61
(dp2722
g81
g82
ssg70
g2716
sg63
(lp2723
g312
asbag56
(g77
g58
NtRp2724
(dp2725
g61
(dp2726
g88
g89
ssg70
g2716
sg63
(lp2727
S':'
asbag56
(g77
g58
NtRp2728
(dp2729
g61
(dp2730
sg70
g2716
sg63
(lp2731
g56
(g57
g58
NtRp2732
(dp2733
g61
(dp2734
g69
I3
ssg70
g2728
sg63
(lp2735
S''
asbasbasbag56
(g72
g58
NtRp2736
(dp2737
g61
(dp2738
sg70
g2672
sg63
(lp2739
g56
(g77
g58
NtRp2740
(dp2741
g61
(dp2742
g81
g82
ssg70
g2736
sg63
(lp2743
g333
asbag56
(g77
g58
NtRp2744
(dp2745
g61
(dp2746
g88
g89
ssg70
g2736
sg63
(lp2747
S':'
asbag56
(g77
g58
NtRp2748
(dp2749
g61
(dp2750
sg70
g2736
sg63
(lp2751
g56
(g57
g58
NtRp2752
(dp2753
g61
(dp2754
g69
I3
ssg70
g2748
sg63
(lp2755
S''
asbasbasbag56
(g72
g58
NtRp2756
(dp2757
g61
(dp2758
sg70
g2672
sg63
(lp2759
g56
(g77
g58
NtRp2760
(dp2761
g61
(dp2762
g81
g82
ssg70
g2756
sg63
(lp2763
g354
asbag56
(g77
g58
NtRp2764
(dp2765
g61
(dp2766
g88
g89
ssg70
g2756
sg63
(lp2767
S':'
asbag56
(g77
g58
NtRp2768
(dp2769
g61
(dp2770
sg70
g2756
sg63
(lp2771
g56
(g57
g58
NtRp2772
(dp2773
g61
(dp2774
g69
I3
ssg70
g2768
sg63
(lp2775
S''
asbasbasbag56
(g72
g58
NtRp2776
(dp2777
g61
(dp2778
sg70
g2672
sg63
(lp2779
g56
(g77
g58
NtRp2780
(dp2781
g61
(dp2782
g81
g82
ssg70
g2776
sg63
(lp2783
g375
asbag56
(g77
g58
NtRp2784
(dp2785
g61
(dp2786
g88
g89
ssg70
g2776
sg63
(lp2787
S':'
asbag56
(g77
g58
NtRp2788
(dp2789
g61
(dp2790
sg70
g2776
sg63
(lp2791
g56
(g57
g58
NtRp2792
(dp2793
g61
(dp2794
g69
I3
ssg70
g2788
sg63
(lp2795
S'/'
asbasbasbag56
(g72
g58
NtRp2796
(dp2797
g61
(dp2798
sg70
g2672
sg63
(lp2799
g56
(g77
g58
NtRp2800
(dp2801
g61
(dp2802
g81
g82
ssg70
g2796
sg63
(lp2803
g396
asbag56
(g77
g58
NtRp2804
(dp2805
g61
(dp2806
g88
g89
ssg70
g2796
sg63
(lp2807
S':'
asbag56
(g77
g58
NtRp2808
(dp2809
g61
(dp2810
sg70
g2796
sg63
(lp2811
g56
(g57
g58
NtRp2812
(dp2813
g61
(dp2814
g69
I3
ssg70
g2808
sg63
(lp2815
S''
asbasbasbag56
(g72
g58
NtRp2816
(dp2817
g61
(dp2818
sg70
g2672
sg63
(lp2819
g56
(g77
g58
NtRp2820
(dp2821
g61
(dp2822
g81
g82
ssg70
g2816
sg63
(lp2823
g417
asbag56
(g77
g58
NtRp2824
(dp2825
g61
(dp2826
g88
g89
ssg70
g2816
sg63
(lp2827
S':'
asbag56
(g77
g58
NtRp2828
(dp2829
g61
(dp2830
sg70
g2816
sg63
(lp2831
g56
(g57
g58
NtRp2832
(dp2833
g61
(dp2834
g69
I3
ssg70
g2828
sg63
(lp2835
S''
asbasbasbasbasbasbasbasbasbasbasbag56
(g72
g58
NtRp2836
(dp2837
g61
(dp2838
sg70
g2602
sg63
(lp2839
g56
(g77
g58
NtRp2840
(dp2841
g61
(dp2842
g81
g82
ssg70
g2836
sg63
(lp2843
S'files'
p2844
asbag56
(g77
g58
NtRp2845
(dp2846
g61
(dp2847
g88
g89
ssg70
g2836
sg63
(lp2848
S':'
asbag56
(g77
g58
NtRp2849
(dp2850
g61
(dp2851
sg70
g2836
sg63
(lp2852
g56
(g57
g58
NtRp2853
(dp2854
g61
(dp2855
g69
I5
ssg70
g2849
sg63
(lp2856
g56
(g65
g58
NtRp2857
(dp2858
g61
(dp2859
g69
I4
ssg70
Nsg63
(lp2860
sbasbasbasbag56
(g72
g58
NtRp2861
(dp2862
g61
(dp2863
sg70
g2602
sg63
(lp2864
g56
(g77
g58
NtRp2865
(dp2866
g61
(dp2867
g81
g82
ssg70
g2861
sg63
(lp2868
S'flash'
p2869
asbag56
(g77
g58
NtRp2870
(dp2871
g61
(dp2872
g88
g89
ssg70
g2861
sg63
(lp2873
S':'
asbag56
(g77
g58
NtRp2874
(dp2875
g61
(dp2876
sg70
g2861
sg63
(lp2877
g56
(g57
g58
NtRp2878
(dp2879
g61
(dp2880
g69
I5
ssg70
g2874
sg63
(lp2881
S''
asbasbasbag56
(g72
g58
NtRp2882
(dp2883
g61
(dp2884
sg70
g2602
sg63
(lp2885
g56
(g77
g58
NtRp2886
(dp2887
g61
(dp2888
g81
g82
ssg70
g2882
sg63
(lp2889
S'headers'
p2890
asbag56
(g77
g58
NtRp2891
(dp2892
g61
(dp2893
g88
g89
ssg70
g2882
sg63
(lp2894
S':'
asbag56
(g77
g58
NtRp2895
(dp2896
g61
(dp2897
sg70
g2882
sg63
(lp2898
g56
(g57
g58
NtRp2899
(dp2900
g61
(dp2901
g69
I5
ssg70
g2895
sg63
(lp2902
g56
(g65
g58
NtRp2903
(dp2904
g61
(dp2905
g69
I4
ssg70
Nsg63
(lp2906
g56
(g72
g58
NtRp2907
(dp2908
g61
(dp2909
sg70
g2903
sg63
(lp2910
g56
(g77
g58
NtRp2911
(dp2912
g61
(dp2913
g81
g82
ssg70
g2907
sg63
(lp2914
S'Cache-Control'
p2915
asbag56
(g77
g58
NtRp2916
(dp2917
g61
(dp2918
g88
g89
ssg70
g2907
sg63
(lp2919
S':'
asbag56
(g77
g58
NtRp2920
(dp2921
g61
(dp2922
sg70
g2907
sg63
(lp2923
g56
(g57
g58
NtRp2924
(dp2925
g61
(dp2926
g69
I4
ssg70
g2920
sg63
(lp2927
S'no-store, no-cache, must-revalidate, post-check=0, pre-check=0'
p2928
asbasbasbag56
(g72
g58
NtRp2929
(dp2930
g61
(dp2931
sg70
g2903
sg63
(lp2932
g56
(g77
g58
NtRp2933
(dp2934
g61
(dp2935
g81
g82
ssg70
g2929
sg63
(lp2936
S'Content-Type'
p2937
asbag56
(g77
g58
NtRp2938
(dp2939
g61
(dp2940
g88
g89
ssg70
g2929
sg63
(lp2941
S':'
asbag56
(g77
g58
NtRp2942
(dp2943
g61
(dp2944
sg70
g2929
sg63
(lp2945
g56
(g57
g58
NtRp2946
(dp2947
g61
(dp2948
g69
I4
ssg70
g2942
sg63
(lp2949
S'text/html; charset=utf-8'
p2950
asbasbasbag56
(g72
g58
NtRp2951
(dp2952
g61
(dp2953
sg70
g2903
sg63
(lp2954
g56
(g77
g58
NtRp2955
(dp2956
g61
(dp2957
g81
g82
ssg70
g2951
sg63
(lp2958
S'Expires'
p2959
asbag56
(g77
g58
NtRp2960
(dp2961
g61
(dp2962
g88
g89
ssg70
g2951
sg63
(lp2963
S':'
asbag56
(g77
g58
NtRp2964
(dp2965
g61
(dp2966
sg70
g2951
sg63
(lp2967
g56
(g57
g58
NtRp2968
(dp2969
g61
(dp2970
g69
I4
ssg70
g2964
sg63
(lp2971
S'Sun, 03 Jul 2011 00:07:12 GMT'
p2972
asbasbasbag56
(g72
g58
NtRp2973
(dp2974
g61
(dp2975
sg70
g2903
sg63
(lp2976
g56
(g77
g58
NtRp2977
(dp2978
g61
(dp2979
g81
g82
ssg70
g2973
sg63
(lp2980
S'Pragma'
p2981
asbag56
(g77
g58
NtRp2982
(dp2983
g61
(dp2984
g88
g89
ssg70
g2973
sg63
(lp2985
S':'
asbag56
(g77
g58
NtRp2986
(dp2987
g61
(dp2988
sg70
g2973
sg63
(lp2989
g56
(g57
g58
NtRp2990
(dp2991
g61
(dp2992
g69
I4
ssg70
g2986
sg63
(lp2993
S'no-cache'
p2994
asbasbasbasbasbasbasbag56
(g72
g58
NtRp2995
(dp2996
g61
(dp2997
sg70
g2602
sg63
(lp2998
g56
(g77
g58
NtRp2999
(dp3000
g61
(dp3001
g81
g82
ssg70
g2995
sg63
(lp3002
S'menu'
p3003
asbag56
(g77
g58
NtRp3004
(dp3005
g61
(dp3006
g88
g89
ssg70
g2995
sg63
(lp3007
S':'
asbag56
(g77
g58
NtRp3008
(dp3009
g61
(dp3010
sg70
g2995
sg63
(lp3011
g56
(g57
g58
NtRp3012
(dp3013
g61
(dp3014
g69
I5
ssg70
g3008
sg63
(lp3015
g56
(g65
g58
NtRp3016
(dp3017
g61
(dp3018
g69
I4
ssg70
Nsg63
(lp3019
sbasbasbasbag56
(g72
g58
NtRp3020
(dp3021
g61
(dp3022
sg70
g2602
sg63
(lp3023
g56
(g77
g58
NtRp3024
(dp3025
g61
(dp3026
g81
g82
ssg70
g3020
sg63
(lp3027
S'meta'
p3028
asbag56
(g77
g58
NtRp3029
(dp3030
g61
(dp3031
g88
g89
ssg70
g3020
sg63
(lp3032
S':'
asbag56
(g77
g58
NtRp3033
(dp3034
g61
(dp3035
sg70
g3020
sg63
(lp3036
g56
(g57
g58
NtRp3037
(dp3038
g61
(dp3039
g69
I5
ssg70
g3033
sg63
(lp3040
g56
(g65
g58
NtRp3041
(dp3042
g61
(dp3043
g69
I4
ssg70
Nsg63
(lp3044
sbasbasbasbag56
(g72
g58
NtRp3045
(dp3046
g61
(dp3047
sg70
g2602
sg63
(lp3048
g56
(g77
g58
NtRp3049
(dp3050
g61
(dp3051
g81
g82
ssg70
g3045
sg63
(lp3052
S'postprocessing'
p3053
asbag56
(g77
g58
NtRp3054
(dp3055
g61
(dp3056
g88
g89
ssg70
g3045
sg63
(lp3057
S':'
asbag56
(g77
g58
NtRp3058
(dp3059
g61
(dp3060
sg70
g3045
sg63
(lp3061
g56
(g57
g58
NtRp3062
(dp3063
g61
(dp3064
g69
I5
ssg70
g3058
sg63
(lp3065
g56
(g65
g58
NtRp3066
(dp3067
g61
(dp3068
g69
I4
ssg70
Nsg63
(lp3069
sbasbasbasbag56
(g72
g58
NtRp3070
(dp3071
g61
(dp3072
sg70
g2602
sg63
(lp3073
g56
(g77
g58
NtRp3074
(dp3075
g61
(dp3076
g81
g82
ssg70
g3070
sg63
(lp3077
S'session_file'
p3078
asbag56
(g77
g58
NtRp3079
(dp3080
g61
(dp3081
g88
g89
ssg70
g3070
sg63
(lp3082
S':'
asbag56
(g77
g58
NtRp3083
(dp3084
g61
(dp3085
sg70
g3070
sg63
(lp3086
g56
(g57
g58
NtRp3087
(dp3088
g61
(dp3089
g69
I5
ssg70
g3083
sg63
(lp3090
S"<open file '/home/jacobbl/SENG265/pe2/codeAct_1.01/web2py/applications/codeAct/sessions/127.0.0.1-919396c9-dffc-4b6e-bb96-f08da977b37b', mode 'rb+' at 0x8fd4128>"
p3091
asbasbasbag56
(g72
g58
NtRp3092
(dp3093
g61
(dp3094
sg70
g2602
sg63
(lp3095
g56
(g77
g58
NtRp3096
(dp3097
g61
(dp3098
g81
g82
ssg70
g3092
sg63
(lp3099
S'session_filename'
p3100
asbag56
(g77
g58
NtRp3101
(dp3102
g61
(dp3103
g88
g89
ssg70
g3092
sg63
(lp3104
S':'
asbag56
(g77
g58
NtRp3105
(dp3106
g61
(dp3107
sg70
g3092
sg63
(lp3108
g56
(g57
g58
NtRp3109
(dp3110
g61
(dp3111
g69
I5
ssg70
g3105
sg63
(lp3112
S'/home/jacobbl/SENG265/pe2/codeAct_1.01/web2py/applications/codeAct/sessions/127.0.0.1-919396c9-dffc-4b6e-bb96-f08da977b37b'
p3113
asbasbasbag56
(g72
g58
NtRp3114
(dp3115
g61
(dp3116
sg70
g2602
sg63
(lp3117
g56
(g77
g58
NtRp3118
(dp3119
g61
(dp3120
g81
g82
ssg70
g3114
sg63
(lp3121
S'session_id'
p3122
asbag56
(g77
g58
NtRp3123
(dp3124
g61
(dp3125
g88
g89
ssg70
g3114
sg63
(lp3126
S':'
asbag56
(g77
g58
NtRp3127
(dp3128
g61
(dp3129
sg70
g3114
sg63
(lp3130
g56
(g57
g58
NtRp3131
(dp3132
g61
(dp3133
g69
I5
ssg70
g3127
sg63
(lp3134
S'127.0.0.1-919396c9-dffc-4b6e-bb96-f08da977b37b'
p3135
asbasbasbag56
(g72
g58
NtRp3136
(dp3137
g61
(dp3138
sg70
g2602
sg63
(lp3139
g56
(g77
g58
NtRp3140
(dp3141
g61
(dp3142
g81
g82
ssg70
g3136
sg63
(lp3143
S'session_id_name'
p3144
asbag56
(g77
g58
NtRp3145
(dp3146
g61
(dp3147
g88
g89
ssg70
g3136
sg63
(lp3148
S':'
asbag56
(g77
g58
NtRp3149
(dp3150
g61
(dp3151
sg70
g3136
sg63
(lp3152
g56
(g57
g58
NtRp3153
(dp3154
g61
(dp3155
g69
I5
ssg70
g3149
sg63
(lp3156
g2659
asbasbasbag56
(g72
g58
NtRp3157
(dp3158
g61
(dp3159
sg70
g2602
sg63
(lp3160
g56
(g77
g58
NtRp3161
(dp3162
g61
(dp3163
g81
g82
ssg70
g3157
sg63
(lp3164
S'session_locked'
p3165
asbag56
(g77
g58
NtRp3166
(dp3167
g61
(dp3168
g88
g89
ssg70
g3157
sg63
(lp3169
S':'
asbag56
(g77
g58
NtRp3170
(dp3171
g61
(dp3172
sg70
g3157
sg63
(lp3173
g56
(g57
g58
NtRp3174
(dp3175
g61
(dp3176
g69
I5
ssg70
g3170
sg63
(lp3177
g1385
asbasbasbag56
(g72
g58
NtRp3178
(dp3179
g61
(dp3180
sg70
g2602
sg63
(lp3181
g56
(g77
g58
NtRp3182
(dp3183
g61
(dp3184
g81
g82
ssg70
g3178
sg63
(lp3185
S'session_new'
p3186
asbag56
(g77
g58
NtRp3187
(dp3188
g61
(dp3189
g88
g89
ssg70
g3178
sg63
(lp3190
S':'
asbag56
(g77
g58
NtRp3191
(dp3192
g61
(dp3193
sg70
g3178
sg63
(lp3194
g56
(g57
g58
NtRp3195
(dp3196
g61
(dp3197
g69
I5
ssg70
g3191
sg63
(lp3198
g99
asbasbasbag56
(g72
g58
NtRp3199
(dp3200
g61
(dp3201
sg70
g2602
sg63
(lp3202
g56
(g77
g58
NtRp3203
(dp3204
g61
(dp3205
g81
g82
ssg70
g3199
sg63
(lp3206
S'status'
p3207
asbag56
(g77
g58
NtRp3208
(dp3209
g61
(dp3210
g88
g89
ssg70
g3199
sg63
(lp3211
S':'
asbag56
(g77
g58
NtRp3212
(dp3213
g61
(dp3214
sg70
g3199
sg63
(lp3215
g56
(g57
g58
NtRp3216
(dp3217
g61
(dp3218
g69
I5
ssg70
g3212
sg63
(lp3219
S'200'
p3220
asbasbasbag56
(g72
g58
NtRp3221
(dp3222
g61
(dp3223
sg70
g2602
sg63
(lp3224
g56
(g77
g58
NtRp3225
(dp3226
g61
(dp3227
g81
g82
ssg70
g3221
sg63
(lp3228
g1710
asbag56
(g77
g58
NtRp3229
(dp3230
g61
(dp3231
g88
g89
ssg70
g3221
sg63
(lp3232
S':'
asbag56
(g77
g58
NtRp3233
(dp3234
g61
(dp3235
sg70
g3221
sg63
(lp3236
g56
(g57
g58
NtRp3237
(dp3238
g61
(dp3239
g69
I5
ssg70
g3233
sg63
(lp3240
g1723
asbasbasbag56
(g72
g58
NtRp3241
(dp3242
g61
(dp3243
sg70
g2602
sg63
(lp3244
g56
(g77
g58
NtRp3245
(dp3246
g61
(dp3247
g81
g82
ssg70
g3241
sg63
(lp3248
S'view'
p3249
asbag56
(g77
g58
NtRp3250
(dp3251
g61
(dp3252
g88
g89
ssg70
g3241
sg63
(lp3253
S':'
asbag56
(g77
g58
NtRp3254
(dp3255
g61
(dp3256
sg70
g3241
sg63
(lp3257
g56
(g57
g58
NtRp3258
(dp3259
g61
(dp3260
g69
I5
ssg70
g3254
sg63
(lp3261
S'ca_controller/quiz.html'
p3262
asbasbasbasbasbsS'locals'
p3263
(dp3264
S'index'
p3265
S'0'
sS'self'
p3266
S'<ca_quiz.quiz instance>'
p3267
sssS'traceback'
p3268
S'Traceback (most recent call last):\n  File "/home/jacobbl/SENG265/pe2/codeAct_1.01/web2py/gluon/restricted.py", line 181, in restricted\n    exec ccode in environment\n  File "/home/jacobbl/SENG265/pe2/codeAct_1.01/web2py/applications/codeAct/controllers/ca_controller.py", line 85, in <module>\n  File "/home/jacobbl/SENG265/pe2/codeAct_1.01/web2py/gluon/globals.py", line 133, in <lambda>\n    self._caller = lambda f: f()\n  File "/home/jacobbl/SENG265/pe2/codeAct_1.01/web2py/applications/codeAct/controllers/ca_controller.py", line 67, in quiz\n    question = session[\'quiz\'].get_question(question_number-1)\n  File "/home/jacobbl/SENG265/pe2/codeAct_1.01/web2py/applications/codeAct/ca_quiz.py", line 63, in get_question\n    return self.question_list[index]\nIndexError: list index out of range\n'
p3269
s.