(dp1
S'output'
p2
S''
sS'layer'
p3
S'/Users/Jacob/dropbox/SEng265-Share/2/codeAct_1.01/web2py/applications/codeAct/controllers/ca_controller.py'
p4
sS'code'
p5
S"import sys\nimport time\nimport os\n\nimport ca_quiz as Quiz\nimport ca_log_create as log_create\n\nsys.path.append('applications/codeAct/controllers')\nimport ca_utility as utility\n\nsys.path.append('applications/codeAct/views/ca_controller')\nimport ca_question_HTML as question_HTML\n\nSERVERNAME = 'cdoku'\n\ndef ca_login():\n\tif not 'username' in request.vars.keys(): # not a submission\n\t\treturn dict(msg='')\n\telse: # request is a submission\n\t\t# get user list\n\t\tuser_list = 'allowed_users.txt'\n\t\t# check if student is registered in SENG265\n\t\tusers = open(os.path.join('../users/',user_list),\n\t\t 'r').read().split('\\n')\n\t\tif not request.vars['username'] in users:\n\t\t\treturn dict(\n\t\t\t msg = 'Not registered in the current session.')\n\t\t# authenticate username and password\n\t\tif os.uname()[1] == SERVERNAME:\n\t\t\tseng_auth = __import__('ca_seng_auth')\n\t\t\tif seng_auth.authenticate(request.vars['username'],\n\t\t\t request.vars['password']) != 0:\n\t\t\t\treturn dict(msg='Wrong username or password.')\n\t\tsession.login = request.vars['username']\n\t\tredirect(URL(r=request, f='quiz'))\n\ndef quiz():\n\t# the beginning of the quiz, create quiz and init answer_list\n\tif 'quiz_spec' in request.vars.keys():\n\t\tsession['quiz'] = Quiz.quiz(request.vars['quiz_spec'])\n\t\tsession['answer_list'] = utility.init_answer_list(\n\t\t session['quiz'])\n\t\t# initialize question_timer\n\t\tsession['question_timer'] = int(time.time())\n\t\t# reset the login\n\t\tif 'login' in session.keys():\n\t\t\tdel session['login']\n\n\t# if quiz does not exist, redirect to home page\n\tif not 'quiz' in session.keys():\n\t\tredirect(URL(r=request, f='ca_index'))\n\n\t# check login in marked mode\n\tif not 'login' in session.keys():\n\t\tif not session['quiz'].practice_mode: \n\t\t\tredirect(URL(r=request, f='ca_login'))\n\t\telse:\n\t\t\tsession['login'] = ''\n\n\t# init log_dir and log\n\tif session['quiz'].logged:\n\t\tlog_create.create_log(session['quiz'].log_dir,\n\t\t session['login'])\n\n\t# generate HTML code\n\tquestion_number = utility.get_question_number(request.vars)\n\tquestion = session['quiz'].get_question(question_number-1)\n\tutility.update_answer(question,question_number,session['answer_list'],\n\t request.vars)\n\tcode = question_HTML.generate_html(session['quiz'],question_number,\n\t session['answer_list'][question_number-1])\n\tcode = utility.get_result(code,question,question_number,\n\t session['quiz'].logged,session['quiz'].log_dir,\n\t session['quiz'].practice_mode,session['login'],\n\t session['answer_list'][question_number-1],\n\t request.vars,session['question_timer'])\n\tcode = utility.add_submit_label(code,session['quiz'].practice_mode)\n\tcode = utility.disable_navi_buttons(code,question_number,\n\t session['quiz'])\n\n\t# update question timer\n\tsession['question_timer'] = int(time.time())\n\treturn code\n\nresponse._vars=response._caller(quiz)\n"
p6
sS'snapshot'
p7
(dp8
S'exception'
p9
(dp10
S'__hash__'
p11
S"<method-wrapper '__hash__' of exceptions.IndexError object at 0xf47aa8>"
p12
sS'__setattr__'
p13
S"<method-wrapper '__setattr__' of exceptions.IndexError object at 0xf47aa8>"
p14
sS'__reduce_ex__'
p15
S'<built-in method __reduce_ex__ of exceptions.IndexError object at 0xf47aa8>'
p16
sS'__new__'
p17
S'<built-in method __new__ of type object at 0x4e30c0>'
p18
sS'__getitem__'
p19
S"<method-wrapper '__getitem__' of exceptions.IndexError object at 0xf47aa8>"
p20
sS'__setstate__'
p21
S'<built-in method __setstate__ of exceptions.IndexError object at 0xf47aa8>'
p22
sS'__reduce__'
p23
S'<built-in method __reduce__ of exceptions.IndexError object at 0xf47aa8>'
p24
sS'__str__'
p25
S"<method-wrapper '__str__' of exceptions.IndexError object at 0xf47aa8>"
p26
sS'args'
p27
S"('list index out of range',)"
p28
sS'__getattribute__'
p29
S"<method-wrapper '__getattribute__' of exceptions.IndexError object at 0xf47aa8>"
p30
sS'__class__'
p31
S"<type 'exceptions.IndexError'>"
p32
sS'__delattr__'
p33
S"<method-wrapper '__delattr__' of exceptions.IndexError object at 0xf47aa8>"
p34
sS'__repr__'
p35
S"<method-wrapper '__repr__' of exceptions.IndexError object at 0xf47aa8>"
p36
sS'__dict__'
p37
S'{}'
p38
sS'__doc__'
p39
S"'Sequence index out of range.'"
p40
sS'__init__'
p41
S"<method-wrapper '__init__' of exceptions.IndexError object at 0xf47aa8>"
p42
ssS'evalue'
p43
S'list index out of range'
p44
sS'request'
p45
ccopy_reg
_reconstructor
p46
(cgluon.html
BEAUTIFY
p47
c__builtin__
object
p48
NtRp49
(dp50
S'attributes'
p51
(dp52
sS'components'
p53
(lp54
g46
(cgluon.html
TABLE
p55
g48
NtRp56
(dp57
g51
(dp58
S'level'
p59
I5
ssS'parent'
p60
Nsg53
(lp61
g46
(cgluon.html
TR
p62
g48
NtRp63
(dp64
g51
(dp65
sg60
g56
sg53
(lp66
g46
(cgluon.html
TD
p67
g48
NtRp68
(dp69
g51
(dp70
S'_style'
p71
S'font-weight:bold;'
p72
ssg60
g63
sg53
(lp73
S'ajax'
p74
asbag46
(g67
g48
NtRp75
(dp76
g51
(dp77
S'_valign'
p78
S'top'
p79
ssg60
g63
sg53
(lp80
S':'
asbag46
(g67
g48
NtRp81
(dp82
g51
(dp83
sg60
g63
sg53
(lp84
g46
(g47
g48
NtRp85
(dp86
g51
(dp87
g59
I5
ssg60
g81
sg53
(lp88
S'False'
p89
asbasbasbag46
(g62
g48
NtRp90
(dp91
g51
(dp92
sg60
g56
sg53
(lp93
g46
(g67
g48
NtRp94
(dp95
g51
(dp96
g71
g72
ssg60
g90
sg53
(lp97
S'application'
p98
asbag46
(g67
g48
NtRp99
(dp100
g51
(dp101
g78
g79
ssg60
g90
sg53
(lp102
S':'
asbag46
(g67
g48
NtRp103
(dp104
g51
(dp105
sg60
g90
sg53
(lp106
g46
(g47
g48
NtRp107
(dp108
g51
(dp109
g59
I5
ssg60
g103
sg53
(lp110
S'codeAct'
p111
asbasbasbag46
(g62
g48
NtRp112
(dp113
g51
(dp114
sg60
g56
sg53
(lp115
g46
(g67
g48
NtRp116
(dp117
g51
(dp118
g71
g72
ssg60
g112
sg53
(lp119
g27
asbag46
(g67
g48
NtRp120
(dp121
g51
(dp122
g78
g79
ssg60
g112
sg53
(lp123
S':'
asbag46
(g67
g48
NtRp124
(dp125
g51
(dp126
sg60
g112
sg53
(lp127
g46
(g47
g48
NtRp128
(dp129
g51
(dp130
g59
I5
ssg60
g124
sg53
(lp131
g46
(g55
g48
NtRp132
(dp133
g51
(dp134
g59
I4
ssg60
Nsg53
(lp135
sbasbasbasbag46
(g62
g48
NtRp136
(dp137
g51
(dp138
sg60
g56
sg53
(lp139
g46
(g67
g48
NtRp140
(dp141
g51
(dp142
g71
g72
ssg60
g136
sg53
(lp143
S'body'
p144
asbag46
(g67
g48
NtRp145
(dp146
g51
(dp147
g78
g79
ssg60
g136
sg53
(lp148
S':'
asbag46
(g67
g48
NtRp149
(dp150
g51
(dp151
sg60
g136
sg53
(lp152
g46
(g47
g48
NtRp153
(dp154
g51
(dp155
g59
I5
ssg60
g149
sg53
(lp156
S'<cStringIO.StringO object at 0xd96720>'
p157
asbasbasbag46
(g62
g48
NtRp158
(dp159
g51
(dp160
sg60
g56
sg53
(lp161
g46
(g67
g48
NtRp162
(dp163
g51
(dp164
g71
g72
ssg60
g158
sg53
(lp165
S'client'
p166
asbag46
(g67
g48
NtRp167
(dp168
g51
(dp169
g78
g79
ssg60
g158
sg53
(lp170
S':'
asbag46
(g67
g48
NtRp171
(dp172
g51
(dp173
sg60
g158
sg53
(lp174
g46
(g47
g48
NtRp175
(dp176
g51
(dp177
g59
I5
ssg60
g171
sg53
(lp178
S'127.0.0.1'
p179
asbasbasbag46
(g62
g48
NtRp180
(dp181
g51
(dp182
sg60
g56
sg53
(lp183
g46
(g67
g48
NtRp184
(dp185
g51
(dp186
g71
g72
ssg60
g180
sg53
(lp187
S'controller'
p188
asbag46
(g67
g48
NtRp189
(dp190
g51
(dp191
g78
g79
ssg60
g180
sg53
(lp192
S':'
asbag46
(g67
g48
NtRp193
(dp194
g51
(dp195
sg60
g180
sg53
(lp196
g46
(g47
g48
NtRp197
(dp198
g51
(dp199
g59
I5
ssg60
g193
sg53
(lp200
S'ca_controller'
p201
asbasbasbag46
(g62
g48
NtRp202
(dp203
g51
(dp204
sg60
g56
sg53
(lp205
g46
(g67
g48
NtRp206
(dp207
g51
(dp208
g71
g72
ssg60
g202
sg53
(lp209
S'cookies'
p210
asbag46
(g67
g48
NtRp211
(dp212
g51
(dp213
g78
g79
ssg60
g202
sg53
(lp214
S':'
asbag46
(g67
g48
NtRp215
(dp216
g51
(dp217
sg60
g202
sg53
(lp218
g46
(g47
g48
NtRp219
(dp220
g51
(dp221
g59
I5
ssg60
g215
sg53
(lp222
g46
(g55
g48
NtRp223
(dp224
g51
(dp225
g59
I4
ssg60
Nsg53
(lp226
sbasbasbasbag46
(g62
g48
NtRp227
(dp228
g51
(dp229
sg60
g56
sg53
(lp230
g46
(g67
g48
NtRp231
(dp232
g51
(dp233
g71
g72
ssg60
g227
sg53
(lp234
S'env'
p235
asbag46
(g67
g48
NtRp236
(dp237
g51
(dp238
g78
g79
ssg60
g227
sg53
(lp239
S':'
asbag46
(g67
g48
NtRp240
(dp241
g51
(dp242
sg60
g227
sg53
(lp243
g46
(g47
g48
NtRp244
(dp245
g51
(dp246
g59
I5
ssg60
g240
sg53
(lp247
g46
(g55
g48
NtRp248
(dp249
g51
(dp250
g59
I4
ssg60
Nsg53
(lp251
g46
(g62
g48
NtRp252
(dp253
g51
(dp254
sg60
g248
sg53
(lp255
g46
(g67
g48
NtRp256
(dp257
g51
(dp258
g71
g72
ssg60
g252
sg53
(lp259
S'app_folders'
p260
asbag46
(g67
g48
NtRp261
(dp262
g51
(dp263
g78
g79
ssg60
g252
sg53
(lp264
S':'
asbag46
(g67
g48
NtRp265
(dp266
g51
(dp267
sg60
g252
sg53
(lp268
g46
(g47
g48
NtRp269
(dp270
g51
(dp271
g59
I4
ssg60
g265
sg53
(lp272
S"set(['/Users/Jacob/dropbox/SEng265-Share/2/codeAct_1.01/web2py/applications/codeAct/'])"
p273
asbasbasbag46
(g62
g48
NtRp274
(dp275
g51
(dp276
sg60
g248
sg53
(lp277
g46
(g67
g48
NtRp278
(dp279
g51
(dp280
g71
g72
ssg60
g274
sg53
(lp281
S'applications_parent'
p282
asbag46
(g67
g48
NtRp283
(dp284
g51
(dp285
g78
g79
ssg60
g274
sg53
(lp286
S':'
asbag46
(g67
g48
NtRp287
(dp288
g51
(dp289
sg60
g274
sg53
(lp290
g46
(g47
g48
NtRp291
(dp292
g51
(dp293
g59
I4
ssg60
g287
sg53
(lp294
S'/Users/Jacob/dropbox/SEng265-Share/2/codeAct_1.01/web2py'
p295
asbasbasbag46
(g62
g48
NtRp296
(dp297
g51
(dp298
sg60
g248
sg53
(lp299
g46
(g67
g48
NtRp300
(dp301
g51
(dp302
g71
g72
ssg60
g296
sg53
(lp303
S'cmd_args'
p304
asbag46
(g67
g48
NtRp305
(dp306
g51
(dp307
g78
g79
ssg60
g296
sg53
(lp308
S':'
asbag46
(g67
g48
NtRp309
(dp310
g51
(dp311
sg60
g296
sg53
(lp312
g46
(g47
g48
NtRp313
(dp314
g51
(dp315
g59
I4
ssg60
g309
sg53
(lp316
g46
(g55
g48
NtRp317
(dp318
g51
(dp319
g59
I3
ssg60
Nsg53
(lp320
sbasbasbasbag46
(g62
g48
NtRp321
(dp322
g51
(dp323
sg60
g248
sg53
(lp324
g46
(g67
g48
NtRp325
(dp326
g51
(dp327
g71
g72
ssg60
g321
sg53
(lp328
S'cmd_options'
p329
asbag46
(g67
g48
NtRp330
(dp331
g51
(dp332
g78
g79
ssg60
g321
sg53
(lp333
S':'
asbag46
(g67
g48
NtRp334
(dp335
g51
(dp336
sg60
g321
sg53
(lp337
g46
(g47
g48
NtRp338
(dp339
g51
(dp340
g59
I4
ssg60
g334
sg53
(lp341
S"<Values at 0xd92170: {'verbose': False, 'ip': '127.0.0.1', 'shutdown_timeout': 5, 'taskbar': False, 'port': 8080, 'maxthreads': None, 'softcron': False, 'server_name': 'Evolution-Jacobs-MacBook-3.local', 'bpython': False, 'nogui': False, 'nocron': False, 'extcron': False, 'debuglevel': 30, 'test': None, 'folder': '/Users/Jacob/dropbox/SEng265-Share/2/codeAct_1.01/web2py', 'config': '', 'import_models': False, 'winservice': '', 'shell': None, 'run': '', 'log_filename': 'httpserver.log', 'args': [''], 'profiler_filename': None, 'ssl_private_key': '', 'password': 'password', 'request_queue_size': 5, 'ssl_certificate': '', 'cronjob': False, 'plain': False, 'quiet': False, 'interfaces': None, 'minthreads': None, 'timeout': 10, 'numthreads': None, 'pid_filename': 'httpserver.pid'}>"
p342
asbasbasbag46
(g62
g48
NtRp343
(dp344
g51
(dp345
sg60
g248
sg53
(lp346
g46
(g67
g48
NtRp347
(dp348
g51
(dp349
g71
g72
ssg60
g343
sg53
(lp350
S'db_sessions'
p351
asbag46
(g67
g48
NtRp352
(dp353
g51
(dp354
g78
g79
ssg60
g343
sg53
(lp355
S':'
asbag46
(g67
g48
NtRp356
(dp357
g51
(dp358
sg60
g343
sg53
(lp359
g46
(g47
g48
NtRp360
(dp361
g51
(dp362
g59
I4
ssg60
g356
sg53
(lp363
S'set([])'
p364
asbasbasbag46
(g62
g48
NtRp365
(dp366
g51
(dp367
sg60
g248
sg53
(lp368
g46
(g67
g48
NtRp369
(dp370
g51
(dp371
g71
g72
ssg60
g365
sg53
(lp372
S'debugging'
p373
asbag46
(g67
g48
NtRp374
(dp375
g51
(dp376
g78
g79
ssg60
g365
sg53
(lp377
S':'
asbag46
(g67
g48
NtRp378
(dp379
g51
(dp380
sg60
g365
sg53
(lp381
g46
(g47
g48
NtRp382
(dp383
g51
(dp384
g59
I4
ssg60
g378
sg53
(lp385
g89
asbasbasbag46
(g62
g48
NtRp386
(dp387
g51
(dp388
sg60
g248
sg53
(lp389
g46
(g67
g48
NtRp390
(dp391
g51
(dp392
g71
g72
ssg60
g386
sg53
(lp393
S'gluon_parent'
p394
asbag46
(g67
g48
NtRp395
(dp396
g51
(dp397
g78
g79
ssg60
g386
sg53
(lp398
S':'
asbag46
(g67
g48
NtRp399
(dp400
g51
(dp401
sg60
g386
sg53
(lp402
g46
(g47
g48
NtRp403
(dp404
g51
(dp405
g59
I4
ssg60
g399
sg53
(lp406
S'/Users/Jacob/dropbox/SEng265-Share/2/codeAct_1.01/web2py'
p407
asbasbasbag46
(g62
g48
NtRp408
(dp409
g51
(dp410
sg60
g248
sg53
(lp411
g46
(g67
g48
NtRp412
(dp413
g51
(dp414
g71
g72
ssg60
g408
sg53
(lp415
S'http_accept'
p416
asbag46
(g67
g48
NtRp417
(dp418
g51
(dp419
g78
g79
ssg60
g408
sg53
(lp420
S':'
asbag46
(g67
g48
NtRp421
(dp422
g51
(dp423
sg60
g408
sg53
(lp424
g46
(g47
g48
NtRp425
(dp426
g51
(dp427
g59
I4
ssg60
g421
sg53
(lp428
S'text/html,application/xhtml+xml,application/xml;q=0.9,*/*;q=0.8'
p429
asbasbasbag46
(g62
g48
NtRp430
(dp431
g51
(dp432
sg60
g248
sg53
(lp433
g46
(g67
g48
NtRp434
(dp435
g51
(dp436
g71
g72
ssg60
g430
sg53
(lp437
S'http_accept_charset'
p438
asbag46
(g67
g48
NtRp439
(dp440
g51
(dp441
g78
g79
ssg60
g430
sg53
(lp442
S':'
asbag46
(g67
g48
NtRp443
(dp444
g51
(dp445
sg60
g430
sg53
(lp446
g46
(g47
g48
NtRp447
(dp448
g51
(dp449
g59
I4
ssg60
g443
sg53
(lp450
S'ISO-8859-1,utf-8;q=0.7,*;q=0.3'
p451
asbasbasbag46
(g62
g48
NtRp452
(dp453
g51
(dp454
sg60
g248
sg53
(lp455
g46
(g67
g48
NtRp456
(dp457
g51
(dp458
g71
g72
ssg60
g452
sg53
(lp459
S'http_accept_encoding'
p460
asbag46
(g67
g48
NtRp461
(dp462
g51
(dp463
g78
g79
ssg60
g452
sg53
(lp464
S':'
asbag46
(g67
g48
NtRp465
(dp466
g51
(dp467
sg60
g452
sg53
(lp468
g46
(g47
g48
NtRp469
(dp470
g51
(dp471
g59
I4
ssg60
g465
sg53
(lp472
S'gzip,deflate,sdch'
p473
asbasbasbag46
(g62
g48
NtRp474
(dp475
g51
(dp476
sg60
g248
sg53
(lp477
g46
(g67
g48
NtRp478
(dp479
g51
(dp480
g71
g72
ssg60
g474
sg53
(lp481
S'http_accept_language'
p482
asbag46
(g67
g48
NtRp483
(dp484
g51
(dp485
g78
g79
ssg60
g474
sg53
(lp486
S':'
asbag46
(g67
g48
NtRp487
(dp488
g51
(dp489
sg60
g474
sg53
(lp490
g46
(g47
g48
NtRp491
(dp492
g51
(dp493
g59
I4
ssg60
g487
sg53
(lp494
S'en-US,en;q=0.8'
p495
asbasbasbag46
(g62
g48
NtRp496
(dp497
g51
(dp498
sg60
g248
sg53
(lp499
g46
(g67
g48
NtRp500
(dp501
g51
(dp502
g71
g72
ssg60
g496
sg53
(lp503
S'http_connection'
p504
asbag46
(g67
g48
NtRp505
(dp506
g51
(dp507
g78
g79
ssg60
g496
sg53
(lp508
S':'
asbag46
(g67
g48
NtRp509
(dp510
g51
(dp511
sg60
g496
sg53
(lp512
g46
(g47
g48
NtRp513
(dp514
g51
(dp515
g59
I4
ssg60
g509
sg53
(lp516
S'keep-alive'
p517
asbasbasbag46
(g62
g48
NtRp518
(dp519
g51
(dp520
sg60
g248
sg53
(lp521
g46
(g67
g48
NtRp522
(dp523
g51
(dp524
g71
g72
ssg60
g518
sg53
(lp525
S'http_host'
p526
asbag46
(g67
g48
NtRp527
(dp528
g51
(dp529
g78
g79
ssg60
g518
sg53
(lp530
S':'
asbag46
(g67
g48
NtRp531
(dp532
g51
(dp533
sg60
g518
sg53
(lp534
g46
(g47
g48
NtRp535
(dp536
g51
(dp537
g59
I4
ssg60
g531
sg53
(lp538
S'localhost:8080'
p539
asbasbasbag46
(g62
g48
NtRp540
(dp541
g51
(dp542
sg60
g248
sg53
(lp543
g46
(g67
g48
NtRp544
(dp545
g51
(dp546
g71
g72
ssg60
g540
sg53
(lp547
S'http_referer'
p548
asbag46
(g67
g48
NtRp549
(dp550
g51
(dp551
g78
g79
ssg60
g540
sg53
(lp552
S':'
asbag46
(g67
g48
NtRp553
(dp554
g51
(dp555
sg60
g540
sg53
(lp556
g46
(g47
g48
NtRp557
(dp558
g51
(dp559
g59
I4
ssg60
g553
sg53
(lp560
S'http://localhost:8080/codeAct/static/ca_index.html'
p561
asbasbasbag46
(g62
g48
NtRp562
(dp563
g51
(dp564
sg60
g248
sg53
(lp565
g46
(g67
g48
NtRp566
(dp567
g51
(dp568
g71
g72
ssg60
g562
sg53
(lp569
S'http_user_agent'
p570
asbag46
(g67
g48
NtRp571
(dp572
g51
(dp573
g78
g79
ssg60
g562
sg53
(lp574
S':'
asbag46
(g67
g48
NtRp575
(dp576
g51
(dp577
sg60
g562
sg53
(lp578
g46
(g47
g48
NtRp579
(dp580
g51
(dp581
g59
I4
ssg60
g575
sg53
(lp582
S'Mozilla/5.0 (Macintosh; Intel Mac OS X 10_5_8) AppleWebKit/534.30 (KHTML, like Gecko) Chrome/12.0.742.122 Safari/534.30'
p583
asbasbasbag46
(g62
g48
NtRp584
(dp585
g51
(dp586
sg60
g248
sg53
(lp587
g46
(g67
g48
NtRp588
(dp589
g51
(dp590
g71
g72
ssg60
g584
sg53
(lp591
S'path_info'
p592
asbag46
(g67
g48
NtRp593
(dp594
g51
(dp595
g78
g79
ssg60
g584
sg53
(lp596
S':'
asbag46
(g67
g48
NtRp597
(dp598
g51
(dp599
sg60
g584
sg53
(lp600
g46
(g47
g48
NtRp601
(dp602
g51
(dp603
g59
I4
ssg60
g597
sg53
(lp604
S'/codeAct/ca_controller/quiz.html'
p605
asbasbasbag46
(g62
g48
NtRp606
(dp607
g51
(dp608
sg60
g248
sg53
(lp609
g46
(g67
g48
NtRp610
(dp611
g51
(dp612
g71
g72
ssg60
g606
sg53
(lp613
S'query_string'
p614
asbag46
(g67
g48
NtRp615
(dp616
g51
(dp617
g78
g79
ssg60
g606
sg53
(lp618
S':'
asbag46
(g67
g48
NtRp619
(dp620
g51
(dp621
sg60
g606
sg53
(lp622
g46
(g47
g48
NtRp623
(dp624
g51
(dp625
g59
I4
ssg60
g619
sg53
(lp626
S'quiz_spec=../quiz_specs/min_io_alone'
p627
asbasbasbag46
(g62
g48
NtRp628
(dp629
g51
(dp630
sg60
g248
sg53
(lp631
g46
(g67
g48
NtRp632
(dp633
g51
(dp634
g71
g72
ssg60
g628
sg53
(lp635
S'remote_addr'
p636
asbag46
(g67
g48
NtRp637
(dp638
g51
(dp639
g78
g79
ssg60
g628
sg53
(lp640
S':'
asbag46
(g67
g48
NtRp641
(dp642
g51
(dp643
sg60
g628
sg53
(lp644
g46
(g47
g48
NtRp645
(dp646
g51
(dp647
g59
I4
ssg60
g641
sg53
(lp648
g179
asbasbasbag46
(g62
g48
NtRp649
(dp650
g51
(dp651
sg60
g248
sg53
(lp652
g46
(g67
g48
NtRp653
(dp654
g51
(dp655
g71
g72
ssg60
g649
sg53
(lp656
S'remote_port'
p657
asbag46
(g67
g48
NtRp658
(dp659
g51
(dp660
g78
g79
ssg60
g649
sg53
(lp661
S':'
asbag46
(g67
g48
NtRp662
(dp663
g51
(dp664
sg60
g649
sg53
(lp665
g46
(g47
g48
NtRp666
(dp667
g51
(dp668
g59
I4
ssg60
g662
sg53
(lp669
S'60073'
p670
asbasbasbag46
(g62
g48
NtRp671
(dp672
g51
(dp673
sg60
g248
sg53
(lp674
g46
(g67
g48
NtRp675
(dp676
g51
(dp677
g71
g72
ssg60
g671
sg53
(lp678
S'request_method'
p679
asbag46
(g67
g48
NtRp680
(dp681
g51
(dp682
g78
g79
ssg60
g671
sg53
(lp683
S':'
asbag46
(g67
g48
NtRp684
(dp685
g51
(dp686
sg60
g671
sg53
(lp687
g46
(g47
g48
NtRp688
(dp689
g51
(dp690
g59
I4
ssg60
g684
sg53
(lp691
S'GET'
p692
asbasbasbag46
(g62
g48
NtRp693
(dp694
g51
(dp695
sg60
g248
sg53
(lp696
g46
(g67
g48
NtRp697
(dp698
g51
(dp699
g71
g72
ssg60
g693
sg53
(lp700
S'script_name'
p701
asbag46
(g67
g48
NtRp702
(dp703
g51
(dp704
g78
g79
ssg60
g693
sg53
(lp705
S':'
asbag46
(g67
g48
NtRp706
(dp707
g51
(dp708
sg60
g693
sg53
(lp709
g46
(g47
g48
NtRp710
(dp711
g51
(dp712
g59
I4
ssg60
g706
sg53
(lp713
S''
asbasbasbag46
(g62
g48
NtRp714
(dp715
g51
(dp716
sg60
g248
sg53
(lp717
g46
(g67
g48
NtRp718
(dp719
g51
(dp720
g71
g72
ssg60
g714
sg53
(lp721
S'server_name'
p722
asbag46
(g67
g48
NtRp723
(dp724
g51
(dp725
g78
g79
ssg60
g714
sg53
(lp726
S':'
asbag46
(g67
g48
NtRp727
(dp728
g51
(dp729
sg60
g714
sg53
(lp730
g46
(g47
g48
NtRp731
(dp732
g51
(dp733
g59
I4
ssg60
g727
sg53
(lp734
S'Evolution-Jacobs-MacBook-3.local'
p735
asbasbasbag46
(g62
g48
NtRp736
(dp737
g51
(dp738
sg60
g248
sg53
(lp739
g46
(g67
g48
NtRp740
(dp741
g51
(dp742
g71
g72
ssg60
g736
sg53
(lp743
S'server_port'
p744
asbag46
(g67
g48
NtRp745
(dp746
g51
(dp747
g78
g79
ssg60
g736
sg53
(lp748
S':'
asbag46
(g67
g48
NtRp749
(dp750
g51
(dp751
sg60
g736
sg53
(lp752
g46
(g47
g48
NtRp753
(dp754
g51
(dp755
g59
I4
ssg60
g749
sg53
(lp756
S'8080'
p757
asbasbasbag46
(g62
g48
NtRp758
(dp759
g51
(dp760
sg60
g248
sg53
(lp761
g46
(g67
g48
NtRp762
(dp763
g51
(dp764
g71
g72
ssg60
g758
sg53
(lp765
S'server_protocol'
p766
asbag46
(g67
g48
NtRp767
(dp768
g51
(dp769
g78
g79
ssg60
g758
sg53
(lp770
S':'
asbag46
(g67
g48
NtRp771
(dp772
g51
(dp773
sg60
g758
sg53
(lp774
g46
(g47
g48
NtRp775
(dp776
g51
(dp777
g59
I4
ssg60
g771
sg53
(lp778
S'HTTP/1.1'
p779
asbasbasbag46
(g62
g48
NtRp780
(dp781
g51
(dp782
sg60
g248
sg53
(lp783
g46
(g67
g48
NtRp784
(dp785
g51
(dp786
g71
g72
ssg60
g780
sg53
(lp787
S'server_software'
p788
asbag46
(g67
g48
NtRp789
(dp790
g51
(dp791
g78
g79
ssg60
g780
sg53
(lp792
S':'
asbag46
(g67
g48
NtRp793
(dp794
g51
(dp795
sg60
g780
sg53
(lp796
g46
(g47
g48
NtRp797
(dp798
g51
(dp799
g59
I4
ssg60
g793
sg53
(lp800
S'Rocket 1.2.2'
p801
asbasbasbag46
(g62
g48
NtRp802
(dp803
g51
(dp804
sg60
g248
sg53
(lp805
g46
(g67
g48
NtRp806
(dp807
g51
(dp808
g71
g72
ssg60
g802
sg53
(lp809
S'web2py_crontype'
p810
asbag46
(g67
g48
NtRp811
(dp812
g51
(dp813
g78
g79
ssg60
g802
sg53
(lp814
S':'
asbag46
(g67
g48
NtRp815
(dp816
g51
(dp817
sg60
g802
sg53
(lp818
g46
(g47
g48
NtRp819
(dp820
g51
(dp821
g59
I4
ssg60
g815
sg53
(lp822
S'hard'
p823
asbasbasbag46
(g62
g48
NtRp824
(dp825
g51
(dp826
sg60
g248
sg53
(lp827
g46
(g67
g48
NtRp828
(dp829
g51
(dp830
g71
g72
ssg60
g824
sg53
(lp831
S'web2py_path'
p832
asbag46
(g67
g48
NtRp833
(dp834
g51
(dp835
g78
g79
ssg60
g824
sg53
(lp836
S':'
asbag46
(g67
g48
NtRp837
(dp838
g51
(dp839
sg60
g824
sg53
(lp840
g46
(g47
g48
NtRp841
(dp842
g51
(dp843
g59
I4
ssg60
g837
sg53
(lp844
g295
asbasbasbag46
(g62
g48
NtRp845
(dp846
g51
(dp847
sg60
g248
sg53
(lp848
g46
(g67
g48
NtRp849
(dp850
g51
(dp851
g71
g72
ssg60
g845
sg53
(lp852
S'web2py_version'
p853
asbag46
(g67
g48
NtRp854
(dp855
g51
(dp856
g78
g79
ssg60
g845
sg53
(lp857
S':'
asbag46
(g67
g48
NtRp858
(dp859
g51
(dp860
sg60
g845
sg53
(lp861
g46
(g47
g48
NtRp862
(dp863
g51
(dp864
g59
I4
ssg60
g858
sg53
(lp865
S'Version 1.95.1 (2011-04-25 15:04:14)\n'
p866
asbasbasbag46
(g62
g48
NtRp867
(dp868
g51
(dp869
sg60
g248
sg53
(lp870
g46
(g67
g48
NtRp871
(dp872
g51
(dp873
g71
g72
ssg60
g867
sg53
(lp874
S'wsgi_errors'
p875
asbag46
(g67
g48
NtRp876
(dp877
g51
(dp878
g78
g79
ssg60
g867
sg53
(lp879
S':'
asbag46
(g67
g48
NtRp880
(dp881
g51
(dp882
sg60
g867
sg53
(lp883
g46
(g47
g48
NtRp884
(dp885
g51
(dp886
g59
I4
ssg60
g880
sg53
(lp887
S"<open file '<stderr>', mode 'w' at 0x160b0>"
p888
asbasbasbag46
(g62
g48
NtRp889
(dp890
g51
(dp891
sg60
g248
sg53
(lp892
g46
(g67
g48
NtRp893
(dp894
g51
(dp895
g71
g72
ssg60
g889
sg53
(lp896
S'wsgi_file_wrapper'
p897
asbag46
(g67
g48
NtRp898
(dp899
g51
(dp900
g78
g79
ssg60
g889
sg53
(lp901
S':'
asbag46
(g67
g48
NtRp902
(dp903
g51
(dp904
sg60
g889
sg53
(lp905
g46
(g47
g48
NtRp906
(dp907
g51
(dp908
g59
I4
ssg60
g902
sg53
(lp909
S'<class gluon.rocket.FileWrapper at 0xeb9330>'
p910
asbasbasbag46
(g62
g48
NtRp911
(dp912
g51
(dp913
sg60
g248
sg53
(lp914
g46
(g67
g48
NtRp915
(dp916
g51
(dp917
g71
g72
ssg60
g911
sg53
(lp918
S'wsgi_input'
p919
asbag46
(g67
g48
NtRp920
(dp921
g51
(dp922
g78
g79
ssg60
g911
sg53
(lp923
S':'
asbag46
(g67
g48
NtRp924
(dp925
g51
(dp926
sg60
g911
sg53
(lp927
g46
(g47
g48
NtRp928
(dp929
g51
(dp930
g59
I4
ssg60
g924
sg53
(lp931
S'<socket._fileobject object at 0xbf5f48>'
p932
asbasbasbag46
(g62
g48
NtRp933
(dp934
g51
(dp935
sg60
g248
sg53
(lp936
g46
(g67
g48
NtRp937
(dp938
g51
(dp939
g71
g72
ssg60
g933
sg53
(lp940
S'wsgi_multiprocess'
p941
asbag46
(g67
g48
NtRp942
(dp943
g51
(dp944
g78
g79
ssg60
g933
sg53
(lp945
S':'
asbag46
(g67
g48
NtRp946
(dp947
g51
(dp948
sg60
g933
sg53
(lp949
g46
(g47
g48
NtRp950
(dp951
g51
(dp952
g59
I4
ssg60
g946
sg53
(lp953
g89
asbasbasbag46
(g62
g48
NtRp954
(dp955
g51
(dp956
sg60
g248
sg53
(lp957
g46
(g67
g48
NtRp958
(dp959
g51
(dp960
g71
g72
ssg60
g954
sg53
(lp961
S'wsgi_multithread'
p962
asbag46
(g67
g48
NtRp963
(dp964
g51
(dp965
g78
g79
ssg60
g954
sg53
(lp966
S':'
asbag46
(g67
g48
NtRp967
(dp968
g51
(dp969
sg60
g954
sg53
(lp970
g46
(g47
g48
NtRp971
(dp972
g51
(dp973
g59
I4
ssg60
g967
sg53
(lp974
S'True'
p975
asbasbasbag46
(g62
g48
NtRp976
(dp977
g51
(dp978
sg60
g248
sg53
(lp979
g46
(g67
g48
NtRp980
(dp981
g51
(dp982
g71
g72
ssg60
g976
sg53
(lp983
S'wsgi_run_once'
p984
asbag46
(g67
g48
NtRp985
(dp986
g51
(dp987
g78
g79
ssg60
g976
sg53
(lp988
S':'
asbag46
(g67
g48
NtRp989
(dp990
g51
(dp991
sg60
g976
sg53
(lp992
g46
(g47
g48
NtRp993
(dp994
g51
(dp995
g59
I4
ssg60
g989
sg53
(lp996
g89
asbasbasbag46
(g62
g48
NtRp997
(dp998
g51
(dp999
sg60
g248
sg53
(lp1000
g46
(g67
g48
NtRp1001
(dp1002
g51
(dp1003
g71
g72
ssg60
g997
sg53
(lp1004
S'wsgi_url_scheme'
p1005
asbag46
(g67
g48
NtRp1006
(dp1007
g51
(dp1008
g78
g79
ssg60
g997
sg53
(lp1009
S':'
asbag46
(g67
g48
NtRp1010
(dp1011
g51
(dp1012
sg60
g997
sg53
(lp1013
g46
(g47
g48
NtRp1014
(dp1015
g51
(dp1016
g59
I4
ssg60
g1010
sg53
(lp1017
S'http'
p1018
asbasbasbag46
(g62
g48
NtRp1019
(dp1020
g51
(dp1021
sg60
g248
sg53
(lp1022
g46
(g67
g48
NtRp1023
(dp1024
g51
(dp1025
g71
g72
ssg60
g1019
sg53
(lp1026
S'wsgi_version'
p1027
asbag46
(g67
g48
NtRp1028
(dp1029
g51
(dp1030
g78
g79
ssg60
g1019
sg53
(lp1031
S':'
asbag46
(g67
g48
NtRp1032
(dp1033
g51
(dp1034
sg60
g1019
sg53
(lp1035
g46
(g47
g48
NtRp1036
(dp1037
g51
(dp1038
g59
I4
ssg60
g1032
sg53
(lp1039
g46
(g55
g48
NtRp1040
(dp1041
g51
(dp1042
g59
I3
ssg60
Nsg53
(lp1043
g46
(g62
g48
NtRp1044
(dp1045
g51
(dp1046
sg60
g1040
sg53
(lp1047
g46
(g67
g48
NtRp1048
(dp1049
g51
(dp1050
sg60
g1044
sg53
(lp1051
g46
(g47
g48
NtRp1052
(dp1053
g51
(dp1054
g59
I3
ssg60
g1048
sg53
(lp1055
S'1'
asbasbasbag46
(g62
g48
NtRp1056
(dp1057
g51
(dp1058
sg60
g1040
sg53
(lp1059
g46
(g67
g48
NtRp1060
(dp1061
g51
(dp1062
sg60
g1056
sg53
(lp1063
g46
(g47
g48
NtRp1064
(dp1065
g51
(dp1066
g59
I3
ssg60
g1060
sg53
(lp1067
S'0'
asbasbasbasbasbasbasbasbasbasbasbag46
(g62
g48
NtRp1068
(dp1069
g51
(dp1070
sg60
g56
sg53
(lp1071
g46
(g67
g48
NtRp1072
(dp1073
g51
(dp1074
g71
g72
ssg60
g1068
sg53
(lp1075
S'extension'
p1076
asbag46
(g67
g48
NtRp1077
(dp1078
g51
(dp1079
g78
g79
ssg60
g1068
sg53
(lp1080
S':'
asbag46
(g67
g48
NtRp1081
(dp1082
g51
(dp1083
sg60
g1068
sg53
(lp1084
g46
(g47
g48
NtRp1085
(dp1086
g51
(dp1087
g59
I5
ssg60
g1081
sg53
(lp1088
S'html'
p1089
asbasbasbag46
(g62
g48
NtRp1090
(dp1091
g51
(dp1092
sg60
g56
sg53
(lp1093
g46
(g67
g48
NtRp1094
(dp1095
g51
(dp1096
g71
g72
ssg60
g1090
sg53
(lp1097
S'folder'
p1098
asbag46
(g67
g48
NtRp1099
(dp1100
g51
(dp1101
g78
g79
ssg60
g1090
sg53
(lp1102
S':'
asbag46
(g67
g48
NtRp1103
(dp1104
g51
(dp1105
sg60
g1090
sg53
(lp1106
g46
(g47
g48
NtRp1107
(dp1108
g51
(dp1109
g59
I5
ssg60
g1103
sg53
(lp1110
S'/Users/Jacob/dropbox/SEng265-Share/2/codeAct_1.01/web2py/applications/codeAct/'
p1111
asbasbasbag46
(g62
g48
NtRp1112
(dp1113
g51
(dp1114
sg60
g56
sg53
(lp1115
g46
(g67
g48
NtRp1116
(dp1117
g51
(dp1118
g71
g72
ssg60
g1112
sg53
(lp1119
S'function'
p1120
asbag46
(g67
g48
NtRp1121
(dp1122
g51
(dp1123
g78
g79
ssg60
g1112
sg53
(lp1124
S':'
asbag46
(g67
g48
NtRp1125
(dp1126
g51
(dp1127
sg60
g1112
sg53
(lp1128
g46
(g47
g48
NtRp1129
(dp1130
g51
(dp1131
g59
I5
ssg60
g1125
sg53
(lp1132
S'quiz'
p1133
asbasbasbag46
(g62
g48
NtRp1134
(dp1135
g51
(dp1136
sg60
g56
sg53
(lp1137
g46
(g67
g48
NtRp1138
(dp1139
g51
(dp1140
g71
g72
ssg60
g1134
sg53
(lp1141
S'get_vars'
p1142
asbag46
(g67
g48
NtRp1143
(dp1144
g51
(dp1145
g78
g79
ssg60
g1134
sg53
(lp1146
S':'
asbag46
(g67
g48
NtRp1147
(dp1148
g51
(dp1149
sg60
g1134
sg53
(lp1150
g46
(g47
g48
NtRp1151
(dp1152
g51
(dp1153
g59
I5
ssg60
g1147
sg53
(lp1154
g46
(g55
g48
NtRp1155
(dp1156
g51
(dp1157
g59
I4
ssg60
Nsg53
(lp1158
g46
(g62
g48
NtRp1159
(dp1160
g51
(dp1161
sg60
g1155
sg53
(lp1162
g46
(g67
g48
NtRp1163
(dp1164
g51
(dp1165
g71
g72
ssg60
g1159
sg53
(lp1166
S'quiz_spec'
p1167
asbag46
(g67
g48
NtRp1168
(dp1169
g51
(dp1170
g78
g79
ssg60
g1159
sg53
(lp1171
S':'
asbag46
(g67
g48
NtRp1172
(dp1173
g51
(dp1174
sg60
g1159
sg53
(lp1175
g46
(g47
g48
NtRp1176
(dp1177
g51
(dp1178
g59
I4
ssg60
g1172
sg53
(lp1179
S'../quiz_specs/min_io_alone'
p1180
asbasbasbasbasbasbasbag46
(g62
g48
NtRp1181
(dp1182
g51
(dp1183
sg60
g56
sg53
(lp1184
g46
(g67
g48
NtRp1185
(dp1186
g51
(dp1187
g71
g72
ssg60
g1181
sg53
(lp1188
S'is_restful'
p1189
asbag46
(g67
g48
NtRp1190
(dp1191
g51
(dp1192
g78
g79
ssg60
g1181
sg53
(lp1193
S':'
asbag46
(g67
g48
NtRp1194
(dp1195
g51
(dp1196
sg60
g1181
sg53
(lp1197
g46
(g47
g48
NtRp1198
(dp1199
g51
(dp1200
g59
I5
ssg60
g1194
sg53
(lp1201
g89
asbasbasbag46
(g62
g48
NtRp1202
(dp1203
g51
(dp1204
sg60
g56
sg53
(lp1205
g46
(g67
g48
NtRp1206
(dp1207
g51
(dp1208
g71
g72
ssg60
g1202
sg53
(lp1209
S'now'
p1210
asbag46
(g67
g48
NtRp1211
(dp1212
g51
(dp1213
g78
g79
ssg60
g1202
sg53
(lp1214
S':'
asbag46
(g67
g48
NtRp1215
(dp1216
g51
(dp1217
sg60
g1202
sg53
(lp1218
g46
(g47
g48
NtRp1219
(dp1220
g51
(dp1221
g59
I5
ssg60
g1215
sg53
(lp1222
S'datetime.datetime(2011, 7, 24, 14, 21, 17, 532355)'
p1223
asbasbasbag46
(g62
g48
NtRp1224
(dp1225
g51
(dp1226
sg60
g56
sg53
(lp1227
g46
(g67
g48
NtRp1228
(dp1229
g51
(dp1230
g71
g72
ssg60
g1224
sg53
(lp1231
S'post_vars'
p1232
asbag46
(g67
g48
NtRp1233
(dp1234
g51
(dp1235
g78
g79
ssg60
g1224
sg53
(lp1236
S':'
asbag46
(g67
g48
NtRp1237
(dp1238
g51
(dp1239
sg60
g1224
sg53
(lp1240
g46
(g47
g48
NtRp1241
(dp1242
g51
(dp1243
g59
I5
ssg60
g1237
sg53
(lp1244
g46
(g55
g48
NtRp1245
(dp1246
g51
(dp1247
g59
I4
ssg60
Nsg53
(lp1248
sbasbasbasbag46
(g62
g48
NtRp1249
(dp1250
g51
(dp1251
sg60
g56
sg53
(lp1252
g46
(g67
g48
NtRp1253
(dp1254
g51
(dp1255
g71
g72
ssg60
g1249
sg53
(lp1256
S'raw_extension'
p1257
asbag46
(g67
g48
NtRp1258
(dp1259
g51
(dp1260
g78
g79
ssg60
g1249
sg53
(lp1261
S':'
asbag46
(g67
g48
NtRp1262
(dp1263
g51
(dp1264
sg60
g1249
sg53
(lp1265
g46
(g47
g48
NtRp1266
(dp1267
g51
(dp1268
g59
I5
ssg60
g1262
sg53
(lp1269
g1089
asbasbasbag46
(g62
g48
NtRp1270
(dp1271
g51
(dp1272
sg60
g56
sg53
(lp1273
g46
(g67
g48
NtRp1274
(dp1275
g51
(dp1276
g71
g72
ssg60
g1270
sg53
(lp1277
S'url'
p1278
asbag46
(g67
g48
NtRp1279
(dp1280
g51
(dp1281
g78
g79
ssg60
g1270
sg53
(lp1282
S':'
asbag46
(g67
g48
NtRp1283
(dp1284
g51
(dp1285
sg60
g1270
sg53
(lp1286
g46
(g47
g48
NtRp1287
(dp1288
g51
(dp1289
g59
I5
ssg60
g1283
sg53
(lp1290
S'/codeAct/ca_controller/quiz.html'
p1291
asbasbasbag46
(g62
g48
NtRp1292
(dp1293
g51
(dp1294
sg60
g56
sg53
(lp1295
g46
(g67
g48
NtRp1296
(dp1297
g51
(dp1298
g71
g72
ssg60
g1292
sg53
(lp1299
S'uuid'
p1300
asbag46
(g67
g48
NtRp1301
(dp1302
g51
(dp1303
g78
g79
ssg60
g1292
sg53
(lp1304
S':'
asbag46
(g67
g48
NtRp1305
(dp1306
g51
(dp1307
sg60
g1292
sg53
(lp1308
g46
(g47
g48
NtRp1309
(dp1310
g51
(dp1311
g59
I5
ssg60
g1305
sg53
(lp1312
S'codeAct/127.0.0.1.2011-07-24.14-21-17.3f3243f0-69ca-4c39-a32c-2468b361e184'
p1313
asbasbasbag46
(g62
g48
NtRp1314
(dp1315
g51
(dp1316
sg60
g56
sg53
(lp1317
g46
(g67
g48
NtRp1318
(dp1319
g51
(dp1320
g71
g72
ssg60
g1314
sg53
(lp1321
S'vars'
p1322
asbag46
(g67
g48
NtRp1323
(dp1324
g51
(dp1325
g78
g79
ssg60
g1314
sg53
(lp1326
S':'
asbag46
(g67
g48
NtRp1327
(dp1328
g51
(dp1329
sg60
g1314
sg53
(lp1330
g46
(g47
g48
NtRp1331
(dp1332
g51
(dp1333
g59
I5
ssg60
g1327
sg53
(lp1334
g46
(g55
g48
NtRp1335
(dp1336
g51
(dp1337
g59
I4
ssg60
Nsg53
(lp1338
g46
(g62
g48
NtRp1339
(dp1340
g51
(dp1341
sg60
g1335
sg53
(lp1342
g46
(g67
g48
NtRp1343
(dp1344
g51
(dp1345
g71
g72
ssg60
g1339
sg53
(lp1346
g1167
asbag46
(g67
g48
NtRp1347
(dp1348
g51
(dp1349
g78
g79
ssg60
g1339
sg53
(lp1350
S':'
asbag46
(g67
g48
NtRp1351
(dp1352
g51
(dp1353
sg60
g1339
sg53
(lp1354
g46
(g47
g48
NtRp1355
(dp1356
g51
(dp1357
g59
I4
ssg60
g1351
sg53
(lp1358
g1180
asbasbasbasbasbasbasbag46
(g62
g48
NtRp1359
(dp1360
g51
(dp1361
sg60
g56
sg53
(lp1362
g46
(g67
g48
NtRp1363
(dp1364
g51
(dp1365
g71
g72
ssg60
g1359
sg53
(lp1366
S'wsgi'
p1367
asbag46
(g67
g48
NtRp1368
(dp1369
g51
(dp1370
g78
g79
ssg60
g1359
sg53
(lp1371
S':'
asbag46
(g67
g48
NtRp1372
(dp1373
g51
(dp1374
sg60
g1359
sg53
(lp1375
g46
(g47
g48
NtRp1376
(dp1377
g51
(dp1378
g59
I5
ssg60
g1372
sg53
(lp1379
g46
(g55
g48
NtRp1380
(dp1381
g51
(dp1382
g59
I4
ssg60
Nsg53
(lp1383
g46
(g62
g48
NtRp1384
(dp1385
g51
(dp1386
sg60
g1380
sg53
(lp1387
g46
(g67
g48
NtRp1388
(dp1389
g51
(dp1390
g71
g72
ssg60
g1384
sg53
(lp1391
S'environ'
p1392
asbag46
(g67
g48
NtRp1393
(dp1394
g51
(dp1395
g78
g79
ssg60
g1384
sg53
(lp1396
S':'
asbag46
(g67
g48
NtRp1397
(dp1398
g51
(dp1399
sg60
g1384
sg53
(lp1400
g46
(g47
g48
NtRp1401
(dp1402
g51
(dp1403
g59
I4
ssg60
g1397
sg53
(lp1404
g46
(g55
g48
NtRp1405
(dp1406
g51
(dp1407
g59
I3
ssg60
Nsg53
(lp1408
g46
(g62
g48
NtRp1409
(dp1410
g51
(dp1411
sg60
g1405
sg53
(lp1412
g46
(g67
g48
NtRp1413
(dp1414
g51
(dp1415
g71
g72
ssg60
g1409
sg53
(lp1416
S'HTTP_ACCEPT'
p1417
asbag46
(g67
g48
NtRp1418
(dp1419
g51
(dp1420
g78
g79
ssg60
g1409
sg53
(lp1421
S':'
asbag46
(g67
g48
NtRp1422
(dp1423
g51
(dp1424
sg60
g1409
sg53
(lp1425
g46
(g47
g48
NtRp1426
(dp1427
g51
(dp1428
g59
I3
ssg60
g1422
sg53
(lp1429
g429
asbasbasbag46
(g62
g48
NtRp1430
(dp1431
g51
(dp1432
sg60
g1405
sg53
(lp1433
g46
(g67
g48
NtRp1434
(dp1435
g51
(dp1436
g71
g72
ssg60
g1430
sg53
(lp1437
S'HTTP_ACCEPT_CHARSET'
p1438
asbag46
(g67
g48
NtRp1439
(dp1440
g51
(dp1441
g78
g79
ssg60
g1430
sg53
(lp1442
S':'
asbag46
(g67
g48
NtRp1443
(dp1444
g51
(dp1445
sg60
g1430
sg53
(lp1446
g46
(g47
g48
NtRp1447
(dp1448
g51
(dp1449
g59
I3
ssg60
g1443
sg53
(lp1450
g451
asbasbasbag46
(g62
g48
NtRp1451
(dp1452
g51
(dp1453
sg60
g1405
sg53
(lp1454
g46
(g67
g48
NtRp1455
(dp1456
g51
(dp1457
g71
g72
ssg60
g1451
sg53
(lp1458
S'HTTP_ACCEPT_ENCODING'
p1459
asbag46
(g67
g48
NtRp1460
(dp1461
g51
(dp1462
g78
g79
ssg60
g1451
sg53
(lp1463
S':'
asbag46
(g67
g48
NtRp1464
(dp1465
g51
(dp1466
sg60
g1451
sg53
(lp1467
g46
(g47
g48
NtRp1468
(dp1469
g51
(dp1470
g59
I3
ssg60
g1464
sg53
(lp1471
g473
asbasbasbag46
(g62
g48
NtRp1472
(dp1473
g51
(dp1474
sg60
g1405
sg53
(lp1475
g46
(g67
g48
NtRp1476
(dp1477
g51
(dp1478
g71
g72
ssg60
g1472
sg53
(lp1479
S'HTTP_ACCEPT_LANGUAGE'
p1480
asbag46
(g67
g48
NtRp1481
(dp1482
g51
(dp1483
g78
g79
ssg60
g1472
sg53
(lp1484
S':'
asbag46
(g67
g48
NtRp1485
(dp1486
g51
(dp1487
sg60
g1472
sg53
(lp1488
g46
(g47
g48
NtRp1489
(dp1490
g51
(dp1491
g59
I3
ssg60
g1485
sg53
(lp1492
g495
asbasbasbag46
(g62
g48
NtRp1493
(dp1494
g51
(dp1495
sg60
g1405
sg53
(lp1496
g46
(g67
g48
NtRp1497
(dp1498
g51
(dp1499
g71
g72
ssg60
g1493
sg53
(lp1500
S'HTTP_CONNECTION'
p1501
asbag46
(g67
g48
NtRp1502
(dp1503
g51
(dp1504
g78
g79
ssg60
g1493
sg53
(lp1505
S':'
asbag46
(g67
g48
NtRp1506
(dp1507
g51
(dp1508
sg60
g1493
sg53
(lp1509
g46
(g47
g48
NtRp1510
(dp1511
g51
(dp1512
g59
I3
ssg60
g1506
sg53
(lp1513
g517
asbasbasbag46
(g62
g48
NtRp1514
(dp1515
g51
(dp1516
sg60
g1405
sg53
(lp1517
g46
(g67
g48
NtRp1518
(dp1519
g51
(dp1520
g71
g72
ssg60
g1514
sg53
(lp1521
S'HTTP_HOST'
p1522
asbag46
(g67
g48
NtRp1523
(dp1524
g51
(dp1525
g78
g79
ssg60
g1514
sg53
(lp1526
S':'
asbag46
(g67
g48
NtRp1527
(dp1528
g51
(dp1529
sg60
g1514
sg53
(lp1530
g46
(g47
g48
NtRp1531
(dp1532
g51
(dp1533
g59
I3
ssg60
g1527
sg53
(lp1534
g539
asbasbasbag46
(g62
g48
NtRp1535
(dp1536
g51
(dp1537
sg60
g1405
sg53
(lp1538
g46
(g67
g48
NtRp1539
(dp1540
g51
(dp1541
g71
g72
ssg60
g1535
sg53
(lp1542
S'HTTP_REFERER'
p1543
asbag46
(g67
g48
NtRp1544
(dp1545
g51
(dp1546
g78
g79
ssg60
g1535
sg53
(lp1547
S':'
asbag46
(g67
g48
NtRp1548
(dp1549
g51
(dp1550
sg60
g1535
sg53
(lp1551
g46
(g47
g48
NtRp1552
(dp1553
g51
(dp1554
g59
I3
ssg60
g1548
sg53
(lp1555
g561
asbasbasbag46
(g62
g48
NtRp1556
(dp1557
g51
(dp1558
sg60
g1405
sg53
(lp1559
g46
(g67
g48
NtRp1560
(dp1561
g51
(dp1562
g71
g72
ssg60
g1556
sg53
(lp1563
S'HTTP_USER_AGENT'
p1564
asbag46
(g67
g48
NtRp1565
(dp1566
g51
(dp1567
g78
g79
ssg60
g1556
sg53
(lp1568
S':'
asbag46
(g67
g48
NtRp1569
(dp1570
g51
(dp1571
sg60
g1556
sg53
(lp1572
g46
(g47
g48
NtRp1573
(dp1574
g51
(dp1575
g59
I3
ssg60
g1569
sg53
(lp1576
g583
asbasbasbag46
(g62
g48
NtRp1577
(dp1578
g51
(dp1579
sg60
g1405
sg53
(lp1580
g46
(g67
g48
NtRp1581
(dp1582
g51
(dp1583
g71
g72
ssg60
g1577
sg53
(lp1584
S'PATH_INFO'
p1585
asbag46
(g67
g48
NtRp1586
(dp1587
g51
(dp1588
g78
g79
ssg60
g1577
sg53
(lp1589
S':'
asbag46
(g67
g48
NtRp1590
(dp1591
g51
(dp1592
sg60
g1577
sg53
(lp1593
g46
(g47
g48
NtRp1594
(dp1595
g51
(dp1596
g59
I3
ssg60
g1590
sg53
(lp1597
g605
asbasbasbag46
(g62
g48
NtRp1598
(dp1599
g51
(dp1600
sg60
g1405
sg53
(lp1601
g46
(g67
g48
NtRp1602
(dp1603
g51
(dp1604
g71
g72
ssg60
g1598
sg53
(lp1605
S'QUERY_STRING'
p1606
asbag46
(g67
g48
NtRp1607
(dp1608
g51
(dp1609
g78
g79
ssg60
g1598
sg53
(lp1610
S':'
asbag46
(g67
g48
NtRp1611
(dp1612
g51
(dp1613
sg60
g1598
sg53
(lp1614
g46
(g47
g48
NtRp1615
(dp1616
g51
(dp1617
g59
I3
ssg60
g1611
sg53
(lp1618
g627
asbasbasbag46
(g62
g48
NtRp1619
(dp1620
g51
(dp1621
sg60
g1405
sg53
(lp1622
g46
(g67
g48
NtRp1623
(dp1624
g51
(dp1625
g71
g72
ssg60
g1619
sg53
(lp1626
S'REMOTE_ADDR'
p1627
asbag46
(g67
g48
NtRp1628
(dp1629
g51
(dp1630
g78
g79
ssg60
g1619
sg53
(lp1631
S':'
asbag46
(g67
g48
NtRp1632
(dp1633
g51
(dp1634
sg60
g1619
sg53
(lp1635
g46
(g47
g48
NtRp1636
(dp1637
g51
(dp1638
g59
I3
ssg60
g1632
sg53
(lp1639
g179
asbasbasbag46
(g62
g48
NtRp1640
(dp1641
g51
(dp1642
sg60
g1405
sg53
(lp1643
g46
(g67
g48
NtRp1644
(dp1645
g51
(dp1646
g71
g72
ssg60
g1640
sg53
(lp1647
S'REMOTE_PORT'
p1648
asbag46
(g67
g48
NtRp1649
(dp1650
g51
(dp1651
g78
g79
ssg60
g1640
sg53
(lp1652
S':'
asbag46
(g67
g48
NtRp1653
(dp1654
g51
(dp1655
sg60
g1640
sg53
(lp1656
g46
(g47
g48
NtRp1657
(dp1658
g51
(dp1659
g59
I3
ssg60
g1653
sg53
(lp1660
g670
asbasbasbag46
(g62
g48
NtRp1661
(dp1662
g51
(dp1663
sg60
g1405
sg53
(lp1664
g46
(g67
g48
NtRp1665
(dp1666
g51
(dp1667
g71
g72
ssg60
g1661
sg53
(lp1668
S'REQUEST_METHOD'
p1669
asbag46
(g67
g48
NtRp1670
(dp1671
g51
(dp1672
g78
g79
ssg60
g1661
sg53
(lp1673
S':'
asbag46
(g67
g48
NtRp1674
(dp1675
g51
(dp1676
sg60
g1661
sg53
(lp1677
g46
(g47
g48
NtRp1678
(dp1679
g51
(dp1680
g59
I3
ssg60
g1674
sg53
(lp1681
g692
asbasbasbag46
(g62
g48
NtRp1682
(dp1683
g51
(dp1684
sg60
g1405
sg53
(lp1685
g46
(g67
g48
NtRp1686
(dp1687
g51
(dp1688
g71
g72
ssg60
g1682
sg53
(lp1689
S'SCRIPT_NAME'
p1690
asbag46
(g67
g48
NtRp1691
(dp1692
g51
(dp1693
g78
g79
ssg60
g1682
sg53
(lp1694
S':'
asbag46
(g67
g48
NtRp1695
(dp1696
g51
(dp1697
sg60
g1682
sg53
(lp1698
g46
(g47
g48
NtRp1699
(dp1700
g51
(dp1701
g59
I3
ssg60
g1695
sg53
(lp1702
S''
asbasbasbag46
(g62
g48
NtRp1703
(dp1704
g51
(dp1705
sg60
g1405
sg53
(lp1706
g46
(g67
g48
NtRp1707
(dp1708
g51
(dp1709
g71
g72
ssg60
g1703
sg53
(lp1710
S'SERVER_NAME'
p1711
asbag46
(g67
g48
NtRp1712
(dp1713
g51
(dp1714
g78
g79
ssg60
g1703
sg53
(lp1715
S':'
asbag46
(g67
g48
NtRp1716
(dp1717
g51
(dp1718
sg60
g1703
sg53
(lp1719
g46
(g47
g48
NtRp1720
(dp1721
g51
(dp1722
g59
I3
ssg60
g1716
sg53
(lp1723
g735
asbasbasbag46
(g62
g48
NtRp1724
(dp1725
g51
(dp1726
sg60
g1405
sg53
(lp1727
g46
(g67
g48
NtRp1728
(dp1729
g51
(dp1730
g71
g72
ssg60
g1724
sg53
(lp1731
S'SERVER_PORT'
p1732
asbag46
(g67
g48
NtRp1733
(dp1734
g51
(dp1735
g78
g79
ssg60
g1724
sg53
(lp1736
S':'
asbag46
(g67
g48
NtRp1737
(dp1738
g51
(dp1739
sg60
g1724
sg53
(lp1740
g46
(g47
g48
NtRp1741
(dp1742
g51
(dp1743
g59
I3
ssg60
g1737
sg53
(lp1744
g757
asbasbasbag46
(g62
g48
NtRp1745
(dp1746
g51
(dp1747
sg60
g1405
sg53
(lp1748
g46
(g67
g48
NtRp1749
(dp1750
g51
(dp1751
g71
g72
ssg60
g1745
sg53
(lp1752
S'SERVER_PROTOCOL'
p1753
asbag46
(g67
g48
NtRp1754
(dp1755
g51
(dp1756
g78
g79
ssg60
g1745
sg53
(lp1757
S':'
asbag46
(g67
g48
NtRp1758
(dp1759
g51
(dp1760
sg60
g1745
sg53
(lp1761
g46
(g47
g48
NtRp1762
(dp1763
g51
(dp1764
g59
I3
ssg60
g1758
sg53
(lp1765
g779
asbasbasbag46
(g62
g48
NtRp1766
(dp1767
g51
(dp1768
sg60
g1405
sg53
(lp1769
g46
(g67
g48
NtRp1770
(dp1771
g51
(dp1772
g71
g72
ssg60
g1766
sg53
(lp1773
S'SERVER_SOFTWARE'
p1774
asbag46
(g67
g48
NtRp1775
(dp1776
g51
(dp1777
g78
g79
ssg60
g1766
sg53
(lp1778
S':'
asbag46
(g67
g48
NtRp1779
(dp1780
g51
(dp1781
sg60
g1766
sg53
(lp1782
g46
(g47
g48
NtRp1783
(dp1784
g51
(dp1785
g59
I3
ssg60
g1779
sg53
(lp1786
g801
asbasbasbag46
(g62
g48
NtRp1787
(dp1788
g51
(dp1789
sg60
g1405
sg53
(lp1790
g46
(g67
g48
NtRp1791
(dp1792
g51
(dp1793
g71
g72
ssg60
g1787
sg53
(lp1794
S'wsgi.errors'
p1795
asbag46
(g67
g48
NtRp1796
(dp1797
g51
(dp1798
g78
g79
ssg60
g1787
sg53
(lp1799
S':'
asbag46
(g67
g48
NtRp1800
(dp1801
g51
(dp1802
sg60
g1787
sg53
(lp1803
g46
(g47
g48
NtRp1804
(dp1805
g51
(dp1806
g59
I3
ssg60
g1800
sg53
(lp1807
S"<open file '<stderr>', mode 'w' at 0x160b0>"
p1808
asbasbasbag46
(g62
g48
NtRp1809
(dp1810
g51
(dp1811
sg60
g1405
sg53
(lp1812
g46
(g67
g48
NtRp1813
(dp1814
g51
(dp1815
g71
g72
ssg60
g1809
sg53
(lp1816
S'wsgi.file_wrapper'
p1817
asbag46
(g67
g48
NtRp1818
(dp1819
g51
(dp1820
g78
g79
ssg60
g1809
sg53
(lp1821
S':'
asbag46
(g67
g48
NtRp1822
(dp1823
g51
(dp1824
sg60
g1809
sg53
(lp1825
g46
(g47
g48
NtRp1826
(dp1827
g51
(dp1828
g59
I3
ssg60
g1822
sg53
(lp1829
S'<class gluon.rocket.FileWrapper at 0xeb9330>'
p1830
asbasbasbag46
(g62
g48
NtRp1831
(dp1832
g51
(dp1833
sg60
g1405
sg53
(lp1834
g46
(g67
g48
NtRp1835
(dp1836
g51
(dp1837
g71
g72
ssg60
g1831
sg53
(lp1838
S'wsgi.input'
p1839
asbag46
(g67
g48
NtRp1840
(dp1841
g51
(dp1842
g78
g79
ssg60
g1831
sg53
(lp1843
S':'
asbag46
(g67
g48
NtRp1844
(dp1845
g51
(dp1846
sg60
g1831
sg53
(lp1847
g46
(g47
g48
NtRp1848
(dp1849
g51
(dp1850
g59
I3
ssg60
g1844
sg53
(lp1851
S'<cStringIO.StringO object at 0xd96720>'
p1852
asbasbasbag46
(g62
g48
NtRp1853
(dp1854
g51
(dp1855
sg60
g1405
sg53
(lp1856
g46
(g67
g48
NtRp1857
(dp1858
g51
(dp1859
g71
g72
ssg60
g1853
sg53
(lp1860
S'wsgi.multiprocess'
p1861
asbag46
(g67
g48
NtRp1862
(dp1863
g51
(dp1864
g78
g79
ssg60
g1853
sg53
(lp1865
S':'
asbag46
(g67
g48
NtRp1866
(dp1867
g51
(dp1868
sg60
g1853
sg53
(lp1869
g46
(g47
g48
NtRp1870
(dp1871
g51
(dp1872
g59
I3
ssg60
g1866
sg53
(lp1873
g89
asbasbasbag46
(g62
g48
NtRp1874
(dp1875
g51
(dp1876
sg60
g1405
sg53
(lp1877
g46
(g67
g48
NtRp1878
(dp1879
g51
(dp1880
g71
g72
ssg60
g1874
sg53
(lp1881
S'wsgi.multithread'
p1882
asbag46
(g67
g48
NtRp1883
(dp1884
g51
(dp1885
g78
g79
ssg60
g1874
sg53
(lp1886
S':'
asbag46
(g67
g48
NtRp1887
(dp1888
g51
(dp1889
sg60
g1874
sg53
(lp1890
g46
(g47
g48
NtRp1891
(dp1892
g51
(dp1893
g59
I3
ssg60
g1887
sg53
(lp1894
g975
asbasbasbag46
(g62
g48
NtRp1895
(dp1896
g51
(dp1897
sg60
g1405
sg53
(lp1898
g46
(g67
g48
NtRp1899
(dp1900
g51
(dp1901
g71
g72
ssg60
g1895
sg53
(lp1902
S'wsgi.run_once'
p1903
asbag46
(g67
g48
NtRp1904
(dp1905
g51
(dp1906
g78
g79
ssg60
g1895
sg53
(lp1907
S':'
asbag46
(g67
g48
NtRp1908
(dp1909
g51
(dp1910
sg60
g1895
sg53
(lp1911
g46
(g47
g48
NtRp1912
(dp1913
g51
(dp1914
g59
I3
ssg60
g1908
sg53
(lp1915
g89
asbasbasbag46
(g62
g48
NtRp1916
(dp1917
g51
(dp1918
sg60
g1405
sg53
(lp1919
g46
(g67
g48
NtRp1920
(dp1921
g51
(dp1922
g71
g72
ssg60
g1916
sg53
(lp1923
S'wsgi.url_scheme'
p1924
asbag46
(g67
g48
NtRp1925
(dp1926
g51
(dp1927
g78
g79
ssg60
g1916
sg53
(lp1928
S':'
asbag46
(g67
g48
NtRp1929
(dp1930
g51
(dp1931
sg60
g1916
sg53
(lp1932
g46
(g47
g48
NtRp1933
(dp1934
g51
(dp1935
g59
I3
ssg60
g1929
sg53
(lp1936
g1018
asbasbasbag46
(g62
g48
NtRp1937
(dp1938
g51
(dp1939
sg60
g1405
sg53
(lp1940
g46
(g67
g48
NtRp1941
(dp1942
g51
(dp1943
g71
g72
ssg60
g1937
sg53
(lp1944
S'wsgi.version'
p1945
asbag46
(g67
g48
NtRp1946
(dp1947
g51
(dp1948
g78
g79
ssg60
g1937
sg53
(lp1949
S':'
asbag46
(g67
g48
NtRp1950
(dp1951
g51
(dp1952
sg60
g1937
sg53
(lp1953
g46
(g47
g48
NtRp1954
(dp1955
g51
(dp1956
g59
I3
ssg60
g1950
sg53
(lp1957
S'1'
asbasbasbasbasbasbasbasbasbasbasbasbasbsS'frames'
p1958
(lp1959
(dp1960
S'file'
p1961
S'/Users/Jacob/dropbox/SEng265-Share/2/codeAct_1.01/web2py/gluon/restricted.py'
p1962
sS'dump'
p1963
(dp1964
S'environment'
p1965
S"{'A': <class 'gluon.html.A'>, 'B': <class 'gluon.html.B'>, 'BEAUTIFY': <class 'gluon.html.BEAUTIFY'>, 'BODY': <class 'gluon.html.BODY'>, 'BR': <class 'gluon.html.BR'>, 'CENTER': <class 'gluon.html.CENTER'>, 'CLEANUP': <class 'gluon.validators.CLEANUP'>, 'CODE': <class 'gluon.html.CODE'>, 'CRYPT': <class 'gluon.validators.CRYPT'>, 'DAL': <class 'gluon.dal.DAL'>, ...}"
p1966
sS'ccode'
p1967
S'<code object <module> at 0xbe2ad0, file "/Users/...ns/codeAct/controllers/ca_controller.py", line 1>'
p1968
ssS'lnum'
p1969
I181
sS'lines'
p1970
(dp1971
I176
S'    try:'
p1972
sI177
S'        if type(code) == types.CodeType:'
p1973
sI178
S'            ccode = code'
p1974
sI179
S'        else:'
p1975
sI180
S'            ccode = compile2(code,layer)'
p1976
sI181
S'        exec ccode in environment'
p1977
sI182
S'    except HTTP:'
p1978
sI183
S'        raise'
p1979
sI184
S'    except Exception:'
p1980
sI185
S'        # XXX Show exception in Wing IDE if running in debugger'
p1981
ssS'call'
p1982
S"(code='import sys\\nimport time\\nimport os\\n\\nimport ca_quiz...turn code\\n\\nresponse._vars=response._caller(quiz)\\n', environment={'A': <class 'gluon.html.A'>, 'B': <class 'gluon.html.B'>, 'BEAUTIFY': <class 'gluon.html.BEAUTIFY'>, 'BODY': <class 'gluon.html.BODY'>, 'BR': <class 'gluon.html.BR'>, 'CENTER': <class 'gluon.html.CENTER'>, 'CLEANUP': <class 'gluon.validators.CLEANUP'>, 'CODE': <class 'gluon.html.CODE'>, 'CRYPT': <class 'gluon.validators.CRYPT'>, 'DAL': <class 'gluon.dal.DAL'>, ...}, layer='/Users/Jacob/dropbox/SEng265-Share/2/codeAct_1.0...applications/codeAct/controllers/ca_controller.py')"
p1983
sS'func'
p1984
S'restricted'
p1985
sa(dp1986
g1961
S'/Users/Jacob/dropbox/SEng265-Share/2/codeAct_1.01/web2py/applications/codeAct/controllers/ca_controller.py'
p1987
sg1963
(dp1988
sg1969
I85
sg1970
(dp1989
I74
S"\t session['quiz'].practice_mode,session['login'],"
p1990
sI75
S"\t session['answer_list'][question_number-1],"
p1991
sI76
S"\t request.vars,session['question_timer'])"
p1992
sI77
S"\tcode = utility.add_submit_label(code,session['quiz'].practice_mode)"
p1993
sI78
S'\tcode = utility.disable_navi_buttons(code,question_number,'
p1994
sI79
S"\t session['quiz'])"
p1995
sI80
S''
sI81
S'\t# update question timer'
p1996
sI82
S"\tsession['question_timer'] = int(time.time())"
p1997
sI83
S'\treturn code'
p1998
ssg1982
S'()'
p1999
sg1984
S'<module>'
p2000
sa(dp2001
g1961
S'/Users/Jacob/dropbox/SEng265-Share/2/codeAct_1.01/web2py/gluon/globals.py'
p2002
sg1963
(dp2003
S'self'
p2004
S'undefined'
p2005
sS'f'
S'<function quiz at 0xf4fa30>'
p2006
ssg1969
I133
sg1970
(dp2007
I128
S"        self.flash = ''           # used by the default view layout"
p2008
sI129
S'        self.meta = Storage()     # used by web2py_ajax.html'
p2009
sI130
S'        self.menu = []            # used by the default view layout'
p2010
sI131
S'        self.files = []           # used by web2py_ajax.html'
p2011
sI132
S'        self._vars = None'
p2012
sI133
S'        self._caller = lambda f: f()'
p2013
sI134
S'        self._view_environment = None'
p2014
sI135
S'        self._custom_commit = None'
p2015
sI136
S'        self._custom_rollback = None'
p2016
sI137
S''
ssg1982
S'(f=<function quiz at 0xf4fa30>)'
p2017
sg1984
S'<lambda>'
p2018
sa(dp2019
g1961
S'/Users/Jacob/dropbox/SEng265-Share/2/codeAct_1.01/web2py/applications/codeAct/controllers/ca_controller.py'
p2020
sg1963
(dp2021
S'].get_question'
p2022
S'None'
p2023
sS'global session'
p2024
S"<Storage {'login': '', 'question_timer': 1311542...[], 'quiz': <ca_quiz.quiz instance at 0xf47530>}>"
p2025
sS'question'
p2026
g2005
sS'question_number'
p2027
S'1'
ssg1969
I67
sg1970
(dp2028
I64
S''
sI65
S'\t# generate HTML code'
p2029
sI66
S'\tquestion_number = utility.get_question_number(request.vars)'
p2030
sI67
S"\tquestion = session['quiz'].get_question(question_number-1)"
p2031
sI68
S"\tutility.update_answer(question,question_number,session['answer_list'],"
p2032
sI69
S'\t request.vars)'
p2033
sI70
S"\tcode = question_HTML.generate_html(session['quiz'],question_number,"
p2034
sI71
S"\t session['answer_list'][question_number-1])"
p2035
sI62
S"\t\tlog_create.create_log(session['quiz'].log_dir,"
p2036
sI63
S"\t\t session['login'])"
p2037
ssg1982
S'()'
p2038
sg1984
S'quiz'
p2039
sa(dp2040
g1961
S'/Users/Jacob/dropbox/SEng265-Share/2/codeAct_1.01/web2py/applications/codeAct/ca_quiz.py'
p2041
sg1963
(dp2042
S'self.question_list'
p2043
S'[]'
p2044
sS'self'
p2045
S'<ca_quiz.quiz instance at 0xf47530>'
p2046
sS'index'
p2047
S'0'
ssg1969
I63
sg1970
(dp2048
I64
S'\t\t# if index is out of range, should we return the first question'
p2049
sI65
S'\t\t# instead of throw an exception'
p2050
sI56
S"\t'''"
p2051
sI57
S'\tPurpose'
p2052
sI58
S'\t\treturn the ith question'
p2053
sI59
S'\tPrecondition'
p2054
sI60
S'\t\tindex > 0 and index < len(self.question_list)'
p2055
sI61
S"\t'''"
p2056
sI62
S'\tdef get_question(self,index):'
p2057
sI63
S'\t\treturn self.question_list[index]'
p2058
ssg1982
S'(self=<ca_quiz.quiz instance at 0xf47530>, index=0)'
p2059
sg1984
S'get_question'
p2060
sasS'pyver'
p2061
S'Python 2.5: /Library/Frameworks/Python.framework/Versions/2.5/Resources/Python.app/Contents/MacOS/Python'
p2062
sS'session'
p2063
g46
(g47
g48
NtRp2064
(dp2065
g51
(dp2066
sg53
(lp2067
g46
(g55
g48
NtRp2068
(dp2069
g51
(dp2070
g59
I5
ssg60
Nsg53
(lp2071
g46
(g62
g48
NtRp2072
(dp2073
g51
(dp2074
sg60
g2068
sg53
(lp2075
g46
(g67
g48
NtRp2076
(dp2077
g51
(dp2078
g71
g72
ssg60
g2072
sg53
(lp2079
S'answer_list'
p2080
asbag46
(g67
g48
NtRp2081
(dp2082
g51
(dp2083
g78
g79
ssg60
g2072
sg53
(lp2084
S':'
asbag46
(g67
g48
NtRp2085
(dp2086
g51
(dp2087
sg60
g2072
sg53
(lp2088
g46
(g47
g48
NtRp2089
(dp2090
g51
(dp2091
g59
I5
ssg60
g2085
sg53
(lp2092
g46
(g55
g48
NtRp2093
(dp2094
g51
(dp2095
g59
I4
ssg60
Nsg53
(lp2096
sbasbasbasbag46
(g62
g48
NtRp2097
(dp2098
g51
(dp2099
sg60
g2068
sg53
(lp2100
g46
(g67
g48
NtRp2101
(dp2102
g51
(dp2103
g71
g72
ssg60
g2097
sg53
(lp2104
S'login'
p2105
asbag46
(g67
g48
NtRp2106
(dp2107
g51
(dp2108
g78
g79
ssg60
g2097
sg53
(lp2109
S':'
asbag46
(g67
g48
NtRp2110
(dp2111
g51
(dp2112
sg60
g2097
sg53
(lp2113
g46
(g47
g48
NtRp2114
(dp2115
g51
(dp2116
g59
I5
ssg60
g2110
sg53
(lp2117
S''
asbasbasbag46
(g62
g48
NtRp2118
(dp2119
g51
(dp2120
sg60
g2068
sg53
(lp2121
g46
(g67
g48
NtRp2122
(dp2123
g51
(dp2124
g71
g72
ssg60
g2118
sg53
(lp2125
S'question_timer'
p2126
asbag46
(g67
g48
NtRp2127
(dp2128
g51
(dp2129
g78
g79
ssg60
g2118
sg53
(lp2130
S':'
asbag46
(g67
g48
NtRp2131
(dp2132
g51
(dp2133
sg60
g2118
sg53
(lp2134
g46
(g47
g48
NtRp2135
(dp2136
g51
(dp2137
g59
I5
ssg60
g2131
sg53
(lp2138
S'1311542478'
p2139
asbasbasbag46
(g62
g48
NtRp2140
(dp2141
g51
(dp2142
sg60
g2068
sg53
(lp2143
g46
(g67
g48
NtRp2144
(dp2145
g51
(dp2146
g71
g72
ssg60
g2140
sg53
(lp2147
g2039
asbag46
(g67
g48
NtRp2148
(dp2149
g51
(dp2150
g78
g79
ssg60
g2140
sg53
(lp2151
S':'
asbag46
(g67
g48
NtRp2152
(dp2153
g51
(dp2154
sg60
g2140
sg53
(lp2155
g46
(g47
g48
NtRp2156
(dp2157
g51
(dp2158
g59
I5
ssg60
g2152
sg53
(lp2159
S'<ca_quiz.quiz instance at 0xf47530>'
p2160
asbasbasbasbasbsS'etype'
p2161
S"<type 'exceptions.IndexError'>"
p2162
sS'date'
p2163
S'Sun Jul 24 14:21:18 2011'
p2164
sS'response'
p2165
g46
(g47
g48
NtRp2166
(dp2167
g51
(dp2168
sg53
(lp2169
g46
(g55
g48
NtRp2170
(dp2171
g51
(dp2172
g59
I5
ssg60
Nsg53
(lp2173
g46
(g62
g48
NtRp2174
(dp2175
g51
(dp2176
sg60
g2170
sg53
(lp2177
g46
(g67
g48
NtRp2178
(dp2179
g51
(dp2180
g71
g72
ssg60
g2174
sg53
(lp2181
g144
asbag46
(g67
g48
NtRp2182
(dp2183
g51
(dp2184
g78
g79
ssg60
g2174
sg53
(lp2185
S':'
asbag46
(g67
g48
NtRp2186
(dp2187
g51
(dp2188
sg60
g2174
sg53
(lp2189
g46
(g47
g48
NtRp2190
(dp2191
g51
(dp2192
g59
I5
ssg60
g2186
sg53
(lp2193
S'<cStringIO.StringO object at 0xd96660>'
p2194
asbasbasbag46
(g62
g48
NtRp2195
(dp2196
g51
(dp2197
sg60
g2170
sg53
(lp2198
g46
(g67
g48
NtRp2199
(dp2200
g51
(dp2201
g71
g72
ssg60
g2195
sg53
(lp2202
g210
asbag46
(g67
g48
NtRp2203
(dp2204
g51
(dp2205
g78
g79
ssg60
g2195
sg53
(lp2206
S':'
asbag46
(g67
g48
NtRp2207
(dp2208
g51
(dp2209
sg60
g2195
sg53
(lp2210
g46
(g47
g48
NtRp2211
(dp2212
g51
(dp2213
g59
I5
ssg60
g2207
sg53
(lp2214
g46
(g55
g48
NtRp2215
(dp2216
g51
(dp2217
g59
I4
ssg60
Nsg53
(lp2218
g46
(g62
g48
NtRp2219
(dp2220
g51
(dp2221
sg60
g2215
sg53
(lp2222
g46
(g67
g48
NtRp2223
(dp2224
g51
(dp2225
g71
g72
ssg60
g2219
sg53
(lp2226
S'session_id_codeact'
p2227
asbag46
(g67
g48
NtRp2228
(dp2229
g51
(dp2230
g78
g79
ssg60
g2219
sg53
(lp2231
S':'
asbag46
(g67
g48
NtRp2232
(dp2233
g51
(dp2234
sg60
g2219
sg53
(lp2235
g46
(g47
g48
NtRp2236
(dp2237
g51
(dp2238
g59
I4
ssg60
g2232
sg53
(lp2239
g46
(g55
g48
NtRp2240
(dp2241
g51
(dp2242
g59
I3
ssg60
Nsg53
(lp2243
g46
(g62
g48
NtRp2244
(dp2245
g51
(dp2246
sg60
g2240
sg53
(lp2247
g46
(g67
g48
NtRp2248
(dp2249
g51
(dp2250
g71
g72
ssg60
g2244
sg53
(lp2251
S'comment'
p2252
asbag46
(g67
g48
NtRp2253
(dp2254
g51
(dp2255
g78
g79
ssg60
g2244
sg53
(lp2256
S':'
asbag46
(g67
g48
NtRp2257
(dp2258
g51
(dp2259
sg60
g2244
sg53
(lp2260
g46
(g47
g48
NtRp2261
(dp2262
g51
(dp2263
g59
I3
ssg60
g2257
sg53
(lp2264
S''
asbasbasbag46
(g62
g48
NtRp2265
(dp2266
g51
(dp2267
sg60
g2240
sg53
(lp2268
g46
(g67
g48
NtRp2269
(dp2270
g51
(dp2271
g71
g72
ssg60
g2265
sg53
(lp2272
S'domain'
p2273
asbag46
(g67
g48
NtRp2274
(dp2275
g51
(dp2276
g78
g79
ssg60
g2265
sg53
(lp2277
S':'
asbag46
(g67
g48
NtRp2278
(dp2279
g51
(dp2280
sg60
g2265
sg53
(lp2281
g46
(g47
g48
NtRp2282
(dp2283
g51
(dp2284
g59
I3
ssg60
g2278
sg53
(lp2285
S''
asbasbasbag46
(g62
g48
NtRp2286
(dp2287
g51
(dp2288
sg60
g2240
sg53
(lp2289
g46
(g67
g48
NtRp2290
(dp2291
g51
(dp2292
g71
g72
ssg60
g2286
sg53
(lp2293
S'expires'
p2294
asbag46
(g67
g48
NtRp2295
(dp2296
g51
(dp2297
g78
g79
ssg60
g2286
sg53
(lp2298
S':'
asbag46
(g67
g48
NtRp2299
(dp2300
g51
(dp2301
sg60
g2286
sg53
(lp2302
g46
(g47
g48
NtRp2303
(dp2304
g51
(dp2305
g59
I3
ssg60
g2299
sg53
(lp2306
S''
asbasbasbag46
(g62
g48
NtRp2307
(dp2308
g51
(dp2309
sg60
g2240
sg53
(lp2310
g46
(g67
g48
NtRp2311
(dp2312
g51
(dp2313
g71
g72
ssg60
g2307
sg53
(lp2314
S'max-age'
p2315
asbag46
(g67
g48
NtRp2316
(dp2317
g51
(dp2318
g78
g79
ssg60
g2307
sg53
(lp2319
S':'
asbag46
(g67
g48
NtRp2320
(dp2321
g51
(dp2322
sg60
g2307
sg53
(lp2323
g46
(g47
g48
NtRp2324
(dp2325
g51
(dp2326
g59
I3
ssg60
g2320
sg53
(lp2327
S''
asbasbasbag46
(g62
g48
NtRp2328
(dp2329
g51
(dp2330
sg60
g2240
sg53
(lp2331
g46
(g67
g48
NtRp2332
(dp2333
g51
(dp2334
g71
g72
ssg60
g2328
sg53
(lp2335
S'path'
p2336
asbag46
(g67
g48
NtRp2337
(dp2338
g51
(dp2339
g78
g79
ssg60
g2328
sg53
(lp2340
S':'
asbag46
(g67
g48
NtRp2341
(dp2342
g51
(dp2343
sg60
g2328
sg53
(lp2344
g46
(g47
g48
NtRp2345
(dp2346
g51
(dp2347
g59
I3
ssg60
g2341
sg53
(lp2348
S'/'
asbasbasbag46
(g62
g48
NtRp2349
(dp2350
g51
(dp2351
sg60
g2240
sg53
(lp2352
g46
(g67
g48
NtRp2353
(dp2354
g51
(dp2355
g71
g72
ssg60
g2349
sg53
(lp2356
S'secure'
p2357
asbag46
(g67
g48
NtRp2358
(dp2359
g51
(dp2360
g78
g79
ssg60
g2349
sg53
(lp2361
S':'
asbag46
(g67
g48
NtRp2362
(dp2363
g51
(dp2364
sg60
g2349
sg53
(lp2365
g46
(g47
g48
NtRp2366
(dp2367
g51
(dp2368
g59
I3
ssg60
g2362
sg53
(lp2369
S''
asbasbasbag46
(g62
g48
NtRp2370
(dp2371
g51
(dp2372
sg60
g2240
sg53
(lp2373
g46
(g67
g48
NtRp2374
(dp2375
g51
(dp2376
g71
g72
ssg60
g2370
sg53
(lp2377
S'version'
p2378
asbag46
(g67
g48
NtRp2379
(dp2380
g51
(dp2381
g78
g79
ssg60
g2370
sg53
(lp2382
S':'
asbag46
(g67
g48
NtRp2383
(dp2384
g51
(dp2385
sg60
g2370
sg53
(lp2386
g46
(g47
g48
NtRp2387
(dp2388
g51
(dp2389
g59
I3
ssg60
g2383
sg53
(lp2390
S''
asbasbasbasbasbasbasbasbasbasbasbag46
(g62
g48
NtRp2391
(dp2392
g51
(dp2393
sg60
g2170
sg53
(lp2394
g46
(g67
g48
NtRp2395
(dp2396
g51
(dp2397
g71
g72
ssg60
g2391
sg53
(lp2398
S'files'
p2399
asbag46
(g67
g48
NtRp2400
(dp2401
g51
(dp2402
g78
g79
ssg60
g2391
sg53
(lp2403
S':'
asbag46
(g67
g48
NtRp2404
(dp2405
g51
(dp2406
sg60
g2391
sg53
(lp2407
g46
(g47
g48
NtRp2408
(dp2409
g51
(dp2410
g59
I5
ssg60
g2404
sg53
(lp2411
g46
(g55
g48
NtRp2412
(dp2413
g51
(dp2414
g59
I4
ssg60
Nsg53
(lp2415
sbasbasbasbag46
(g62
g48
NtRp2416
(dp2417
g51
(dp2418
sg60
g2170
sg53
(lp2419
g46
(g67
g48
NtRp2420
(dp2421
g51
(dp2422
g71
g72
ssg60
g2416
sg53
(lp2423
S'flash'
p2424
asbag46
(g67
g48
NtRp2425
(dp2426
g51
(dp2427
g78
g79
ssg60
g2416
sg53
(lp2428
S':'
asbag46
(g67
g48
NtRp2429
(dp2430
g51
(dp2431
sg60
g2416
sg53
(lp2432
g46
(g47
g48
NtRp2433
(dp2434
g51
(dp2435
g59
I5
ssg60
g2429
sg53
(lp2436
S''
asbasbasbag46
(g62
g48
NtRp2437
(dp2438
g51
(dp2439
sg60
g2170
sg53
(lp2440
g46
(g67
g48
NtRp2441
(dp2442
g51
(dp2443
g71
g72
ssg60
g2437
sg53
(lp2444
S'headers'
p2445
asbag46
(g67
g48
NtRp2446
(dp2447
g51
(dp2448
g78
g79
ssg60
g2437
sg53
(lp2449
S':'
asbag46
(g67
g48
NtRp2450
(dp2451
g51
(dp2452
sg60
g2437
sg53
(lp2453
g46
(g47
g48
NtRp2454
(dp2455
g51
(dp2456
g59
I5
ssg60
g2450
sg53
(lp2457
g46
(g55
g48
NtRp2458
(dp2459
g51
(dp2460
g59
I4
ssg60
Nsg53
(lp2461
g46
(g62
g48
NtRp2462
(dp2463
g51
(dp2464
sg60
g2458
sg53
(lp2465
g46
(g67
g48
NtRp2466
(dp2467
g51
(dp2468
g71
g72
ssg60
g2462
sg53
(lp2469
S'Cache-Control'
p2470
asbag46
(g67
g48
NtRp2471
(dp2472
g51
(dp2473
g78
g79
ssg60
g2462
sg53
(lp2474
S':'
asbag46
(g67
g48
NtRp2475
(dp2476
g51
(dp2477
sg60
g2462
sg53
(lp2478
g46
(g47
g48
NtRp2479
(dp2480
g51
(dp2481
g59
I4
ssg60
g2475
sg53
(lp2482
S'no-store, no-cache, must-revalidate, post-check=0, pre-check=0'
p2483
asbasbasbag46
(g62
g48
NtRp2484
(dp2485
g51
(dp2486
sg60
g2458
sg53
(lp2487
g46
(g67
g48
NtRp2488
(dp2489
g51
(dp2490
g71
g72
ssg60
g2484
sg53
(lp2491
S'Content-Type'
p2492
asbag46
(g67
g48
NtRp2493
(dp2494
g51
(dp2495
g78
g79
ssg60
g2484
sg53
(lp2496
S':'
asbag46
(g67
g48
NtRp2497
(dp2498
g51
(dp2499
sg60
g2484
sg53
(lp2500
g46
(g47
g48
NtRp2501
(dp2502
g51
(dp2503
g59
I4
ssg60
g2497
sg53
(lp2504
S'text/html; charset=utf-8'
p2505
asbasbasbag46
(g62
g48
NtRp2506
(dp2507
g51
(dp2508
sg60
g2458
sg53
(lp2509
g46
(g67
g48
NtRp2510
(dp2511
g51
(dp2512
g71
g72
ssg60
g2506
sg53
(lp2513
S'Expires'
p2514
asbag46
(g67
g48
NtRp2515
(dp2516
g51
(dp2517
g78
g79
ssg60
g2506
sg53
(lp2518
S':'
asbag46
(g67
g48
NtRp2519
(dp2520
g51
(dp2521
sg60
g2506
sg53
(lp2522
g46
(g47
g48
NtRp2523
(dp2524
g51
(dp2525
g59
I4
ssg60
g2519
sg53
(lp2526
S'Sun, 24 Jul 2011 21:21:17 GMT'
p2527
asbasbasbag46
(g62
g48
NtRp2528
(dp2529
g51
(dp2530
sg60
g2458
sg53
(lp2531
g46
(g67
g48
NtRp2532
(dp2533
g51
(dp2534
g71
g72
ssg60
g2528
sg53
(lp2535
S'Pragma'
p2536
asbag46
(g67
g48
NtRp2537
(dp2538
g51
(dp2539
g78
g79
ssg60
g2528
sg53
(lp2540
S':'
asbag46
(g67
g48
NtRp2541
(dp2542
g51
(dp2543
sg60
g2528
sg53
(lp2544
g46
(g47
g48
NtRp2545
(dp2546
g51
(dp2547
g59
I4
ssg60
g2541
sg53
(lp2548
S'no-cache'
p2549
asbasbasbasbasbasbasbag46
(g62
g48
NtRp2550
(dp2551
g51
(dp2552
sg60
g2170
sg53
(lp2553
g46
(g67
g48
NtRp2554
(dp2555
g51
(dp2556
g71
g72
ssg60
g2550
sg53
(lp2557
S'menu'
p2558
asbag46
(g67
g48
NtRp2559
(dp2560
g51
(dp2561
g78
g79
ssg60
g2550
sg53
(lp2562
S':'
asbag46
(g67
g48
NtRp2563
(dp2564
g51
(dp2565
sg60
g2550
sg53
(lp2566
g46
(g47
g48
NtRp2567
(dp2568
g51
(dp2569
g59
I5
ssg60
g2563
sg53
(lp2570
g46
(g55
g48
NtRp2571
(dp2572
g51
(dp2573
g59
I4
ssg60
Nsg53
(lp2574
sbasbasbasbag46
(g62
g48
NtRp2575
(dp2576
g51
(dp2577
sg60
g2170
sg53
(lp2578
g46
(g67
g48
NtRp2579
(dp2580
g51
(dp2581
g71
g72
ssg60
g2575
sg53
(lp2582
S'meta'
p2583
asbag46
(g67
g48
NtRp2584
(dp2585
g51
(dp2586
g78
g79
ssg60
g2575
sg53
(lp2587
S':'
asbag46
(g67
g48
NtRp2588
(dp2589
g51
(dp2590
sg60
g2575
sg53
(lp2591
g46
(g47
g48
NtRp2592
(dp2593
g51
(dp2594
g59
I5
ssg60
g2588
sg53
(lp2595
g46
(g55
g48
NtRp2596
(dp2597
g51
(dp2598
g59
I4
ssg60
Nsg53
(lp2599
sbasbasbasbag46
(g62
g48
NtRp2600
(dp2601
g51
(dp2602
sg60
g2170
sg53
(lp2603
g46
(g67
g48
NtRp2604
(dp2605
g51
(dp2606
g71
g72
ssg60
g2600
sg53
(lp2607
S'postprocessing'
p2608
asbag46
(g67
g48
NtRp2609
(dp2610
g51
(dp2611
g78
g79
ssg60
g2600
sg53
(lp2612
S':'
asbag46
(g67
g48
NtRp2613
(dp2614
g51
(dp2615
sg60
g2600
sg53
(lp2616
g46
(g47
g48
NtRp2617
(dp2618
g51
(dp2619
g59
I5
ssg60
g2613
sg53
(lp2620
g46
(g55
g48
NtRp2621
(dp2622
g51
(dp2623
g59
I4
ssg60
Nsg53
(lp2624
sbasbasbasbag46
(g62
g48
NtRp2625
(dp2626
g51
(dp2627
sg60
g2170
sg53
(lp2628
g46
(g67
g48
NtRp2629
(dp2630
g51
(dp2631
g71
g72
ssg60
g2625
sg53
(lp2632
S'session_filename'
p2633
asbag46
(g67
g48
NtRp2634
(dp2635
g51
(dp2636
g78
g79
ssg60
g2625
sg53
(lp2637
S':'
asbag46
(g67
g48
NtRp2638
(dp2639
g51
(dp2640
sg60
g2625
sg53
(lp2641
g46
(g47
g48
NtRp2642
(dp2643
g51
(dp2644
g59
I5
ssg60
g2638
sg53
(lp2645
S'/Users/Jacob/dropbox/SEng265-Share/2/codeAct_1.01/web2py/applications/codeAct/sessions/127.0.0.1-a2f0ba9c-81b4-4f66-a928-8d863e45574b'
p2646
asbasbasbag46
(g62
g48
NtRp2647
(dp2648
g51
(dp2649
sg60
g2170
sg53
(lp2650
g46
(g67
g48
NtRp2651
(dp2652
g51
(dp2653
g71
g72
ssg60
g2647
sg53
(lp2654
S'session_id'
p2655
asbag46
(g67
g48
NtRp2656
(dp2657
g51
(dp2658
g78
g79
ssg60
g2647
sg53
(lp2659
S':'
asbag46
(g67
g48
NtRp2660
(dp2661
g51
(dp2662
sg60
g2647
sg53
(lp2663
g46
(g47
g48
NtRp2664
(dp2665
g51
(dp2666
g59
I5
ssg60
g2660
sg53
(lp2667
S'127.0.0.1-a2f0ba9c-81b4-4f66-a928-8d863e45574b'
p2668
asbasbasbag46
(g62
g48
NtRp2669
(dp2670
g51
(dp2671
sg60
g2170
sg53
(lp2672
g46
(g67
g48
NtRp2673
(dp2674
g51
(dp2675
g71
g72
ssg60
g2669
sg53
(lp2676
S'session_id_name'
p2677
asbag46
(g67
g48
NtRp2678
(dp2679
g51
(dp2680
g78
g79
ssg60
g2669
sg53
(lp2681
S':'
asbag46
(g67
g48
NtRp2682
(dp2683
g51
(dp2684
sg60
g2669
sg53
(lp2685
g46
(g47
g48
NtRp2686
(dp2687
g51
(dp2688
g59
I5
ssg60
g2682
sg53
(lp2689
g2227
asbasbasbag46
(g62
g48
NtRp2690
(dp2691
g51
(dp2692
sg60
g2170
sg53
(lp2693
g46
(g67
g48
NtRp2694
(dp2695
g51
(dp2696
g71
g72
ssg60
g2690
sg53
(lp2697
S'session_new'
p2698
asbag46
(g67
g48
NtRp2699
(dp2700
g51
(dp2701
g78
g79
ssg60
g2690
sg53
(lp2702
S':'
asbag46
(g67
g48
NtRp2703
(dp2704
g51
(dp2705
sg60
g2690
sg53
(lp2706
g46
(g47
g48
NtRp2707
(dp2708
g51
(dp2709
g59
I5
ssg60
g2703
sg53
(lp2710
g975
asbasbasbag46
(g62
g48
NtRp2711
(dp2712
g51
(dp2713
sg60
g2170
sg53
(lp2714
g46
(g67
g48
NtRp2715
(dp2716
g51
(dp2717
g71
g72
ssg60
g2711
sg53
(lp2718
S'status'
p2719
asbag46
(g67
g48
NtRp2720
(dp2721
g51
(dp2722
g78
g79
ssg60
g2711
sg53
(lp2723
S':'
asbag46
(g67
g48
NtRp2724
(dp2725
g51
(dp2726
sg60
g2711
sg53
(lp2727
g46
(g47
g48
NtRp2728
(dp2729
g51
(dp2730
g59
I5
ssg60
g2724
sg53
(lp2731
S'200'
p2732
asbasbasbag46
(g62
g48
NtRp2733
(dp2734
g51
(dp2735
sg60
g2170
sg53
(lp2736
g46
(g67
g48
NtRp2737
(dp2738
g51
(dp2739
g71
g72
ssg60
g2733
sg53
(lp2740
g1300
asbag46
(g67
g48
NtRp2741
(dp2742
g51
(dp2743
g78
g79
ssg60
g2733
sg53
(lp2744
S':'
asbag46
(g67
g48
NtRp2745
(dp2746
g51
(dp2747
sg60
g2733
sg53
(lp2748
g46
(g47
g48
NtRp2749
(dp2750
g51
(dp2751
g59
I5
ssg60
g2745
sg53
(lp2752
g1313
asbasbasbag46
(g62
g48
NtRp2753
(dp2754
g51
(dp2755
sg60
g2170
sg53
(lp2756
g46
(g67
g48
NtRp2757
(dp2758
g51
(dp2759
g71
g72
ssg60
g2753
sg53
(lp2760
S'view'
p2761
asbag46
(g67
g48
NtRp2762
(dp2763
g51
(dp2764
g78
g79
ssg60
g2753
sg53
(lp2765
S':'
asbag46
(g67
g48
NtRp2766
(dp2767
g51
(dp2768
sg60
g2753
sg53
(lp2769
g46
(g47
g48
NtRp2770
(dp2771
g51
(dp2772
g59
I5
ssg60
g2766
sg53
(lp2773
S'ca_controller/quiz.html'
p2774
asbasbasbasbasbsS'locals'
p2775
(dp2776
S'index'
p2777
S'0'
sS'self'
p2778
S'<ca_quiz.quiz instance at 0xf47530>'
p2779
sssS'traceback'
p2780
S'Traceback (most recent call last):\n  File "/Users/Jacob/dropbox/SEng265-Share/2/codeAct_1.01/web2py/gluon/restricted.py", line 181, in restricted\n    exec ccode in environment\n  File "/Users/Jacob/dropbox/SEng265-Share/2/codeAct_1.01/web2py/applications/codeAct/controllers/ca_controller.py", line 85, in <module>\n  File "/Users/Jacob/dropbox/SEng265-Share/2/codeAct_1.01/web2py/gluon/globals.py", line 133, in <lambda>\n    self._caller = lambda f: f()\n  File "/Users/Jacob/dropbox/SEng265-Share/2/codeAct_1.01/web2py/applications/codeAct/controllers/ca_controller.py", line 67, in quiz\n    question = session[\'quiz\'].get_question(question_number-1)\n  File "/Users/Jacob/dropbox/SEng265-Share/2/codeAct_1.01/web2py/applications/codeAct/ca_quiz.py", line 63, in get_question\n    return self.question_list[index]\nIndexError: list index out of range\n'
p2781
s.