(dp1
S'output'
p2
S''
sS'layer'
p3
S'/home/jacobbl/SENG265/pe2/codeAct_1.01/web2py/applications/codeAct/controllers/ca_controller.py'
p4
sS'code'
p5
S"import sys\nimport time\nimport os\n\nimport ca_quiz as Quiz\nimport ca_log_create as log_create\n\nsys.path.append('applications/codeAct/controllers')\nimport ca_utility as utility\n\nsys.path.append('applications/codeAct/views/ca_controller')\nimport ca_question_HTML as question_HTML\n\nSERVERNAME = 'cdoku'\n\ndef ca_login():\n\tif not 'username' in request.vars.keys(): # not a submission\n\t\treturn dict(msg='')\n\telse: # request is a submission\n\t\t# get user list\n\t\tuser_list = 'allowed_users.txt'\n\t\t# check if student is registered in SENG265\n\t\tusers = open(os.path.join('../users/',user_list),\n\t\t 'r').read().split('\\n')\n\t\tif not request.vars['username'] in users:\n\t\t\treturn dict(\n\t\t\t msg = 'Not registered in the current session.')\n\t\t# authenticate username and password\n\t\tif os.uname()[1] == SERVERNAME:\n\t\t\tseng_auth = __import__('ca_seng_auth')\n\t\t\tif seng_auth.authenticate(request.vars['username'],\n\t\t\t request.vars['password']) != 0:\n\t\t\t\treturn dict(msg='Wrong username or password.')\n\t\tsession.login = request.vars['username']\n\t\tredirect(URL(r=request, f='quiz'))\n\ndef quiz():\n\t# the beginning of the quiz, create quiz and init answer_list\n\tif 'quiz_spec' in request.vars.keys():\n\t\tsession['quiz'] = Quiz.quiz(request.vars['quiz_spec'])\n\t\tsession['answer_list'] = utility.init_answer_list(\n\t\t session['quiz'])\n\t\t# initialize question_timer\n\t\tsession['question_timer'] = int(time.time())\n\t\t# reset the login\n\t\tif 'login' in session.keys():\n\t\t\tdel session['login']\n\n\t# if quiz does not exist, redirect to home page\n\tif not 'quiz' in session.keys():\n\t\tredirect(URL(r=request, f='ca_index'))\n\n\t# check login in marked mode\n\tif not 'login' in session.keys():\n\t\tif not session['quiz'].practice_mode: \n\t\t\tredirect(URL(r=request, f='ca_login'))\n\t\telse:\n\t\t\tsession['login'] = ''\n\n\t# init log_dir and log\n\tif session['quiz'].logged:\n\t\tlog_create.create_log(session['quiz'].log_dir,\n\t\t session['login'])\n\n\t# generate HTML code\n\tquestion_number = utility.get_question_number(request.vars)\n\tquestion = session['quiz'].get_question(question_number-1)\n\tutility.update_answer(question,question_number,session['answer_list'],\n\t request.vars)\n\tcode = question_HTML.generate_html(session['quiz'],question_number,\n\t session['answer_list'][question_number-1])\n\tcode = utility.get_result(code,question,question_number,\n\t session['quiz'].logged,session['quiz'].log_dir,\n\t session['quiz'].practice_mode,session['login'],\n\t session['answer_list'][question_number-1],\n\t request.vars,session['question_timer'])\n\tcode = utility.add_submit_label(code,session['quiz'].practice_mode)\n\tcode = utility.disable_navi_buttons(code,question_number,\n\t session['quiz'])\n\n\t# update question timer\n\tsession['question_timer'] = int(time.time())\n\treturn code\n\nresponse._vars=response._caller(quiz)\n"
p6
sS'snapshot'
p7
(dp8
S'exception'
p9
(dp10
S'__hash__'
p11
S"<method-wrapper '__hash__' of exceptions.IndexError object>"
p12
sS'__setattr__'
p13
S"<method-wrapper '__setattr__' of exceptions.IndexError object>"
p14
sS'__reduce_ex__'
p15
S'<built-in method __reduce_ex__ of exceptions.IndexError object>'
p16
sS'__getslice__'
p17
S"<method-wrapper '__getslice__' of exceptions.IndexError object>"
p18
sS'__getitem__'
p19
S"<method-wrapper '__getitem__' of exceptions.IndexError object>"
p20
sS'__setstate__'
p21
S'<built-in method __setstate__ of exceptions.IndexError object>'
p22
sS'__reduce__'
p23
S'<built-in method __reduce__ of exceptions.IndexError object>'
p24
sS'__str__'
p25
S"<method-wrapper '__str__' of exceptions.IndexError object>"
p26
sS'__format__'
p27
S'<built-in method __format__ of exceptions.IndexError object>'
p28
sS'__getattribute__'
p29
S"<method-wrapper '__getattribute__' of exceptions.IndexError object>"
p30
sS'__class__'
p31
S"<type 'exceptions.IndexError'>"
p32
sS'__unicode__'
p33
S'<built-in method __unicode__ of exceptions.IndexError object>'
p34
sS'__delattr__'
p35
S"<method-wrapper '__delattr__' of exceptions.IndexError object>"
p36
sS'__subclasshook__'
p37
S'<built-in method __subclasshook__ of type object>'
p38
sS'__repr__'
p39
S"<method-wrapper '__repr__' of exceptions.IndexError object>"
p40
sS'args'
p41
S"('list index out of range',)"
p42
sS'__dict__'
p43
S'{}'
p44
sS'__sizeof__'
p45
S'<built-in method __sizeof__ of exceptions.IndexError object>'
p46
sS'__doc__'
p47
S"'Sequence index out of range.'"
p48
sS'__init__'
p49
S"<method-wrapper '__init__' of exceptions.IndexError object>"
p50
sS'__new__'
p51
S'<built-in method __new__ of type object>'
p52
ssS'evalue'
p53
S'list index out of range'
p54
sS'request'
p55
ccopy_reg
_reconstructor
p56
(cgluon.html
BEAUTIFY
p57
c__builtin__
object
p58
NtRp59
(dp60
S'attributes'
p61
(dp62
sS'components'
p63
(lp64
g56
(cgluon.html
TABLE
p65
g58
NtRp66
(dp67
g61
(dp68
S'level'
p69
I5
ssS'parent'
p70
Nsg63
(lp71
g56
(cgluon.html
TR
p72
g58
NtRp73
(dp74
g61
(dp75
sg70
g66
sg63
(lp76
g56
(cgluon.html
TD
p77
g58
NtRp78
(dp79
g61
(dp80
S'_style'
p81
S'font-weight:bold;'
p82
ssg70
g73
sg63
(lp83
S'ajax'
p84
asbag56
(g77
g58
NtRp85
(dp86
g61
(dp87
S'_valign'
p88
S'top'
p89
ssg70
g73
sg63
(lp90
S':'
asbag56
(g77
g58
NtRp91
(dp92
g61
(dp93
sg70
g73
sg63
(lp94
g56
(g57
g58
NtRp95
(dp96
g61
(dp97
g69
I5
ssg70
g91
sg63
(lp98
S'False'
p99
asbasbasbag56
(g72
g58
NtRp100
(dp101
g61
(dp102
sg70
g66
sg63
(lp103
g56
(g77
g58
NtRp104
(dp105
g61
(dp106
g81
g82
ssg70
g100
sg63
(lp107
S'application'
p108
asbag56
(g77
g58
NtRp109
(dp110
g61
(dp111
g88
g89
ssg70
g100
sg63
(lp112
S':'
asbag56
(g77
g58
NtRp113
(dp114
g61
(dp115
sg70
g100
sg63
(lp116
g56
(g57
g58
NtRp117
(dp118
g61
(dp119
g69
I5
ssg70
g113
sg63
(lp120
S'codeAct'
p121
asbasbasbag56
(g72
g58
NtRp122
(dp123
g61
(dp124
sg70
g66
sg63
(lp125
g56
(g77
g58
NtRp126
(dp127
g61
(dp128
g81
g82
ssg70
g122
sg63
(lp129
g41
asbag56
(g77
g58
NtRp130
(dp131
g61
(dp132
g88
g89
ssg70
g122
sg63
(lp133
S':'
asbag56
(g77
g58
NtRp134
(dp135
g61
(dp136
sg70
g122
sg63
(lp137
g56
(g57
g58
NtRp138
(dp139
g61
(dp140
g69
I5
ssg70
g134
sg63
(lp141
g56
(g65
g58
NtRp142
(dp143
g61
(dp144
g69
I4
ssg70
Nsg63
(lp145
sbasbasbasbag56
(g72
g58
NtRp146
(dp147
g61
(dp148
sg70
g66
sg63
(lp149
g56
(g77
g58
NtRp150
(dp151
g61
(dp152
g81
g82
ssg70
g146
sg63
(lp153
S'body'
p154
asbag56
(g77
g58
NtRp155
(dp156
g61
(dp157
g88
g89
ssg70
g146
sg63
(lp158
S':'
asbag56
(g77
g58
NtRp159
(dp160
g61
(dp161
sg70
g146
sg63
(lp162
g56
(g57
g58
NtRp163
(dp164
g61
(dp165
g69
I5
ssg70
g159
sg63
(lp166
S'<cStringIO.StringO object at 0x8c5a9a0>'
p167
asbasbasbag56
(g72
g58
NtRp168
(dp169
g61
(dp170
sg70
g66
sg63
(lp171
g56
(g77
g58
NtRp172
(dp173
g61
(dp174
g81
g82
ssg70
g168
sg63
(lp175
S'client'
p176
asbag56
(g77
g58
NtRp177
(dp178
g61
(dp179
g88
g89
ssg70
g168
sg63
(lp180
S':'
asbag56
(g77
g58
NtRp181
(dp182
g61
(dp183
sg70
g168
sg63
(lp184
g56
(g57
g58
NtRp185
(dp186
g61
(dp187
g69
I5
ssg70
g181
sg63
(lp188
S'127.0.0.1'
p189
asbasbasbag56
(g72
g58
NtRp190
(dp191
g61
(dp192
sg70
g66
sg63
(lp193
g56
(g77
g58
NtRp194
(dp195
g61
(dp196
g81
g82
ssg70
g190
sg63
(lp197
S'controller'
p198
asbag56
(g77
g58
NtRp199
(dp200
g61
(dp201
g88
g89
ssg70
g190
sg63
(lp202
S':'
asbag56
(g77
g58
NtRp203
(dp204
g61
(dp205
sg70
g190
sg63
(lp206
g56
(g57
g58
NtRp207
(dp208
g61
(dp209
g69
I5
ssg70
g203
sg63
(lp210
S'ca_controller'
p211
asbasbasbag56
(g72
g58
NtRp212
(dp213
g61
(dp214
sg70
g66
sg63
(lp215
g56
(g77
g58
NtRp216
(dp217
g61
(dp218
g81
g82
ssg70
g212
sg63
(lp219
S'cookies'
p220
asbag56
(g77
g58
NtRp221
(dp222
g61
(dp223
g88
g89
ssg70
g212
sg63
(lp224
S':'
asbag56
(g77
g58
NtRp225
(dp226
g61
(dp227
sg70
g212
sg63
(lp228
g56
(g57
g58
NtRp229
(dp230
g61
(dp231
g69
I5
ssg70
g225
sg63
(lp232
g56
(g65
g58
NtRp233
(dp234
g61
(dp235
g69
I4
ssg70
Nsg63
(lp236
g56
(g72
g58
NtRp237
(dp238
g61
(dp239
sg70
g233
sg63
(lp240
g56
(g77
g58
NtRp241
(dp242
g61
(dp243
g81
g82
ssg70
g237
sg63
(lp244
S'session_id_codeact'
p245
asbag56
(g77
g58
NtRp246
(dp247
g61
(dp248
g88
g89
ssg70
g237
sg63
(lp249
S':'
asbag56
(g77
g58
NtRp250
(dp251
g61
(dp252
sg70
g237
sg63
(lp253
g56
(g57
g58
NtRp254
(dp255
g61
(dp256
g69
I4
ssg70
g250
sg63
(lp257
g56
(g65
g58
NtRp258
(dp259
g61
(dp260
g69
I3
ssg70
Nsg63
(lp261
g56
(g72
g58
NtRp262
(dp263
g61
(dp264
sg70
g258
sg63
(lp265
g56
(g77
g58
NtRp266
(dp267
g61
(dp268
g81
g82
ssg70
g262
sg63
(lp269
S'comment'
p270
asbag56
(g77
g58
NtRp271
(dp272
g61
(dp273
g88
g89
ssg70
g262
sg63
(lp274
S':'
asbag56
(g77
g58
NtRp275
(dp276
g61
(dp277
sg70
g262
sg63
(lp278
g56
(g57
g58
NtRp279
(dp280
g61
(dp281
g69
I3
ssg70
g275
sg63
(lp282
S''
asbasbasbag56
(g72
g58
NtRp283
(dp284
g61
(dp285
sg70
g258
sg63
(lp286
g56
(g77
g58
NtRp287
(dp288
g61
(dp289
g81
g82
ssg70
g283
sg63
(lp290
S'domain'
p291
asbag56
(g77
g58
NtRp292
(dp293
g61
(dp294
g88
g89
ssg70
g283
sg63
(lp295
S':'
asbag56
(g77
g58
NtRp296
(dp297
g61
(dp298
sg70
g283
sg63
(lp299
g56
(g57
g58
NtRp300
(dp301
g61
(dp302
g69
I3
ssg70
g296
sg63
(lp303
S''
asbasbasbag56
(g72
g58
NtRp304
(dp305
g61
(dp306
sg70
g258
sg63
(lp307
g56
(g77
g58
NtRp308
(dp309
g61
(dp310
g81
g82
ssg70
g304
sg63
(lp311
S'expires'
p312
asbag56
(g77
g58
NtRp313
(dp314
g61
(dp315
g88
g89
ssg70
g304
sg63
(lp316
S':'
asbag56
(g77
g58
NtRp317
(dp318
g61
(dp319
sg70
g304
sg63
(lp320
g56
(g57
g58
NtRp321
(dp322
g61
(dp323
g69
I3
ssg70
g317
sg63
(lp324
S''
asbasbasbag56
(g72
g58
NtRp325
(dp326
g61
(dp327
sg70
g258
sg63
(lp328
g56
(g77
g58
NtRp329
(dp330
g61
(dp331
g81
g82
ssg70
g325
sg63
(lp332
S'httponly'
p333
asbag56
(g77
g58
NtRp334
(dp335
g61
(dp336
g88
g89
ssg70
g325
sg63
(lp337
S':'
asbag56
(g77
g58
NtRp338
(dp339
g61
(dp340
sg70
g325
sg63
(lp341
g56
(g57
g58
NtRp342
(dp343
g61
(dp344
g69
I3
ssg70
g338
sg63
(lp345
S''
asbasbasbag56
(g72
g58
NtRp346
(dp347
g61
(dp348
sg70
g258
sg63
(lp349
g56
(g77
g58
NtRp350
(dp351
g61
(dp352
g81
g82
ssg70
g346
sg63
(lp353
S'max-age'
p354
asbag56
(g77
g58
NtRp355
(dp356
g61
(dp357
g88
g89
ssg70
g346
sg63
(lp358
S':'
asbag56
(g77
g58
NtRp359
(dp360
g61
(dp361
sg70
g346
sg63
(lp362
g56
(g57
g58
NtRp363
(dp364
g61
(dp365
g69
I3
ssg70
g359
sg63
(lp366
S''
asbasbasbag56
(g72
g58
NtRp367
(dp368
g61
(dp369
sg70
g258
sg63
(lp370
g56
(g77
g58
NtRp371
(dp372
g61
(dp373
g81
g82
ssg70
g367
sg63
(lp374
S'path'
p375
asbag56
(g77
g58
NtRp376
(dp377
g61
(dp378
g88
g89
ssg70
g367
sg63
(lp379
S':'
asbag56
(g77
g58
NtRp380
(dp381
g61
(dp382
sg70
g367
sg63
(lp383
g56
(g57
g58
NtRp384
(dp385
g61
(dp386
g69
I3
ssg70
g380
sg63
(lp387
S''
asbasbasbag56
(g72
g58
NtRp388
(dp389
g61
(dp390
sg70
g258
sg63
(lp391
g56
(g77
g58
NtRp392
(dp393
g61
(dp394
g81
g82
ssg70
g388
sg63
(lp395
S'secure'
p396
asbag56
(g77
g58
NtRp397
(dp398
g61
(dp399
g88
g89
ssg70
g388
sg63
(lp400
S':'
asbag56
(g77
g58
NtRp401
(dp402
g61
(dp403
sg70
g388
sg63
(lp404
g56
(g57
g58
NtRp405
(dp406
g61
(dp407
g69
I3
ssg70
g401
sg63
(lp408
S''
asbasbasbag56
(g72
g58
NtRp409
(dp410
g61
(dp411
sg70
g258
sg63
(lp412
g56
(g77
g58
NtRp413
(dp414
g61
(dp415
g81
g82
ssg70
g409
sg63
(lp416
S'version'
p417
asbag56
(g77
g58
NtRp418
(dp419
g61
(dp420
g88
g89
ssg70
g409
sg63
(lp421
S':'
asbag56
(g77
g58
NtRp422
(dp423
g61
(dp424
sg70
g409
sg63
(lp425
g56
(g57
g58
NtRp426
(dp427
g61
(dp428
g69
I3
ssg70
g422
sg63
(lp429
S''
asbasbasbasbasbasbasbasbasbasbasbag56
(g72
g58
NtRp430
(dp431
g61
(dp432
sg70
g66
sg63
(lp433
g56
(g77
g58
NtRp434
(dp435
g61
(dp436
g81
g82
ssg70
g430
sg63
(lp437
S'env'
p438
asbag56
(g77
g58
NtRp439
(dp440
g61
(dp441
g88
g89
ssg70
g430
sg63
(lp442
S':'
asbag56
(g77
g58
NtRp443
(dp444
g61
(dp445
sg70
g430
sg63
(lp446
g56
(g57
g58
NtRp447
(dp448
g61
(dp449
g69
I5
ssg70
g443
sg63
(lp450
g56
(g65
g58
NtRp451
(dp452
g61
(dp453
g69
I4
ssg70
Nsg63
(lp454
g56
(g72
g58
NtRp455
(dp456
g61
(dp457
sg70
g451
sg63
(lp458
g56
(g77
g58
NtRp459
(dp460
g61
(dp461
g81
g82
ssg70
g455
sg63
(lp462
S'app_folders'
p463
asbag56
(g77
g58
NtRp464
(dp465
g61
(dp466
g88
g89
ssg70
g455
sg63
(lp467
S':'
asbag56
(g77
g58
NtRp468
(dp469
g61
(dp470
sg70
g455
sg63
(lp471
g56
(g57
g58
NtRp472
(dp473
g61
(dp474
g69
I4
ssg70
g468
sg63
(lp475
S"set(['/home/jacobbl/SENG265/pe2/codeAct_1.01/web2py/applications/codeAct/'])"
p476
asbasbasbag56
(g72
g58
NtRp477
(dp478
g61
(dp479
sg70
g451
sg63
(lp480
g56
(g77
g58
NtRp481
(dp482
g61
(dp483
g81
g82
ssg70
g477
sg63
(lp484
S'applications_parent'
p485
asbag56
(g77
g58
NtRp486
(dp487
g61
(dp488
g88
g89
ssg70
g477
sg63
(lp489
S':'
asbag56
(g77
g58
NtRp490
(dp491
g61
(dp492
sg70
g477
sg63
(lp493
g56
(g57
g58
NtRp494
(dp495
g61
(dp496
g69
I4
ssg70
g490
sg63
(lp497
S'/home/jacobbl/SENG265/pe2/codeAct_1.01/web2py'
p498
asbasbasbag56
(g72
g58
NtRp499
(dp500
g61
(dp501
sg70
g451
sg63
(lp502
g56
(g77
g58
NtRp503
(dp504
g61
(dp505
g81
g82
ssg70
g499
sg63
(lp506
S'cmd_args'
p507
asbag56
(g77
g58
NtRp508
(dp509
g61
(dp510
g88
g89
ssg70
g499
sg63
(lp511
S':'
asbag56
(g77
g58
NtRp512
(dp513
g61
(dp514
sg70
g499
sg63
(lp515
g56
(g57
g58
NtRp516
(dp517
g61
(dp518
g69
I4
ssg70
g512
sg63
(lp519
g56
(g65
g58
NtRp520
(dp521
g61
(dp522
g69
I3
ssg70
Nsg63
(lp523
sbasbasbasbag56
(g72
g58
NtRp524
(dp525
g61
(dp526
sg70
g451
sg63
(lp527
g56
(g77
g58
NtRp528
(dp529
g61
(dp530
g81
g82
ssg70
g524
sg63
(lp531
S'cmd_options'
p532
asbag56
(g77
g58
NtRp533
(dp534
g61
(dp535
g88
g89
ssg70
g524
sg63
(lp536
S':'
asbag56
(g77
g58
NtRp537
(dp538
g61
(dp539
sg70
g524
sg63
(lp540
g56
(g57
g58
NtRp541
(dp542
g61
(dp543
g69
I4
ssg70
g537
sg63
(lp544
S"<Values at 0x8bdf24c: {'verbose': False, 'ip': '127.0.0.1', 'shutdown_timeout': 5, 'taskbar': False, 'port': 8080, 'maxthreads': None, 'softcron': False, 'server_name': 'c75', 'bpython': False, 'nogui': False, 'nocron': False, 'extcron': False, 'debuglevel': 30, 'test': None, 'folder': '/home/jacobbl/SENG265/pe2/codeAct_1.01/web2py', 'config': '', 'import_models': False, 'winservice': '', 'shell': None, 'run': '', 'log_filename': 'httpserver.log', 'args': [''], 'profiler_filename': None, 'ssl_private_key': '', 'password': 'password', 'request_queue_size': 5, 'ssl_certificate': '', 'cronjob': False, 'plain': False, 'quiet': False, 'interfaces': None, 'minthreads': None, 'timeout': 10, 'numthreads': None, 'pid_filename': 'httpserver.pid'}>"
p545
asbasbasbag56
(g72
g58
NtRp546
(dp547
g61
(dp548
sg70
g451
sg63
(lp549
g56
(g77
g58
NtRp550
(dp551
g61
(dp552
g81
g82
ssg70
g546
sg63
(lp553
S'db_sessions'
p554
asbag56
(g77
g58
NtRp555
(dp556
g61
(dp557
g88
g89
ssg70
g546
sg63
(lp558
S':'
asbag56
(g77
g58
NtRp559
(dp560
g61
(dp561
sg70
g546
sg63
(lp562
g56
(g57
g58
NtRp563
(dp564
g61
(dp565
g69
I4
ssg70
g559
sg63
(lp566
S'set([])'
p567
asbasbasbag56
(g72
g58
NtRp568
(dp569
g61
(dp570
sg70
g451
sg63
(lp571
g56
(g77
g58
NtRp572
(dp573
g61
(dp574
g81
g82
ssg70
g568
sg63
(lp575
S'debugging'
p576
asbag56
(g77
g58
NtRp577
(dp578
g61
(dp579
g88
g89
ssg70
g568
sg63
(lp580
S':'
asbag56
(g77
g58
NtRp581
(dp582
g61
(dp583
sg70
g568
sg63
(lp584
g56
(g57
g58
NtRp585
(dp586
g61
(dp587
g69
I4
ssg70
g581
sg63
(lp588
g99
asbasbasbag56
(g72
g58
NtRp589
(dp590
g61
(dp591
sg70
g451
sg63
(lp592
g56
(g77
g58
NtRp593
(dp594
g61
(dp595
g81
g82
ssg70
g589
sg63
(lp596
S'gluon_parent'
p597
asbag56
(g77
g58
NtRp598
(dp599
g61
(dp600
g88
g89
ssg70
g589
sg63
(lp601
S':'
asbag56
(g77
g58
NtRp602
(dp603
g61
(dp604
sg70
g589
sg63
(lp605
g56
(g57
g58
NtRp606
(dp607
g61
(dp608
g69
I4
ssg70
g602
sg63
(lp609
S'/home/jacobbl/SENG265/pe2/codeAct_1.01/web2py'
p610
asbasbasbag56
(g72
g58
NtRp611
(dp612
g61
(dp613
sg70
g451
sg63
(lp614
g56
(g77
g58
NtRp615
(dp616
g61
(dp617
g81
g82
ssg70
g611
sg63
(lp618
S'http_accept'
p619
asbag56
(g77
g58
NtRp620
(dp621
g61
(dp622
g88
g89
ssg70
g611
sg63
(lp623
S':'
asbag56
(g77
g58
NtRp624
(dp625
g61
(dp626
sg70
g611
sg63
(lp627
g56
(g57
g58
NtRp628
(dp629
g61
(dp630
g69
I4
ssg70
g624
sg63
(lp631
S'application/xml,application/xhtml+xml,text/html;q=0.9,text/plain;q=0.8,image/png,*/*;q=0.5'
p632
asbasbasbag56
(g72
g58
NtRp633
(dp634
g61
(dp635
sg70
g451
sg63
(lp636
g56
(g77
g58
NtRp637
(dp638
g61
(dp639
g81
g82
ssg70
g633
sg63
(lp640
S'http_accept_charset'
p641
asbag56
(g77
g58
NtRp642
(dp643
g61
(dp644
g88
g89
ssg70
g633
sg63
(lp645
S':'
asbag56
(g77
g58
NtRp646
(dp647
g61
(dp648
sg70
g633
sg63
(lp649
g56
(g57
g58
NtRp650
(dp651
g61
(dp652
g69
I4
ssg70
g646
sg63
(lp653
S'ISO-8859-1,utf-8;q=0.7,*;q=0.3'
p654
asbasbasbag56
(g72
g58
NtRp655
(dp656
g61
(dp657
sg70
g451
sg63
(lp658
g56
(g77
g58
NtRp659
(dp660
g61
(dp661
g81
g82
ssg70
g655
sg63
(lp662
S'http_accept_encoding'
p663
asbag56
(g77
g58
NtRp664
(dp665
g61
(dp666
g88
g89
ssg70
g655
sg63
(lp667
S':'
asbag56
(g77
g58
NtRp668
(dp669
g61
(dp670
sg70
g655
sg63
(lp671
g56
(g57
g58
NtRp672
(dp673
g61
(dp674
g69
I4
ssg70
g668
sg63
(lp675
S'gzip,deflate,sdch'
p676
asbasbasbag56
(g72
g58
NtRp677
(dp678
g61
(dp679
sg70
g451
sg63
(lp680
g56
(g77
g58
NtRp681
(dp682
g61
(dp683
g81
g82
ssg70
g677
sg63
(lp684
S'http_accept_language'
p685
asbag56
(g77
g58
NtRp686
(dp687
g61
(dp688
g88
g89
ssg70
g677
sg63
(lp689
S':'
asbag56
(g77
g58
NtRp690
(dp691
g61
(dp692
sg70
g677
sg63
(lp693
g56
(g57
g58
NtRp694
(dp695
g61
(dp696
g69
I4
ssg70
g690
sg63
(lp697
S'en-US,en;q=0.8'
p698
asbasbasbag56
(g72
g58
NtRp699
(dp700
g61
(dp701
sg70
g451
sg63
(lp702
g56
(g77
g58
NtRp703
(dp704
g61
(dp705
g81
g82
ssg70
g699
sg63
(lp706
S'http_cache_control'
p707
asbag56
(g77
g58
NtRp708
(dp709
g61
(dp710
g88
g89
ssg70
g699
sg63
(lp711
S':'
asbag56
(g77
g58
NtRp712
(dp713
g61
(dp714
sg70
g699
sg63
(lp715
g56
(g57
g58
NtRp716
(dp717
g61
(dp718
g69
I4
ssg70
g712
sg63
(lp719
S'max-age=0'
p720
asbasbasbag56
(g72
g58
NtRp721
(dp722
g61
(dp723
sg70
g451
sg63
(lp724
g56
(g77
g58
NtRp725
(dp726
g61
(dp727
g81
g82
ssg70
g721
sg63
(lp728
S'http_connection'
p729
asbag56
(g77
g58
NtRp730
(dp731
g61
(dp732
g88
g89
ssg70
g721
sg63
(lp733
S':'
asbag56
(g77
g58
NtRp734
(dp735
g61
(dp736
sg70
g721
sg63
(lp737
g56
(g57
g58
NtRp738
(dp739
g61
(dp740
g69
I4
ssg70
g734
sg63
(lp741
S'keep-alive'
p742
asbasbasbag56
(g72
g58
NtRp743
(dp744
g61
(dp745
sg70
g451
sg63
(lp746
g56
(g77
g58
NtRp747
(dp748
g61
(dp749
g81
g82
ssg70
g743
sg63
(lp750
S'http_cookie'
p751
asbag56
(g77
g58
NtRp752
(dp753
g61
(dp754
g88
g89
ssg70
g743
sg63
(lp755
S':'
asbag56
(g77
g58
NtRp756
(dp757
g61
(dp758
sg70
g743
sg63
(lp759
g56
(g57
g58
NtRp760
(dp761
g61
(dp762
g69
I4
ssg70
g756
sg63
(lp763
S'session_id_codeact=127.0.0.1-f7f53c9f-8b35-4710-9e3b-7657ca83029d'
p764
asbasbasbag56
(g72
g58
NtRp765
(dp766
g61
(dp767
sg70
g451
sg63
(lp768
g56
(g77
g58
NtRp769
(dp770
g61
(dp771
g81
g82
ssg70
g765
sg63
(lp772
S'http_host'
p773
asbag56
(g77
g58
NtRp774
(dp775
g61
(dp776
g88
g89
ssg70
g765
sg63
(lp777
S':'
asbag56
(g77
g58
NtRp778
(dp779
g61
(dp780
sg70
g765
sg63
(lp781
g56
(g57
g58
NtRp782
(dp783
g61
(dp784
g69
I4
ssg70
g778
sg63
(lp785
S'localhost:8080'
p786
asbasbasbag56
(g72
g58
NtRp787
(dp788
g61
(dp789
sg70
g451
sg63
(lp790
g56
(g77
g58
NtRp791
(dp792
g61
(dp793
g81
g82
ssg70
g787
sg63
(lp794
S'http_user_agent'
p795
asbag56
(g77
g58
NtRp796
(dp797
g61
(dp798
g88
g89
ssg70
g787
sg63
(lp799
S':'
asbag56
(g77
g58
NtRp800
(dp801
g61
(dp802
sg70
g787
sg63
(lp803
g56
(g57
g58
NtRp804
(dp805
g61
(dp806
g69
I4
ssg70
g800
sg63
(lp807
S'Mozilla/5.0 (X11; Linux i686) AppleWebKit/534.24 (KHTML, like Gecko) Chrome/11.0.696.57 Safari/534.24'
p808
asbasbasbag56
(g72
g58
NtRp809
(dp810
g61
(dp811
sg70
g451
sg63
(lp812
g56
(g77
g58
NtRp813
(dp814
g61
(dp815
g81
g82
ssg70
g809
sg63
(lp816
S'path_info'
p817
asbag56
(g77
g58
NtRp818
(dp819
g61
(dp820
g88
g89
ssg70
g809
sg63
(lp821
S':'
asbag56
(g77
g58
NtRp822
(dp823
g61
(dp824
sg70
g809
sg63
(lp825
g56
(g57
g58
NtRp826
(dp827
g61
(dp828
g69
I4
ssg70
g822
sg63
(lp829
S'/codeAct/ca_controller/quiz.html'
p830
asbasbasbag56
(g72
g58
NtRp831
(dp832
g61
(dp833
sg70
g451
sg63
(lp834
g56
(g77
g58
NtRp835
(dp836
g61
(dp837
g81
g82
ssg70
g831
sg63
(lp838
S'query_string'
p839
asbag56
(g77
g58
NtRp840
(dp841
g61
(dp842
g88
g89
ssg70
g831
sg63
(lp843
S':'
asbag56
(g77
g58
NtRp844
(dp845
g61
(dp846
sg70
g831
sg63
(lp847
g56
(g57
g58
NtRp848
(dp849
g61
(dp850
g69
I4
ssg70
g844
sg63
(lp851
S'quiz_spec=../quiz_specs/sort_quiz_spec'
p852
asbasbasbag56
(g72
g58
NtRp853
(dp854
g61
(dp855
sg70
g451
sg63
(lp856
g56
(g77
g58
NtRp857
(dp858
g61
(dp859
g81
g82
ssg70
g853
sg63
(lp860
S'remote_addr'
p861
asbag56
(g77
g58
NtRp862
(dp863
g61
(dp864
g88
g89
ssg70
g853
sg63
(lp865
S':'
asbag56
(g77
g58
NtRp866
(dp867
g61
(dp868
sg70
g853
sg63
(lp869
g56
(g57
g58
NtRp870
(dp871
g61
(dp872
g69
I4
ssg70
g866
sg63
(lp873
g189
asbasbasbag56
(g72
g58
NtRp874
(dp875
g61
(dp876
sg70
g451
sg63
(lp877
g56
(g77
g58
NtRp878
(dp879
g61
(dp880
g81
g82
ssg70
g874
sg63
(lp881
S'remote_port'
p882
asbag56
(g77
g58
NtRp883
(dp884
g61
(dp885
g88
g89
ssg70
g874
sg63
(lp886
S':'
asbag56
(g77
g58
NtRp887
(dp888
g61
(dp889
sg70
g874
sg63
(lp890
g56
(g57
g58
NtRp891
(dp892
g61
(dp893
g69
I4
ssg70
g887
sg63
(lp894
S'60744'
p895
asbasbasbag56
(g72
g58
NtRp896
(dp897
g61
(dp898
sg70
g451
sg63
(lp899
g56
(g77
g58
NtRp900
(dp901
g61
(dp902
g81
g82
ssg70
g896
sg63
(lp903
S'request_method'
p904
asbag56
(g77
g58
NtRp905
(dp906
g61
(dp907
g88
g89
ssg70
g896
sg63
(lp908
S':'
asbag56
(g77
g58
NtRp909
(dp910
g61
(dp911
sg70
g896
sg63
(lp912
g56
(g57
g58
NtRp913
(dp914
g61
(dp915
g69
I4
ssg70
g909
sg63
(lp916
S'GET'
p917
asbasbasbag56
(g72
g58
NtRp918
(dp919
g61
(dp920
sg70
g451
sg63
(lp921
g56
(g77
g58
NtRp922
(dp923
g61
(dp924
g81
g82
ssg70
g918
sg63
(lp925
S'script_name'
p926
asbag56
(g77
g58
NtRp927
(dp928
g61
(dp929
g88
g89
ssg70
g918
sg63
(lp930
S':'
asbag56
(g77
g58
NtRp931
(dp932
g61
(dp933
sg70
g918
sg63
(lp934
g56
(g57
g58
NtRp935
(dp936
g61
(dp937
g69
I4
ssg70
g931
sg63
(lp938
S''
asbasbasbag56
(g72
g58
NtRp939
(dp940
g61
(dp941
sg70
g451
sg63
(lp942
g56
(g77
g58
NtRp943
(dp944
g61
(dp945
g81
g82
ssg70
g939
sg63
(lp946
S'server_name'
p947
asbag56
(g77
g58
NtRp948
(dp949
g61
(dp950
g88
g89
ssg70
g939
sg63
(lp951
S':'
asbag56
(g77
g58
NtRp952
(dp953
g61
(dp954
sg70
g939
sg63
(lp955
g56
(g57
g58
NtRp956
(dp957
g61
(dp958
g69
I4
ssg70
g952
sg63
(lp959
S'c75'
p960
asbasbasbag56
(g72
g58
NtRp961
(dp962
g61
(dp963
sg70
g451
sg63
(lp964
g56
(g77
g58
NtRp965
(dp966
g61
(dp967
g81
g82
ssg70
g961
sg63
(lp968
S'server_port'
p969
asbag56
(g77
g58
NtRp970
(dp971
g61
(dp972
g88
g89
ssg70
g961
sg63
(lp973
S':'
asbag56
(g77
g58
NtRp974
(dp975
g61
(dp976
sg70
g961
sg63
(lp977
g56
(g57
g58
NtRp978
(dp979
g61
(dp980
g69
I4
ssg70
g974
sg63
(lp981
S'8080'
p982
asbasbasbag56
(g72
g58
NtRp983
(dp984
g61
(dp985
sg70
g451
sg63
(lp986
g56
(g77
g58
NtRp987
(dp988
g61
(dp989
g81
g82
ssg70
g983
sg63
(lp990
S'server_protocol'
p991
asbag56
(g77
g58
NtRp992
(dp993
g61
(dp994
g88
g89
ssg70
g983
sg63
(lp995
S':'
asbag56
(g77
g58
NtRp996
(dp997
g61
(dp998
sg70
g983
sg63
(lp999
g56
(g57
g58
NtRp1000
(dp1001
g61
(dp1002
g69
I4
ssg70
g996
sg63
(lp1003
S'HTTP/1.1'
p1004
asbasbasbag56
(g72
g58
NtRp1005
(dp1006
g61
(dp1007
sg70
g451
sg63
(lp1008
g56
(g77
g58
NtRp1009
(dp1010
g61
(dp1011
g81
g82
ssg70
g1005
sg63
(lp1012
S'server_software'
p1013
asbag56
(g77
g58
NtRp1014
(dp1015
g61
(dp1016
g88
g89
ssg70
g1005
sg63
(lp1017
S':'
asbag56
(g77
g58
NtRp1018
(dp1019
g61
(dp1020
sg70
g1005
sg63
(lp1021
g56
(g57
g58
NtRp1022
(dp1023
g61
(dp1024
g69
I4
ssg70
g1018
sg63
(lp1025
S'Rocket 1.2.2'
p1026
asbasbasbag56
(g72
g58
NtRp1027
(dp1028
g61
(dp1029
sg70
g451
sg63
(lp1030
g56
(g77
g58
NtRp1031
(dp1032
g61
(dp1033
g81
g82
ssg70
g1027
sg63
(lp1034
S'web2py_crontype'
p1035
asbag56
(g77
g58
NtRp1036
(dp1037
g61
(dp1038
g88
g89
ssg70
g1027
sg63
(lp1039
S':'
asbag56
(g77
g58
NtRp1040
(dp1041
g61
(dp1042
sg70
g1027
sg63
(lp1043
g56
(g57
g58
NtRp1044
(dp1045
g61
(dp1046
g69
I4
ssg70
g1040
sg63
(lp1047
S'hard'
p1048
asbasbasbag56
(g72
g58
NtRp1049
(dp1050
g61
(dp1051
sg70
g451
sg63
(lp1052
g56
(g77
g58
NtRp1053
(dp1054
g61
(dp1055
g81
g82
ssg70
g1049
sg63
(lp1056
S'web2py_path'
p1057
asbag56
(g77
g58
NtRp1058
(dp1059
g61
(dp1060
g88
g89
ssg70
g1049
sg63
(lp1061
S':'
asbag56
(g77
g58
NtRp1062
(dp1063
g61
(dp1064
sg70
g1049
sg63
(lp1065
g56
(g57
g58
NtRp1066
(dp1067
g61
(dp1068
g69
I4
ssg70
g1062
sg63
(lp1069
g498
asbasbasbag56
(g72
g58
NtRp1070
(dp1071
g61
(dp1072
sg70
g451
sg63
(lp1073
g56
(g77
g58
NtRp1074
(dp1075
g61
(dp1076
g81
g82
ssg70
g1070
sg63
(lp1077
S'web2py_version'
p1078
asbag56
(g77
g58
NtRp1079
(dp1080
g61
(dp1081
g88
g89
ssg70
g1070
sg63
(lp1082
S':'
asbag56
(g77
g58
NtRp1083
(dp1084
g61
(dp1085
sg70
g1070
sg63
(lp1086
g56
(g57
g58
NtRp1087
(dp1088
g61
(dp1089
g69
I4
ssg70
g1083
sg63
(lp1090
S'Version 1.95.1 (2011-04-25 15:04:14)\n'
p1091
asbasbasbag56
(g72
g58
NtRp1092
(dp1093
g61
(dp1094
sg70
g451
sg63
(lp1095
g56
(g77
g58
NtRp1096
(dp1097
g61
(dp1098
g81
g82
ssg70
g1092
sg63
(lp1099
S'wsgi_errors'
p1100
asbag56
(g77
g58
NtRp1101
(dp1102
g61
(dp1103
g88
g89
ssg70
g1092
sg63
(lp1104
S':'
asbag56
(g77
g58
NtRp1105
(dp1106
g61
(dp1107
sg70
g1092
sg63
(lp1108
g56
(g57
g58
NtRp1109
(dp1110
g61
(dp1111
g69
I4
ssg70
g1105
sg63
(lp1112
S"<open file '<stderr>', mode 'w' at 0xb77d70d0>"
p1113
asbasbasbag56
(g72
g58
NtRp1114
(dp1115
g61
(dp1116
sg70
g451
sg63
(lp1117
g56
(g77
g58
NtRp1118
(dp1119
g61
(dp1120
g81
g82
ssg70
g1114
sg63
(lp1121
S'wsgi_file_wrapper'
p1122
asbag56
(g77
g58
NtRp1123
(dp1124
g61
(dp1125
g88
g89
ssg70
g1114
sg63
(lp1126
S':'
asbag56
(g77
g58
NtRp1127
(dp1128
g61
(dp1129
sg70
g1114
sg63
(lp1130
g56
(g57
g58
NtRp1131
(dp1132
g61
(dp1133
g69
I4
ssg70
g1127
sg63
(lp1134
S'<class gluon.rocket.FileWrapper at 0x8b3e44c>'
p1135
asbasbasbag56
(g72
g58
NtRp1136
(dp1137
g61
(dp1138
sg70
g451
sg63
(lp1139
g56
(g77
g58
NtRp1140
(dp1141
g61
(dp1142
g81
g82
ssg70
g1136
sg63
(lp1143
S'wsgi_input'
p1144
asbag56
(g77
g58
NtRp1145
(dp1146
g61
(dp1147
g88
g89
ssg70
g1136
sg63
(lp1148
S':'
asbag56
(g77
g58
NtRp1149
(dp1150
g61
(dp1151
sg70
g1136
sg63
(lp1152
g56
(g57
g58
NtRp1153
(dp1154
g61
(dp1155
g69
I4
ssg70
g1149
sg63
(lp1156
S'<socket._fileobject object at 0x8c4feac>'
p1157
asbasbasbag56
(g72
g58
NtRp1158
(dp1159
g61
(dp1160
sg70
g451
sg63
(lp1161
g56
(g77
g58
NtRp1162
(dp1163
g61
(dp1164
g81
g82
ssg70
g1158
sg63
(lp1165
S'wsgi_multiprocess'
p1166
asbag56
(g77
g58
NtRp1167
(dp1168
g61
(dp1169
g88
g89
ssg70
g1158
sg63
(lp1170
S':'
asbag56
(g77
g58
NtRp1171
(dp1172
g61
(dp1173
sg70
g1158
sg63
(lp1174
g56
(g57
g58
NtRp1175
(dp1176
g61
(dp1177
g69
I4
ssg70
g1171
sg63
(lp1178
g99
asbasbasbag56
(g72
g58
NtRp1179
(dp1180
g61
(dp1181
sg70
g451
sg63
(lp1182
g56
(g77
g58
NtRp1183
(dp1184
g61
(dp1185
g81
g82
ssg70
g1179
sg63
(lp1186
S'wsgi_multithread'
p1187
asbag56
(g77
g58
NtRp1188
(dp1189
g61
(dp1190
g88
g89
ssg70
g1179
sg63
(lp1191
S':'
asbag56
(g77
g58
NtRp1192
(dp1193
g61
(dp1194
sg70
g1179
sg63
(lp1195
g56
(g57
g58
NtRp1196
(dp1197
g61
(dp1198
g69
I4
ssg70
g1192
sg63
(lp1199
S'True'
p1200
asbasbasbag56
(g72
g58
NtRp1201
(dp1202
g61
(dp1203
sg70
g451
sg63
(lp1204
g56
(g77
g58
NtRp1205
(dp1206
g61
(dp1207
g81
g82
ssg70
g1201
sg63
(lp1208
S'wsgi_run_once'
p1209
asbag56
(g77
g58
NtRp1210
(dp1211
g61
(dp1212
g88
g89
ssg70
g1201
sg63
(lp1213
S':'
asbag56
(g77
g58
NtRp1214
(dp1215
g61
(dp1216
sg70
g1201
sg63
(lp1217
g56
(g57
g58
NtRp1218
(dp1219
g61
(dp1220
g69
I4
ssg70
g1214
sg63
(lp1221
g99
asbasbasbag56
(g72
g58
NtRp1222
(dp1223
g61
(dp1224
sg70
g451
sg63
(lp1225
g56
(g77
g58
NtRp1226
(dp1227
g61
(dp1228
g81
g82
ssg70
g1222
sg63
(lp1229
S'wsgi_url_scheme'
p1230
asbag56
(g77
g58
NtRp1231
(dp1232
g61
(dp1233
g88
g89
ssg70
g1222
sg63
(lp1234
S':'
asbag56
(g77
g58
NtRp1235
(dp1236
g61
(dp1237
sg70
g1222
sg63
(lp1238
g56
(g57
g58
NtRp1239
(dp1240
g61
(dp1241
g69
I4
ssg70
g1235
sg63
(lp1242
S'http'
p1243
asbasbasbag56
(g72
g58
NtRp1244
(dp1245
g61
(dp1246
sg70
g451
sg63
(lp1247
g56
(g77
g58
NtRp1248
(dp1249
g61
(dp1250
g81
g82
ssg70
g1244
sg63
(lp1251
S'wsgi_version'
p1252
asbag56
(g77
g58
NtRp1253
(dp1254
g61
(dp1255
g88
g89
ssg70
g1244
sg63
(lp1256
S':'
asbag56
(g77
g58
NtRp1257
(dp1258
g61
(dp1259
sg70
g1244
sg63
(lp1260
g56
(g57
g58
NtRp1261
(dp1262
g61
(dp1263
g69
I4
ssg70
g1257
sg63
(lp1264
g56
(g65
g58
NtRp1265
(dp1266
g61
(dp1267
g69
I3
ssg70
Nsg63
(lp1268
g56
(g72
g58
NtRp1269
(dp1270
g61
(dp1271
sg70
g1265
sg63
(lp1272
g56
(g77
g58
NtRp1273
(dp1274
g61
(dp1275
sg70
g1269
sg63
(lp1276
g56
(g57
g58
NtRp1277
(dp1278
g61
(dp1279
g69
I3
ssg70
g1273
sg63
(lp1280
S'1'
asbasbasbag56
(g72
g58
NtRp1281
(dp1282
g61
(dp1283
sg70
g1265
sg63
(lp1284
g56
(g77
g58
NtRp1285
(dp1286
g61
(dp1287
sg70
g1281
sg63
(lp1288
g56
(g57
g58
NtRp1289
(dp1290
g61
(dp1291
g69
I3
ssg70
g1285
sg63
(lp1292
S'0'
asbasbasbasbasbasbasbasbasbasbasbag56
(g72
g58
NtRp1293
(dp1294
g61
(dp1295
sg70
g66
sg63
(lp1296
g56
(g77
g58
NtRp1297
(dp1298
g61
(dp1299
g81
g82
ssg70
g1293
sg63
(lp1300
S'extension'
p1301
asbag56
(g77
g58
NtRp1302
(dp1303
g61
(dp1304
g88
g89
ssg70
g1293
sg63
(lp1305
S':'
asbag56
(g77
g58
NtRp1306
(dp1307
g61
(dp1308
sg70
g1293
sg63
(lp1309
g56
(g57
g58
NtRp1310
(dp1311
g61
(dp1312
g69
I5
ssg70
g1306
sg63
(lp1313
S'html'
p1314
asbasbasbag56
(g72
g58
NtRp1315
(dp1316
g61
(dp1317
sg70
g66
sg63
(lp1318
g56
(g77
g58
NtRp1319
(dp1320
g61
(dp1321
g81
g82
ssg70
g1315
sg63
(lp1322
S'folder'
p1323
asbag56
(g77
g58
NtRp1324
(dp1325
g61
(dp1326
g88
g89
ssg70
g1315
sg63
(lp1327
S':'
asbag56
(g77
g58
NtRp1328
(dp1329
g61
(dp1330
sg70
g1315
sg63
(lp1331
g56
(g57
g58
NtRp1332
(dp1333
g61
(dp1334
g69
I5
ssg70
g1328
sg63
(lp1335
S'/home/jacobbl/SENG265/pe2/codeAct_1.01/web2py/applications/codeAct/'
p1336
asbasbasbag56
(g72
g58
NtRp1337
(dp1338
g61
(dp1339
sg70
g66
sg63
(lp1340
g56
(g77
g58
NtRp1341
(dp1342
g61
(dp1343
g81
g82
ssg70
g1337
sg63
(lp1344
S'function'
p1345
asbag56
(g77
g58
NtRp1346
(dp1347
g61
(dp1348
g88
g89
ssg70
g1337
sg63
(lp1349
S':'
asbag56
(g77
g58
NtRp1350
(dp1351
g61
(dp1352
sg70
g1337
sg63
(lp1353
g56
(g57
g58
NtRp1354
(dp1355
g61
(dp1356
g69
I5
ssg70
g1350
sg63
(lp1357
S'quiz'
p1358
asbasbasbag56
(g72
g58
NtRp1359
(dp1360
g61
(dp1361
sg70
g66
sg63
(lp1362
g56
(g77
g58
NtRp1363
(dp1364
g61
(dp1365
g81
g82
ssg70
g1359
sg63
(lp1366
S'get_vars'
p1367
asbag56
(g77
g58
NtRp1368
(dp1369
g61
(dp1370
g88
g89
ssg70
g1359
sg63
(lp1371
S':'
asbag56
(g77
g58
NtRp1372
(dp1373
g61
(dp1374
sg70
g1359
sg63
(lp1375
g56
(g57
g58
NtRp1376
(dp1377
g61
(dp1378
g69
I5
ssg70
g1372
sg63
(lp1379
g56
(g65
g58
NtRp1380
(dp1381
g61
(dp1382
g69
I4
ssg70
Nsg63
(lp1383
g56
(g72
g58
NtRp1384
(dp1385
g61
(dp1386
sg70
g1380
sg63
(lp1387
g56
(g77
g58
NtRp1388
(dp1389
g61
(dp1390
g81
g82
ssg70
g1384
sg63
(lp1391
S'quiz_spec'
p1392
asbag56
(g77
g58
NtRp1393
(dp1394
g61
(dp1395
g88
g89
ssg70
g1384
sg63
(lp1396
S':'
asbag56
(g77
g58
NtRp1397
(dp1398
g61
(dp1399
sg70
g1384
sg63
(lp1400
g56
(g57
g58
NtRp1401
(dp1402
g61
(dp1403
g69
I4
ssg70
g1397
sg63
(lp1404
S'../quiz_specs/sort_quiz_spec'
p1405
asbasbasbasbasbasbasbag56
(g72
g58
NtRp1406
(dp1407
g61
(dp1408
sg70
g66
sg63
(lp1409
g56
(g77
g58
NtRp1410
(dp1411
g61
(dp1412
g81
g82
ssg70
g1406
sg63
(lp1413
S'is_restful'
p1414
asbag56
(g77
g58
NtRp1415
(dp1416
g61
(dp1417
g88
g89
ssg70
g1406
sg63
(lp1418
S':'
asbag56
(g77
g58
NtRp1419
(dp1420
g61
(dp1421
sg70
g1406
sg63
(lp1422
g56
(g57
g58
NtRp1423
(dp1424
g61
(dp1425
g69
I5
ssg70
g1419
sg63
(lp1426
g99
asbasbasbag56
(g72
g58
NtRp1427
(dp1428
g61
(dp1429
sg70
g66
sg63
(lp1430
g56
(g77
g58
NtRp1431
(dp1432
g61
(dp1433
g81
g82
ssg70
g1427
sg63
(lp1434
S'now'
p1435
asbag56
(g77
g58
NtRp1436
(dp1437
g61
(dp1438
g88
g89
ssg70
g1427
sg63
(lp1439
S':'
asbag56
(g77
g58
NtRp1440
(dp1441
g61
(dp1442
sg70
g1427
sg63
(lp1443
g56
(g57
g58
NtRp1444
(dp1445
g61
(dp1446
g69
I5
ssg70
g1440
sg63
(lp1447
S'datetime.datetime(2011, 7, 2, 17, 10, 3, 618904)'
p1448
asbasbasbag56
(g72
g58
NtRp1449
(dp1450
g61
(dp1451
sg70
g66
sg63
(lp1452
g56
(g77
g58
NtRp1453
(dp1454
g61
(dp1455
g81
g82
ssg70
g1449
sg63
(lp1456
S'post_vars'
p1457
asbag56
(g77
g58
NtRp1458
(dp1459
g61
(dp1460
g88
g89
ssg70
g1449
sg63
(lp1461
S':'
asbag56
(g77
g58
NtRp1462
(dp1463
g61
(dp1464
sg70
g1449
sg63
(lp1465
g56
(g57
g58
NtRp1466
(dp1467
g61
(dp1468
g69
I5
ssg70
g1462
sg63
(lp1469
g56
(g65
g58
NtRp1470
(dp1471
g61
(dp1472
g69
I4
ssg70
Nsg63
(lp1473
sbasbasbasbag56
(g72
g58
NtRp1474
(dp1475
g61
(dp1476
sg70
g66
sg63
(lp1477
g56
(g77
g58
NtRp1478
(dp1479
g61
(dp1480
g81
g82
ssg70
g1474
sg63
(lp1481
S'raw_extension'
p1482
asbag56
(g77
g58
NtRp1483
(dp1484
g61
(dp1485
g88
g89
ssg70
g1474
sg63
(lp1486
S':'
asbag56
(g77
g58
NtRp1487
(dp1488
g61
(dp1489
sg70
g1474
sg63
(lp1490
g56
(g57
g58
NtRp1491
(dp1492
g61
(dp1493
g69
I5
ssg70
g1487
sg63
(lp1494
g1314
asbasbasbag56
(g72
g58
NtRp1495
(dp1496
g61
(dp1497
sg70
g66
sg63
(lp1498
g56
(g77
g58
NtRp1499
(dp1500
g61
(dp1501
g81
g82
ssg70
g1495
sg63
(lp1502
S'url'
p1503
asbag56
(g77
g58
NtRp1504
(dp1505
g61
(dp1506
g88
g89
ssg70
g1495
sg63
(lp1507
S':'
asbag56
(g77
g58
NtRp1508
(dp1509
g61
(dp1510
sg70
g1495
sg63
(lp1511
g56
(g57
g58
NtRp1512
(dp1513
g61
(dp1514
g69
I5
ssg70
g1508
sg63
(lp1515
S'/codeAct/ca_controller/quiz.html'
p1516
asbasbasbag56
(g72
g58
NtRp1517
(dp1518
g61
(dp1519
sg70
g66
sg63
(lp1520
g56
(g77
g58
NtRp1521
(dp1522
g61
(dp1523
g81
g82
ssg70
g1517
sg63
(lp1524
S'uuid'
p1525
asbag56
(g77
g58
NtRp1526
(dp1527
g61
(dp1528
g88
g89
ssg70
g1517
sg63
(lp1529
S':'
asbag56
(g77
g58
NtRp1530
(dp1531
g61
(dp1532
sg70
g1517
sg63
(lp1533
g56
(g57
g58
NtRp1534
(dp1535
g61
(dp1536
g69
I5
ssg70
g1530
sg63
(lp1537
S'codeAct/127.0.0.1.2011-07-02.17-10-03.d69a5412-fd9a-47ed-938a-d6cbeec90ab5'
p1538
asbasbasbag56
(g72
g58
NtRp1539
(dp1540
g61
(dp1541
sg70
g66
sg63
(lp1542
g56
(g77
g58
NtRp1543
(dp1544
g61
(dp1545
g81
g82
ssg70
g1539
sg63
(lp1546
S'vars'
p1547
asbag56
(g77
g58
NtRp1548
(dp1549
g61
(dp1550
g88
g89
ssg70
g1539
sg63
(lp1551
S':'
asbag56
(g77
g58
NtRp1552
(dp1553
g61
(dp1554
sg70
g1539
sg63
(lp1555
g56
(g57
g58
NtRp1556
(dp1557
g61
(dp1558
g69
I5
ssg70
g1552
sg63
(lp1559
g56
(g65
g58
NtRp1560
(dp1561
g61
(dp1562
g69
I4
ssg70
Nsg63
(lp1563
g56
(g72
g58
NtRp1564
(dp1565
g61
(dp1566
sg70
g1560
sg63
(lp1567
g56
(g77
g58
NtRp1568
(dp1569
g61
(dp1570
g81
g82
ssg70
g1564
sg63
(lp1571
g1392
asbag56
(g77
g58
NtRp1572
(dp1573
g61
(dp1574
g88
g89
ssg70
g1564
sg63
(lp1575
S':'
asbag56
(g77
g58
NtRp1576
(dp1577
g61
(dp1578
sg70
g1564
sg63
(lp1579
g56
(g57
g58
NtRp1580
(dp1581
g61
(dp1582
g69
I4
ssg70
g1576
sg63
(lp1583
g1405
asbasbasbasbasbasbasbag56
(g72
g58
NtRp1584
(dp1585
g61
(dp1586
sg70
g66
sg63
(lp1587
g56
(g77
g58
NtRp1588
(dp1589
g61
(dp1590
g81
g82
ssg70
g1584
sg63
(lp1591
S'wsgi'
p1592
asbag56
(g77
g58
NtRp1593
(dp1594
g61
(dp1595
g88
g89
ssg70
g1584
sg63
(lp1596
S':'
asbag56
(g77
g58
NtRp1597
(dp1598
g61
(dp1599
sg70
g1584
sg63
(lp1600
g56
(g57
g58
NtRp1601
(dp1602
g61
(dp1603
g69
I5
ssg70
g1597
sg63
(lp1604
g56
(g65
g58
NtRp1605
(dp1606
g61
(dp1607
g69
I4
ssg70
Nsg63
(lp1608
g56
(g72
g58
NtRp1609
(dp1610
g61
(dp1611
sg70
g1605
sg63
(lp1612
g56
(g77
g58
NtRp1613
(dp1614
g61
(dp1615
g81
g82
ssg70
g1609
sg63
(lp1616
S'environ'
p1617
asbag56
(g77
g58
NtRp1618
(dp1619
g61
(dp1620
g88
g89
ssg70
g1609
sg63
(lp1621
S':'
asbag56
(g77
g58
NtRp1622
(dp1623
g61
(dp1624
sg70
g1609
sg63
(lp1625
g56
(g57
g58
NtRp1626
(dp1627
g61
(dp1628
g69
I4
ssg70
g1622
sg63
(lp1629
g56
(g65
g58
NtRp1630
(dp1631
g61
(dp1632
g69
I3
ssg70
Nsg63
(lp1633
g56
(g72
g58
NtRp1634
(dp1635
g61
(dp1636
sg70
g1630
sg63
(lp1637
g56
(g77
g58
NtRp1638
(dp1639
g61
(dp1640
g81
g82
ssg70
g1634
sg63
(lp1641
S'HTTP_ACCEPT'
p1642
asbag56
(g77
g58
NtRp1643
(dp1644
g61
(dp1645
g88
g89
ssg70
g1634
sg63
(lp1646
S':'
asbag56
(g77
g58
NtRp1647
(dp1648
g61
(dp1649
sg70
g1634
sg63
(lp1650
g56
(g57
g58
NtRp1651
(dp1652
g61
(dp1653
g69
I3
ssg70
g1647
sg63
(lp1654
g632
asbasbasbag56
(g72
g58
NtRp1655
(dp1656
g61
(dp1657
sg70
g1630
sg63
(lp1658
g56
(g77
g58
NtRp1659
(dp1660
g61
(dp1661
g81
g82
ssg70
g1655
sg63
(lp1662
S'HTTP_ACCEPT_CHARSET'
p1663
asbag56
(g77
g58
NtRp1664
(dp1665
g61
(dp1666
g88
g89
ssg70
g1655
sg63
(lp1667
S':'
asbag56
(g77
g58
NtRp1668
(dp1669
g61
(dp1670
sg70
g1655
sg63
(lp1671
g56
(g57
g58
NtRp1672
(dp1673
g61
(dp1674
g69
I3
ssg70
g1668
sg63
(lp1675
g654
asbasbasbag56
(g72
g58
NtRp1676
(dp1677
g61
(dp1678
sg70
g1630
sg63
(lp1679
g56
(g77
g58
NtRp1680
(dp1681
g61
(dp1682
g81
g82
ssg70
g1676
sg63
(lp1683
S'HTTP_ACCEPT_ENCODING'
p1684
asbag56
(g77
g58
NtRp1685
(dp1686
g61
(dp1687
g88
g89
ssg70
g1676
sg63
(lp1688
S':'
asbag56
(g77
g58
NtRp1689
(dp1690
g61
(dp1691
sg70
g1676
sg63
(lp1692
g56
(g57
g58
NtRp1693
(dp1694
g61
(dp1695
g69
I3
ssg70
g1689
sg63
(lp1696
g676
asbasbasbag56
(g72
g58
NtRp1697
(dp1698
g61
(dp1699
sg70
g1630
sg63
(lp1700
g56
(g77
g58
NtRp1701
(dp1702
g61
(dp1703
g81
g82
ssg70
g1697
sg63
(lp1704
S'HTTP_ACCEPT_LANGUAGE'
p1705
asbag56
(g77
g58
NtRp1706
(dp1707
g61
(dp1708
g88
g89
ssg70
g1697
sg63
(lp1709
S':'
asbag56
(g77
g58
NtRp1710
(dp1711
g61
(dp1712
sg70
g1697
sg63
(lp1713
g56
(g57
g58
NtRp1714
(dp1715
g61
(dp1716
g69
I3
ssg70
g1710
sg63
(lp1717
g698
asbasbasbag56
(g72
g58
NtRp1718
(dp1719
g61
(dp1720
sg70
g1630
sg63
(lp1721
g56
(g77
g58
NtRp1722
(dp1723
g61
(dp1724
g81
g82
ssg70
g1718
sg63
(lp1725
S'HTTP_CACHE_CONTROL'
p1726
asbag56
(g77
g58
NtRp1727
(dp1728
g61
(dp1729
g88
g89
ssg70
g1718
sg63
(lp1730
S':'
asbag56
(g77
g58
NtRp1731
(dp1732
g61
(dp1733
sg70
g1718
sg63
(lp1734
g56
(g57
g58
NtRp1735
(dp1736
g61
(dp1737
g69
I3
ssg70
g1731
sg63
(lp1738
g720
asbasbasbag56
(g72
g58
NtRp1739
(dp1740
g61
(dp1741
sg70
g1630
sg63
(lp1742
g56
(g77
g58
NtRp1743
(dp1744
g61
(dp1745
g81
g82
ssg70
g1739
sg63
(lp1746
S'HTTP_CONNECTION'
p1747
asbag56
(g77
g58
NtRp1748
(dp1749
g61
(dp1750
g88
g89
ssg70
g1739
sg63
(lp1751
S':'
asbag56
(g77
g58
NtRp1752
(dp1753
g61
(dp1754
sg70
g1739
sg63
(lp1755
g56
(g57
g58
NtRp1756
(dp1757
g61
(dp1758
g69
I3
ssg70
g1752
sg63
(lp1759
g742
asbasbasbag56
(g72
g58
NtRp1760
(dp1761
g61
(dp1762
sg70
g1630
sg63
(lp1763
g56
(g77
g58
NtRp1764
(dp1765
g61
(dp1766
g81
g82
ssg70
g1760
sg63
(lp1767
S'HTTP_COOKIE'
p1768
asbag56
(g77
g58
NtRp1769
(dp1770
g61
(dp1771
g88
g89
ssg70
g1760
sg63
(lp1772
S':'
asbag56
(g77
g58
NtRp1773
(dp1774
g61
(dp1775
sg70
g1760
sg63
(lp1776
g56
(g57
g58
NtRp1777
(dp1778
g61
(dp1779
g69
I3
ssg70
g1773
sg63
(lp1780
g764
asbasbasbag56
(g72
g58
NtRp1781
(dp1782
g61
(dp1783
sg70
g1630
sg63
(lp1784
g56
(g77
g58
NtRp1785
(dp1786
g61
(dp1787
g81
g82
ssg70
g1781
sg63
(lp1788
S'HTTP_HOST'
p1789
asbag56
(g77
g58
NtRp1790
(dp1791
g61
(dp1792
g88
g89
ssg70
g1781
sg63
(lp1793
S':'
asbag56
(g77
g58
NtRp1794
(dp1795
g61
(dp1796
sg70
g1781
sg63
(lp1797
g56
(g57
g58
NtRp1798
(dp1799
g61
(dp1800
g69
I3
ssg70
g1794
sg63
(lp1801
g786
asbasbasbag56
(g72
g58
NtRp1802
(dp1803
g61
(dp1804
sg70
g1630
sg63
(lp1805
g56
(g77
g58
NtRp1806
(dp1807
g61
(dp1808
g81
g82
ssg70
g1802
sg63
(lp1809
S'HTTP_USER_AGENT'
p1810
asbag56
(g77
g58
NtRp1811
(dp1812
g61
(dp1813
g88
g89
ssg70
g1802
sg63
(lp1814
S':'
asbag56
(g77
g58
NtRp1815
(dp1816
g61
(dp1817
sg70
g1802
sg63
(lp1818
g56
(g57
g58
NtRp1819
(dp1820
g61
(dp1821
g69
I3
ssg70
g1815
sg63
(lp1822
g808
asbasbasbag56
(g72
g58
NtRp1823
(dp1824
g61
(dp1825
sg70
g1630
sg63
(lp1826
g56
(g77
g58
NtRp1827
(dp1828
g61
(dp1829
g81
g82
ssg70
g1823
sg63
(lp1830
S'PATH_INFO'
p1831
asbag56
(g77
g58
NtRp1832
(dp1833
g61
(dp1834
g88
g89
ssg70
g1823
sg63
(lp1835
S':'
asbag56
(g77
g58
NtRp1836
(dp1837
g61
(dp1838
sg70
g1823
sg63
(lp1839
g56
(g57
g58
NtRp1840
(dp1841
g61
(dp1842
g69
I3
ssg70
g1836
sg63
(lp1843
g830
asbasbasbag56
(g72
g58
NtRp1844
(dp1845
g61
(dp1846
sg70
g1630
sg63
(lp1847
g56
(g77
g58
NtRp1848
(dp1849
g61
(dp1850
g81
g82
ssg70
g1844
sg63
(lp1851
S'QUERY_STRING'
p1852
asbag56
(g77
g58
NtRp1853
(dp1854
g61
(dp1855
g88
g89
ssg70
g1844
sg63
(lp1856
S':'
asbag56
(g77
g58
NtRp1857
(dp1858
g61
(dp1859
sg70
g1844
sg63
(lp1860
g56
(g57
g58
NtRp1861
(dp1862
g61
(dp1863
g69
I3
ssg70
g1857
sg63
(lp1864
g852
asbasbasbag56
(g72
g58
NtRp1865
(dp1866
g61
(dp1867
sg70
g1630
sg63
(lp1868
g56
(g77
g58
NtRp1869
(dp1870
g61
(dp1871
g81
g82
ssg70
g1865
sg63
(lp1872
S'REMOTE_ADDR'
p1873
asbag56
(g77
g58
NtRp1874
(dp1875
g61
(dp1876
g88
g89
ssg70
g1865
sg63
(lp1877
S':'
asbag56
(g77
g58
NtRp1878
(dp1879
g61
(dp1880
sg70
g1865
sg63
(lp1881
g56
(g57
g58
NtRp1882
(dp1883
g61
(dp1884
g69
I3
ssg70
g1878
sg63
(lp1885
g189
asbasbasbag56
(g72
g58
NtRp1886
(dp1887
g61
(dp1888
sg70
g1630
sg63
(lp1889
g56
(g77
g58
NtRp1890
(dp1891
g61
(dp1892
g81
g82
ssg70
g1886
sg63
(lp1893
S'REMOTE_PORT'
p1894
asbag56
(g77
g58
NtRp1895
(dp1896
g61
(dp1897
g88
g89
ssg70
g1886
sg63
(lp1898
S':'
asbag56
(g77
g58
NtRp1899
(dp1900
g61
(dp1901
sg70
g1886
sg63
(lp1902
g56
(g57
g58
NtRp1903
(dp1904
g61
(dp1905
g69
I3
ssg70
g1899
sg63
(lp1906
g895
asbasbasbag56
(g72
g58
NtRp1907
(dp1908
g61
(dp1909
sg70
g1630
sg63
(lp1910
g56
(g77
g58
NtRp1911
(dp1912
g61
(dp1913
g81
g82
ssg70
g1907
sg63
(lp1914
S'REQUEST_METHOD'
p1915
asbag56
(g77
g58
NtRp1916
(dp1917
g61
(dp1918
g88
g89
ssg70
g1907
sg63
(lp1919
S':'
asbag56
(g77
g58
NtRp1920
(dp1921
g61
(dp1922
sg70
g1907
sg63
(lp1923
g56
(g57
g58
NtRp1924
(dp1925
g61
(dp1926
g69
I3
ssg70
g1920
sg63
(lp1927
g917
asbasbasbag56
(g72
g58
NtRp1928
(dp1929
g61
(dp1930
sg70
g1630
sg63
(lp1931
g56
(g77
g58
NtRp1932
(dp1933
g61
(dp1934
g81
g82
ssg70
g1928
sg63
(lp1935
S'SCRIPT_NAME'
p1936
asbag56
(g77
g58
NtRp1937
(dp1938
g61
(dp1939
g88
g89
ssg70
g1928
sg63
(lp1940
S':'
asbag56
(g77
g58
NtRp1941
(dp1942
g61
(dp1943
sg70
g1928
sg63
(lp1944
g56
(g57
g58
NtRp1945
(dp1946
g61
(dp1947
g69
I3
ssg70
g1941
sg63
(lp1948
S''
asbasbasbag56
(g72
g58
NtRp1949
(dp1950
g61
(dp1951
sg70
g1630
sg63
(lp1952
g56
(g77
g58
NtRp1953
(dp1954
g61
(dp1955
g81
g82
ssg70
g1949
sg63
(lp1956
S'SERVER_NAME'
p1957
asbag56
(g77
g58
NtRp1958
(dp1959
g61
(dp1960
g88
g89
ssg70
g1949
sg63
(lp1961
S':'
asbag56
(g77
g58
NtRp1962
(dp1963
g61
(dp1964
sg70
g1949
sg63
(lp1965
g56
(g57
g58
NtRp1966
(dp1967
g61
(dp1968
g69
I3
ssg70
g1962
sg63
(lp1969
g960
asbasbasbag56
(g72
g58
NtRp1970
(dp1971
g61
(dp1972
sg70
g1630
sg63
(lp1973
g56
(g77
g58
NtRp1974
(dp1975
g61
(dp1976
g81
g82
ssg70
g1970
sg63
(lp1977
S'SERVER_PORT'
p1978
asbag56
(g77
g58
NtRp1979
(dp1980
g61
(dp1981
g88
g89
ssg70
g1970
sg63
(lp1982
S':'
asbag56
(g77
g58
NtRp1983
(dp1984
g61
(dp1985
sg70
g1970
sg63
(lp1986
g56
(g57
g58
NtRp1987
(dp1988
g61
(dp1989
g69
I3
ssg70
g1983
sg63
(lp1990
g982
asbasbasbag56
(g72
g58
NtRp1991
(dp1992
g61
(dp1993
sg70
g1630
sg63
(lp1994
g56
(g77
g58
NtRp1995
(dp1996
g61
(dp1997
g81
g82
ssg70
g1991
sg63
(lp1998
S'SERVER_PROTOCOL'
p1999
asbag56
(g77
g58
NtRp2000
(dp2001
g61
(dp2002
g88
g89
ssg70
g1991
sg63
(lp2003
S':'
asbag56
(g77
g58
NtRp2004
(dp2005
g61
(dp2006
sg70
g1991
sg63
(lp2007
g56
(g57
g58
NtRp2008
(dp2009
g61
(dp2010
g69
I3
ssg70
g2004
sg63
(lp2011
g1004
asbasbasbag56
(g72
g58
NtRp2012
(dp2013
g61
(dp2014
sg70
g1630
sg63
(lp2015
g56
(g77
g58
NtRp2016
(dp2017
g61
(dp2018
g81
g82
ssg70
g2012
sg63
(lp2019
S'SERVER_SOFTWARE'
p2020
asbag56
(g77
g58
NtRp2021
(dp2022
g61
(dp2023
g88
g89
ssg70
g2012
sg63
(lp2024
S':'
asbag56
(g77
g58
NtRp2025
(dp2026
g61
(dp2027
sg70
g2012
sg63
(lp2028
g56
(g57
g58
NtRp2029
(dp2030
g61
(dp2031
g69
I3
ssg70
g2025
sg63
(lp2032
g1026
asbasbasbag56
(g72
g58
NtRp2033
(dp2034
g61
(dp2035
sg70
g1630
sg63
(lp2036
g56
(g77
g58
NtRp2037
(dp2038
g61
(dp2039
g81
g82
ssg70
g2033
sg63
(lp2040
S'wsgi.errors'
p2041
asbag56
(g77
g58
NtRp2042
(dp2043
g61
(dp2044
g88
g89
ssg70
g2033
sg63
(lp2045
S':'
asbag56
(g77
g58
NtRp2046
(dp2047
g61
(dp2048
sg70
g2033
sg63
(lp2049
g56
(g57
g58
NtRp2050
(dp2051
g61
(dp2052
g69
I3
ssg70
g2046
sg63
(lp2053
S"<open file '<stderr>', mode 'w' at 0xb77d70d0>"
p2054
asbasbasbag56
(g72
g58
NtRp2055
(dp2056
g61
(dp2057
sg70
g1630
sg63
(lp2058
g56
(g77
g58
NtRp2059
(dp2060
g61
(dp2061
g81
g82
ssg70
g2055
sg63
(lp2062
S'wsgi.file_wrapper'
p2063
asbag56
(g77
g58
NtRp2064
(dp2065
g61
(dp2066
g88
g89
ssg70
g2055
sg63
(lp2067
S':'
asbag56
(g77
g58
NtRp2068
(dp2069
g61
(dp2070
sg70
g2055
sg63
(lp2071
g56
(g57
g58
NtRp2072
(dp2073
g61
(dp2074
g69
I3
ssg70
g2068
sg63
(lp2075
S'<class gluon.rocket.FileWrapper at 0x8b3e44c>'
p2076
asbasbasbag56
(g72
g58
NtRp2077
(dp2078
g61
(dp2079
sg70
g1630
sg63
(lp2080
g56
(g77
g58
NtRp2081
(dp2082
g61
(dp2083
g81
g82
ssg70
g2077
sg63
(lp2084
S'wsgi.input'
p2085
asbag56
(g77
g58
NtRp2086
(dp2087
g61
(dp2088
g88
g89
ssg70
g2077
sg63
(lp2089
S':'
asbag56
(g77
g58
NtRp2090
(dp2091
g61
(dp2092
sg70
g2077
sg63
(lp2093
g56
(g57
g58
NtRp2094
(dp2095
g61
(dp2096
g69
I3
ssg70
g2090
sg63
(lp2097
S'<cStringIO.StringO object at 0x8c5a9a0>'
p2098
asbasbasbag56
(g72
g58
NtRp2099
(dp2100
g61
(dp2101
sg70
g1630
sg63
(lp2102
g56
(g77
g58
NtRp2103
(dp2104
g61
(dp2105
g81
g82
ssg70
g2099
sg63
(lp2106
S'wsgi.multiprocess'
p2107
asbag56
(g77
g58
NtRp2108
(dp2109
g61
(dp2110
g88
g89
ssg70
g2099
sg63
(lp2111
S':'
asbag56
(g77
g58
NtRp2112
(dp2113
g61
(dp2114
sg70
g2099
sg63
(lp2115
g56
(g57
g58
NtRp2116
(dp2117
g61
(dp2118
g69
I3
ssg70
g2112
sg63
(lp2119
g99
asbasbasbag56
(g72
g58
NtRp2120
(dp2121
g61
(dp2122
sg70
g1630
sg63
(lp2123
g56
(g77
g58
NtRp2124
(dp2125
g61
(dp2126
g81
g82
ssg70
g2120
sg63
(lp2127
S'wsgi.multithread'
p2128
asbag56
(g77
g58
NtRp2129
(dp2130
g61
(dp2131
g88
g89
ssg70
g2120
sg63
(lp2132
S':'
asbag56
(g77
g58
NtRp2133
(dp2134
g61
(dp2135
sg70
g2120
sg63
(lp2136
g56
(g57
g58
NtRp2137
(dp2138
g61
(dp2139
g69
I3
ssg70
g2133
sg63
(lp2140
g1200
asbasbasbag56
(g72
g58
NtRp2141
(dp2142
g61
(dp2143
sg70
g1630
sg63
(lp2144
g56
(g77
g58
NtRp2145
(dp2146
g61
(dp2147
g81
g82
ssg70
g2141
sg63
(lp2148
S'wsgi.run_once'
p2149
asbag56
(g77
g58
NtRp2150
(dp2151
g61
(dp2152
g88
g89
ssg70
g2141
sg63
(lp2153
S':'
asbag56
(g77
g58
NtRp2154
(dp2155
g61
(dp2156
sg70
g2141
sg63
(lp2157
g56
(g57
g58
NtRp2158
(dp2159
g61
(dp2160
g69
I3
ssg70
g2154
sg63
(lp2161
g99
asbasbasbag56
(g72
g58
NtRp2162
(dp2163
g61
(dp2164
sg70
g1630
sg63
(lp2165
g56
(g77
g58
NtRp2166
(dp2167
g61
(dp2168
g81
g82
ssg70
g2162
sg63
(lp2169
S'wsgi.url_scheme'
p2170
asbag56
(g77
g58
NtRp2171
(dp2172
g61
(dp2173
g88
g89
ssg70
g2162
sg63
(lp2174
S':'
asbag56
(g77
g58
NtRp2175
(dp2176
g61
(dp2177
sg70
g2162
sg63
(lp2178
g56
(g57
g58
NtRp2179
(dp2180
g61
(dp2181
g69
I3
ssg70
g2175
sg63
(lp2182
g1243
asbasbasbag56
(g72
g58
NtRp2183
(dp2184
g61
(dp2185
sg70
g1630
sg63
(lp2186
g56
(g77
g58
NtRp2187
(dp2188
g61
(dp2189
g81
g82
ssg70
g2183
sg63
(lp2190
S'wsgi.version'
p2191
asbag56
(g77
g58
NtRp2192
(dp2193
g61
(dp2194
g88
g89
ssg70
g2183
sg63
(lp2195
S':'
asbag56
(g77
g58
NtRp2196
(dp2197
g61
(dp2198
sg70
g2183
sg63
(lp2199
g56
(g57
g58
NtRp2200
(dp2201
g61
(dp2202
g69
I3
ssg70
g2196
sg63
(lp2203
S'1'
asbasbasbasbasbasbasbasbasbasbasbasbasbsS'frames'
p2204
(lp2205
(dp2206
S'file'
p2207
S'/home/jacobbl/SENG265/pe2/codeAct_1.01/web2py/gluon/restricted.py'
p2208
sS'dump'
p2209
(dp2210
S'environment'
p2211
S"{'A': <class 'gluon.html.A'>, 'B': <class 'gluon.html.B'>, 'BEAUTIFY': <class 'gluon.html.BEAUTIFY'>, 'BODY': <class 'gluon.html.BODY'>, 'BR': <class 'gluon.html.BR'>, 'CENTER': <class 'gluon.html.CENTER'>, 'CLEANUP': <class 'gluon.validators.CLEANUP'>, 'CODE': <class 'gluon.html.CODE'>, 'CRYPT': <class 'gluon.validators.CRYPT'>, 'DAL': <class 'gluon.dal.DAL'>, ...}"
p2212
sS'ccode'
p2213
S'<code object <module> at 0x8c81800, file "/home/...ns/codeAct/controllers/ca_controller.py", line 1>'
p2214
ssS'lnum'
p2215
I181
sS'lines'
p2216
(dp2217
I176
S'    try:'
p2218
sI177
S'        if type(code) == types.CodeType:'
p2219
sI178
S'            ccode = code'
p2220
sI179
S'        else:'
p2221
sI180
S'            ccode = compile2(code,layer)'
p2222
sI181
S'        exec ccode in environment'
p2223
sI182
S'    except HTTP:'
p2224
sI183
S'        raise'
p2225
sI184
S'    except Exception:'
p2226
sI185
S'        # XXX Show exception in Wing IDE if running in debugger'
p2227
ssS'call'
p2228
S"(code='import sys\\nimport time\\nimport os\\n\\nimport ca_quiz...turn code\\n\\nresponse._vars=response._caller(quiz)\\n', environment={'A': <class 'gluon.html.A'>, 'B': <class 'gluon.html.B'>, 'BEAUTIFY': <class 'gluon.html.BEAUTIFY'>, 'BODY': <class 'gluon.html.BODY'>, 'BR': <class 'gluon.html.BR'>, 'CENTER': <class 'gluon.html.CENTER'>, 'CLEANUP': <class 'gluon.validators.CLEANUP'>, 'CODE': <class 'gluon.html.CODE'>, 'CRYPT': <class 'gluon.validators.CRYPT'>, 'DAL': <class 'gluon.dal.DAL'>, ...}, layer='/home/jacobbl/SENG265/pe2/codeAct_1.01/web2py/applications/codeAct/controllers/ca_controller.py')"
p2229
sS'func'
p2230
S'restricted'
p2231
sa(dp2232
g2207
S'/home/jacobbl/SENG265/pe2/codeAct_1.01/web2py/applications/codeAct/controllers/ca_controller.py'
p2233
sg2209
(dp2234
sg2215
I85
sg2216
(dp2235
I74
S"\t session['quiz'].practice_mode,session['login'],"
p2236
sI75
S"\t session['answer_list'][question_number-1],"
p2237
sI76
S"\t request.vars,session['question_timer'])"
p2238
sI77
S"\tcode = utility.add_submit_label(code,session['quiz'].practice_mode)"
p2239
sI78
S'\tcode = utility.disable_navi_buttons(code,question_number,'
p2240
sI79
S"\t session['quiz'])"
p2241
sI80
S''
sI81
S'\t# update question timer'
p2242
sI82
S"\tsession['question_timer'] = int(time.time())"
p2243
sI83
S'\treturn code'
p2244
ssg2228
S'()'
p2245
sg2230
S'<module>'
p2246
sa(dp2247
g2207
S'/home/jacobbl/SENG265/pe2/codeAct_1.01/web2py/gluon/globals.py'
p2248
sg2209
(dp2249
S'self'
p2250
S'undefined'
p2251
sS'f'
S'<function quiz>'
p2252
ssg2215
I133
sg2216
(dp2253
I128
S"        self.flash = ''           # used by the default view layout"
p2254
sI129
S'        self.meta = Storage()     # used by web2py_ajax.html'
p2255
sI130
S'        self.menu = []            # used by the default view layout'
p2256
sI131
S'        self.files = []           # used by web2py_ajax.html'
p2257
sI132
S'        self._vars = None'
p2258
sI133
S'        self._caller = lambda f: f()'
p2259
sI134
S'        self._view_environment = None'
p2260
sI135
S'        self._custom_commit = None'
p2261
sI136
S'        self._custom_rollback = None'
p2262
sI137
S''
ssg2228
S'(f=<function quiz>)'
p2263
sg2230
S'<lambda>'
p2264
sa(dp2265
g2207
S'/home/jacobbl/SENG265/pe2/codeAct_1.01/web2py/applications/codeAct/controllers/ca_controller.py'
p2266
sg2209
(dp2267
S'].get_question'
p2268
S'None'
p2269
sS'global session'
p2270
S"<Storage {'login': '', 'question_timer': 1309651...], 'quiz': <ca_quiz.quiz instance at 0x8c987ac>}>"
p2271
sS'question'
p2272
g2251
sS'question_number'
p2273
S'1'
ssg2215
I67
sg2216
(dp2274
I64
S''
sI65
S'\t# generate HTML code'
p2275
sI66
S'\tquestion_number = utility.get_question_number(request.vars)'
p2276
sI67
S"\tquestion = session['quiz'].get_question(question_number-1)"
p2277
sI68
S"\tutility.update_answer(question,question_number,session['answer_list'],"
p2278
sI69
S'\t request.vars)'
p2279
sI70
S"\tcode = question_HTML.generate_html(session['quiz'],question_number,"
p2280
sI71
S"\t session['answer_list'][question_number-1])"
p2281
sI62
S"\t\tlog_create.create_log(session['quiz'].log_dir,"
p2282
sI63
S"\t\t session['login'])"
p2283
ssg2228
S'()'
p2284
sg2230
S'quiz'
p2285
sa(dp2286
g2207
S'/home/jacobbl/SENG265/pe2/codeAct_1.01/web2py/applications/codeAct/ca_quiz.py'
p2287
sg2209
(dp2288
S'self.question_list'
p2289
S'[]'
p2290
sS'self'
p2291
S'<ca_quiz.quiz instance>'
p2292
sS'index'
p2293
S'0'
ssg2215
I63
sg2216
(dp2294
I64
S'\t\t# if index is out of range, should we return the first question'
p2295
sI65
S'\t\t# instead of throw an exception'
p2296
sI56
S"\t'''"
p2297
sI57
S'\tPurpose'
p2298
sI58
S'\t\treturn the ith question'
p2299
sI59
S'\tPrecondition'
p2300
sI60
S'\t\tindex > 0 and index < len(self.question_list)'
p2301
sI61
S"\t'''"
p2302
sI62
S'\tdef get_question(self,index):'
p2303
sI63
S'\t\treturn self.question_list[index]'
p2304
ssg2228
S'(self=<ca_quiz.quiz instance>, index=0)'
p2305
sg2230
S'get_question'
p2306
sasS'pyver'
p2307
S'Python 2.6.5: /usr/bin/python'
p2308
sS'session'
p2309
g56
(g57
g58
NtRp2310
(dp2311
g61
(dp2312
sg63
(lp2313
g56
(g65
g58
NtRp2314
(dp2315
g61
(dp2316
g69
I5
ssg70
Nsg63
(lp2317
g56
(g72
g58
NtRp2318
(dp2319
g61
(dp2320
sg70
g2314
sg63
(lp2321
g56
(g77
g58
NtRp2322
(dp2323
g61
(dp2324
g81
g82
ssg70
g2318
sg63
(lp2325
S'answer_list'
p2326
asbag56
(g77
g58
NtRp2327
(dp2328
g61
(dp2329
g88
g89
ssg70
g2318
sg63
(lp2330
S':'
asbag56
(g77
g58
NtRp2331
(dp2332
g61
(dp2333
sg70
g2318
sg63
(lp2334
g56
(g57
g58
NtRp2335
(dp2336
g61
(dp2337
g69
I5
ssg70
g2331
sg63
(lp2338
g56
(g65
g58
NtRp2339
(dp2340
g61
(dp2341
g69
I4
ssg70
Nsg63
(lp2342
sbasbasbasbag56
(g72
g58
NtRp2343
(dp2344
g61
(dp2345
sg70
g2314
sg63
(lp2346
g56
(g77
g58
NtRp2347
(dp2348
g61
(dp2349
g81
g82
ssg70
g2343
sg63
(lp2350
S'login'
p2351
asbag56
(g77
g58
NtRp2352
(dp2353
g61
(dp2354
g88
g89
ssg70
g2343
sg63
(lp2355
S':'
asbag56
(g77
g58
NtRp2356
(dp2357
g61
(dp2358
sg70
g2343
sg63
(lp2359
g56
(g57
g58
NtRp2360
(dp2361
g61
(dp2362
g69
I5
ssg70
g2356
sg63
(lp2363
S''
asbasbasbag56
(g72
g58
NtRp2364
(dp2365
g61
(dp2366
sg70
g2314
sg63
(lp2367
g56
(g77
g58
NtRp2368
(dp2369
g61
(dp2370
g81
g82
ssg70
g2364
sg63
(lp2371
S'question_timer'
p2372
asbag56
(g77
g58
NtRp2373
(dp2374
g61
(dp2375
g88
g89
ssg70
g2364
sg63
(lp2376
S':'
asbag56
(g77
g58
NtRp2377
(dp2378
g61
(dp2379
sg70
g2364
sg63
(lp2380
g56
(g57
g58
NtRp2381
(dp2382
g61
(dp2383
g69
I5
ssg70
g2377
sg63
(lp2384
S'1309651803'
p2385
asbasbasbag56
(g72
g58
NtRp2386
(dp2387
g61
(dp2388
sg70
g2314
sg63
(lp2389
g56
(g77
g58
NtRp2390
(dp2391
g61
(dp2392
g81
g82
ssg70
g2386
sg63
(lp2393
S'quiz'
p2394
asbag56
(g77
g58
NtRp2395
(dp2396
g61
(dp2397
g88
g89
ssg70
g2386
sg63
(lp2398
S':'
asbag56
(g77
g58
NtRp2399
(dp2400
g61
(dp2401
sg70
g2386
sg63
(lp2402
g56
(g57
g58
NtRp2403
(dp2404
g61
(dp2405
g69
I5
ssg70
g2399
sg63
(lp2406
S'<ca_quiz.quiz instance at 0x8c987ac>'
p2407
asbasbasbasbasbsS'etype'
p2408
S"<type 'exceptions.IndexError'>"
p2409
sS'date'
p2410
S'Sat Jul  2 17:10:03 2011'
p2411
sS'response'
p2412
g56
(g57
g58
NtRp2413
(dp2414
g61
(dp2415
sg63
(lp2416
g56
(g65
g58
NtRp2417
(dp2418
g61
(dp2419
g69
I5
ssg70
Nsg63
(lp2420
g56
(g72
g58
NtRp2421
(dp2422
g61
(dp2423
sg70
g2417
sg63
(lp2424
g56
(g77
g58
NtRp2425
(dp2426
g61
(dp2427
g81
g82
ssg70
g2421
sg63
(lp2428
g154
asbag56
(g77
g58
NtRp2429
(dp2430
g61
(dp2431
g88
g89
ssg70
g2421
sg63
(lp2432
S':'
asbag56
(g77
g58
NtRp2433
(dp2434
g61
(dp2435
sg70
g2421
sg63
(lp2436
g56
(g57
g58
NtRp2437
(dp2438
g61
(dp2439
g69
I5
ssg70
g2433
sg63
(lp2440
S'<cStringIO.StringO object at 0x8c5a840>'
p2441
asbasbasbag56
(g72
g58
NtRp2442
(dp2443
g61
(dp2444
sg70
g2417
sg63
(lp2445
g56
(g77
g58
NtRp2446
(dp2447
g61
(dp2448
g81
g82
ssg70
g2442
sg63
(lp2449
g220
asbag56
(g77
g58
NtRp2450
(dp2451
g61
(dp2452
g88
g89
ssg70
g2442
sg63
(lp2453
S':'
asbag56
(g77
g58
NtRp2454
(dp2455
g61
(dp2456
sg70
g2442
sg63
(lp2457
g56
(g57
g58
NtRp2458
(dp2459
g61
(dp2460
g69
I5
ssg70
g2454
sg63
(lp2461
g56
(g65
g58
NtRp2462
(dp2463
g61
(dp2464
g69
I4
ssg70
Nsg63
(lp2465
g56
(g72
g58
NtRp2466
(dp2467
g61
(dp2468
sg70
g2462
sg63
(lp2469
g56
(g77
g58
NtRp2470
(dp2471
g61
(dp2472
g81
g82
ssg70
g2466
sg63
(lp2473
S'session_id_codeact'
p2474
asbag56
(g77
g58
NtRp2475
(dp2476
g61
(dp2477
g88
g89
ssg70
g2466
sg63
(lp2478
S':'
asbag56
(g77
g58
NtRp2479
(dp2480
g61
(dp2481
sg70
g2466
sg63
(lp2482
g56
(g57
g58
NtRp2483
(dp2484
g61
(dp2485
g69
I4
ssg70
g2479
sg63
(lp2486
g56
(g65
g58
NtRp2487
(dp2488
g61
(dp2489
g69
I3
ssg70
Nsg63
(lp2490
g56
(g72
g58
NtRp2491
(dp2492
g61
(dp2493
sg70
g2487
sg63
(lp2494
g56
(g77
g58
NtRp2495
(dp2496
g61
(dp2497
g81
g82
ssg70
g2491
sg63
(lp2498
g270
asbag56
(g77
g58
NtRp2499
(dp2500
g61
(dp2501
g88
g89
ssg70
g2491
sg63
(lp2502
S':'
asbag56
(g77
g58
NtRp2503
(dp2504
g61
(dp2505
sg70
g2491
sg63
(lp2506
g56
(g57
g58
NtRp2507
(dp2508
g61
(dp2509
g69
I3
ssg70
g2503
sg63
(lp2510
S''
asbasbasbag56
(g72
g58
NtRp2511
(dp2512
g61
(dp2513
sg70
g2487
sg63
(lp2514
g56
(g77
g58
NtRp2515
(dp2516
g61
(dp2517
g81
g82
ssg70
g2511
sg63
(lp2518
g291
asbag56
(g77
g58
NtRp2519
(dp2520
g61
(dp2521
g88
g89
ssg70
g2511
sg63
(lp2522
S':'
asbag56
(g77
g58
NtRp2523
(dp2524
g61
(dp2525
sg70
g2511
sg63
(lp2526
g56
(g57
g58
NtRp2527
(dp2528
g61
(dp2529
g69
I3
ssg70
g2523
sg63
(lp2530
S''
asbasbasbag56
(g72
g58
NtRp2531
(dp2532
g61
(dp2533
sg70
g2487
sg63
(lp2534
g56
(g77
g58
NtRp2535
(dp2536
g61
(dp2537
g81
g82
ssg70
g2531
sg63
(lp2538
g312
asbag56
(g77
g58
NtRp2539
(dp2540
g61
(dp2541
g88
g89
ssg70
g2531
sg63
(lp2542
S':'
asbag56
(g77
g58
NtRp2543
(dp2544
g61
(dp2545
sg70
g2531
sg63
(lp2546
g56
(g57
g58
NtRp2547
(dp2548
g61
(dp2549
g69
I3
ssg70
g2543
sg63
(lp2550
S''
asbasbasbag56
(g72
g58
NtRp2551
(dp2552
g61
(dp2553
sg70
g2487
sg63
(lp2554
g56
(g77
g58
NtRp2555
(dp2556
g61
(dp2557
g81
g82
ssg70
g2551
sg63
(lp2558
g333
asbag56
(g77
g58
NtRp2559
(dp2560
g61
(dp2561
g88
g89
ssg70
g2551
sg63
(lp2562
S':'
asbag56
(g77
g58
NtRp2563
(dp2564
g61
(dp2565
sg70
g2551
sg63
(lp2566
g56
(g57
g58
NtRp2567
(dp2568
g61
(dp2569
g69
I3
ssg70
g2563
sg63
(lp2570
S''
asbasbasbag56
(g72
g58
NtRp2571
(dp2572
g61
(dp2573
sg70
g2487
sg63
(lp2574
g56
(g77
g58
NtRp2575
(dp2576
g61
(dp2577
g81
g82
ssg70
g2571
sg63
(lp2578
g354
asbag56
(g77
g58
NtRp2579
(dp2580
g61
(dp2581
g88
g89
ssg70
g2571
sg63
(lp2582
S':'
asbag56
(g77
g58
NtRp2583
(dp2584
g61
(dp2585
sg70
g2571
sg63
(lp2586
g56
(g57
g58
NtRp2587
(dp2588
g61
(dp2589
g69
I3
ssg70
g2583
sg63
(lp2590
S''
asbasbasbag56
(g72
g58
NtRp2591
(dp2592
g61
(dp2593
sg70
g2487
sg63
(lp2594
g56
(g77
g58
NtRp2595
(dp2596
g61
(dp2597
g81
g82
ssg70
g2591
sg63
(lp2598
g375
asbag56
(g77
g58
NtRp2599
(dp2600
g61
(dp2601
g88
g89
ssg70
g2591
sg63
(lp2602
S':'
asbag56
(g77
g58
NtRp2603
(dp2604
g61
(dp2605
sg70
g2591
sg63
(lp2606
g56
(g57
g58
NtRp2607
(dp2608
g61
(dp2609
g69
I3
ssg70
g2603
sg63
(lp2610
S'/'
asbasbasbag56
(g72
g58
NtRp2611
(dp2612
g61
(dp2613
sg70
g2487
sg63
(lp2614
g56
(g77
g58
NtRp2615
(dp2616
g61
(dp2617
g81
g82
ssg70
g2611
sg63
(lp2618
g396
asbag56
(g77
g58
NtRp2619
(dp2620
g61
(dp2621
g88
g89
ssg70
g2611
sg63
(lp2622
S':'
asbag56
(g77
g58
NtRp2623
(dp2624
g61
(dp2625
sg70
g2611
sg63
(lp2626
g56
(g57
g58
NtRp2627
(dp2628
g61
(dp2629
g69
I3
ssg70
g2623
sg63
(lp2630
S''
asbasbasbag56
(g72
g58
NtRp2631
(dp2632
g61
(dp2633
sg70
g2487
sg63
(lp2634
g56
(g77
g58
NtRp2635
(dp2636
g61
(dp2637
g81
g82
ssg70
g2631
sg63
(lp2638
g417
asbag56
(g77
g58
NtRp2639
(dp2640
g61
(dp2641
g88
g89
ssg70
g2631
sg63
(lp2642
S':'
asbag56
(g77
g58
NtRp2643
(dp2644
g61
(dp2645
sg70
g2631
sg63
(lp2646
g56
(g57
g58
NtRp2647
(dp2648
g61
(dp2649
g69
I3
ssg70
g2643
sg63
(lp2650
S''
asbasbasbasbasbasbasbasbasbasbasbag56
(g72
g58
NtRp2651
(dp2652
g61
(dp2653
sg70
g2417
sg63
(lp2654
g56
(g77
g58
NtRp2655
(dp2656
g61
(dp2657
g81
g82
ssg70
g2651
sg63
(lp2658
S'files'
p2659
asbag56
(g77
g58
NtRp2660
(dp2661
g61
(dp2662
g88
g89
ssg70
g2651
sg63
(lp2663
S':'
asbag56
(g77
g58
NtRp2664
(dp2665
g61
(dp2666
sg70
g2651
sg63
(lp2667
g56
(g57
g58
NtRp2668
(dp2669
g61
(dp2670
g69
I5
ssg70
g2664
sg63
(lp2671
g56
(g65
g58
NtRp2672
(dp2673
g61
(dp2674
g69
I4
ssg70
Nsg63
(lp2675
sbasbasbasbag56
(g72
g58
NtRp2676
(dp2677
g61
(dp2678
sg70
g2417
sg63
(lp2679
g56
(g77
g58
NtRp2680
(dp2681
g61
(dp2682
g81
g82
ssg70
g2676
sg63
(lp2683
S'flash'
p2684
asbag56
(g77
g58
NtRp2685
(dp2686
g61
(dp2687
g88
g89
ssg70
g2676
sg63
(lp2688
S':'
asbag56
(g77
g58
NtRp2689
(dp2690
g61
(dp2691
sg70
g2676
sg63
(lp2692
g56
(g57
g58
NtRp2693
(dp2694
g61
(dp2695
g69
I5
ssg70
g2689
sg63
(lp2696
S''
asbasbasbag56
(g72
g58
NtRp2697
(dp2698
g61
(dp2699
sg70
g2417
sg63
(lp2700
g56
(g77
g58
NtRp2701
(dp2702
g61
(dp2703
g81
g82
ssg70
g2697
sg63
(lp2704
S'headers'
p2705
asbag56
(g77
g58
NtRp2706
(dp2707
g61
(dp2708
g88
g89
ssg70
g2697
sg63
(lp2709
S':'
asbag56
(g77
g58
NtRp2710
(dp2711
g61
(dp2712
sg70
g2697
sg63
(lp2713
g56
(g57
g58
NtRp2714
(dp2715
g61
(dp2716
g69
I5
ssg70
g2710
sg63
(lp2717
g56
(g65
g58
NtRp2718
(dp2719
g61
(dp2720
g69
I4
ssg70
Nsg63
(lp2721
g56
(g72
g58
NtRp2722
(dp2723
g61
(dp2724
sg70
g2718
sg63
(lp2725
g56
(g77
g58
NtRp2726
(dp2727
g61
(dp2728
g81
g82
ssg70
g2722
sg63
(lp2729
S'Cache-Control'
p2730
asbag56
(g77
g58
NtRp2731
(dp2732
g61
(dp2733
g88
g89
ssg70
g2722
sg63
(lp2734
S':'
asbag56
(g77
g58
NtRp2735
(dp2736
g61
(dp2737
sg70
g2722
sg63
(lp2738
g56
(g57
g58
NtRp2739
(dp2740
g61
(dp2741
g69
I4
ssg70
g2735
sg63
(lp2742
S'no-store, no-cache, must-revalidate, post-check=0, pre-check=0'
p2743
asbasbasbag56
(g72
g58
NtRp2744
(dp2745
g61
(dp2746
sg70
g2718
sg63
(lp2747
g56
(g77
g58
NtRp2748
(dp2749
g61
(dp2750
g81
g82
ssg70
g2744
sg63
(lp2751
S'Content-Type'
p2752
asbag56
(g77
g58
NtRp2753
(dp2754
g61
(dp2755
g88
g89
ssg70
g2744
sg63
(lp2756
S':'
asbag56
(g77
g58
NtRp2757
(dp2758
g61
(dp2759
sg70
g2744
sg63
(lp2760
g56
(g57
g58
NtRp2761
(dp2762
g61
(dp2763
g69
I4
ssg70
g2757
sg63
(lp2764
S'text/html; charset=utf-8'
p2765
asbasbasbag56
(g72
g58
NtRp2766
(dp2767
g61
(dp2768
sg70
g2718
sg63
(lp2769
g56
(g77
g58
NtRp2770
(dp2771
g61
(dp2772
g81
g82
ssg70
g2766
sg63
(lp2773
S'Expires'
p2774
asbag56
(g77
g58
NtRp2775
(dp2776
g61
(dp2777
g88
g89
ssg70
g2766
sg63
(lp2778
S':'
asbag56
(g77
g58
NtRp2779
(dp2780
g61
(dp2781
sg70
g2766
sg63
(lp2782
g56
(g57
g58
NtRp2783
(dp2784
g61
(dp2785
g69
I4
ssg70
g2779
sg63
(lp2786
S'Sun, 03 Jul 2011 00:10:03 GMT'
p2787
asbasbasbag56
(g72
g58
NtRp2788
(dp2789
g61
(dp2790
sg70
g2718
sg63
(lp2791
g56
(g77
g58
NtRp2792
(dp2793
g61
(dp2794
g81
g82
ssg70
g2788
sg63
(lp2795
S'Pragma'
p2796
asbag56
(g77
g58
NtRp2797
(dp2798
g61
(dp2799
g88
g89
ssg70
g2788
sg63
(lp2800
S':'
asbag56
(g77
g58
NtRp2801
(dp2802
g61
(dp2803
sg70
g2788
sg63
(lp2804
g56
(g57
g58
NtRp2805
(dp2806
g61
(dp2807
g69
I4
ssg70
g2801
sg63
(lp2808
S'no-cache'
p2809
asbasbasbasbasbasbasbag56
(g72
g58
NtRp2810
(dp2811
g61
(dp2812
sg70
g2417
sg63
(lp2813
g56
(g77
g58
NtRp2814
(dp2815
g61
(dp2816
g81
g82
ssg70
g2810
sg63
(lp2817
S'menu'
p2818
asbag56
(g77
g58
NtRp2819
(dp2820
g61
(dp2821
g88
g89
ssg70
g2810
sg63
(lp2822
S':'
asbag56
(g77
g58
NtRp2823
(dp2824
g61
(dp2825
sg70
g2810
sg63
(lp2826
g56
(g57
g58
NtRp2827
(dp2828
g61
(dp2829
g69
I5
ssg70
g2823
sg63
(lp2830
g56
(g65
g58
NtRp2831
(dp2832
g61
(dp2833
g69
I4
ssg70
Nsg63
(lp2834
sbasbasbasbag56
(g72
g58
NtRp2835
(dp2836
g61
(dp2837
sg70
g2417
sg63
(lp2838
g56
(g77
g58
NtRp2839
(dp2840
g61
(dp2841
g81
g82
ssg70
g2835
sg63
(lp2842
S'meta'
p2843
asbag56
(g77
g58
NtRp2844
(dp2845
g61
(dp2846
g88
g89
ssg70
g2835
sg63
(lp2847
S':'
asbag56
(g77
g58
NtRp2848
(dp2849
g61
(dp2850
sg70
g2835
sg63
(lp2851
g56
(g57
g58
NtRp2852
(dp2853
g61
(dp2854
g69
I5
ssg70
g2848
sg63
(lp2855
g56
(g65
g58
NtRp2856
(dp2857
g61
(dp2858
g69
I4
ssg70
Nsg63
(lp2859
sbasbasbasbag56
(g72
g58
NtRp2860
(dp2861
g61
(dp2862
sg70
g2417
sg63
(lp2863
g56
(g77
g58
NtRp2864
(dp2865
g61
(dp2866
g81
g82
ssg70
g2860
sg63
(lp2867
S'postprocessing'
p2868
asbag56
(g77
g58
NtRp2869
(dp2870
g61
(dp2871
g88
g89
ssg70
g2860
sg63
(lp2872
S':'
asbag56
(g77
g58
NtRp2873
(dp2874
g61
(dp2875
sg70
g2860
sg63
(lp2876
g56
(g57
g58
NtRp2877
(dp2878
g61
(dp2879
g69
I5
ssg70
g2873
sg63
(lp2880
g56
(g65
g58
NtRp2881
(dp2882
g61
(dp2883
g69
I4
ssg70
Nsg63
(lp2884
sbasbasbasbag56
(g72
g58
NtRp2885
(dp2886
g61
(dp2887
sg70
g2417
sg63
(lp2888
g56
(g77
g58
NtRp2889
(dp2890
g61
(dp2891
g81
g82
ssg70
g2885
sg63
(lp2892
S'session_file'
p2893
asbag56
(g77
g58
NtRp2894
(dp2895
g61
(dp2896
g88
g89
ssg70
g2885
sg63
(lp2897
S':'
asbag56
(g77
g58
NtRp2898
(dp2899
g61
(dp2900
sg70
g2885
sg63
(lp2901
g56
(g57
g58
NtRp2902
(dp2903
g61
(dp2904
g69
I5
ssg70
g2898
sg63
(lp2905
S"<open file '/home/jacobbl/SENG265/pe2/codeAct_1.01/web2py/applications/codeAct/sessions/127.0.0.1-f7f53c9f-8b35-4710-9e3b-7657ca83029d', mode 'rb+' at 0x8c0a700>"
p2906
asbasbasbag56
(g72
g58
NtRp2907
(dp2908
g61
(dp2909
sg70
g2417
sg63
(lp2910
g56
(g77
g58
NtRp2911
(dp2912
g61
(dp2913
g81
g82
ssg70
g2907
sg63
(lp2914
S'session_filename'
p2915
asbag56
(g77
g58
NtRp2916
(dp2917
g61
(dp2918
g88
g89
ssg70
g2907
sg63
(lp2919
S':'
asbag56
(g77
g58
NtRp2920
(dp2921
g61
(dp2922
sg70
g2907
sg63
(lp2923
g56
(g57
g58
NtRp2924
(dp2925
g61
(dp2926
g69
I5
ssg70
g2920
sg63
(lp2927
S'/home/jacobbl/SENG265/pe2/codeAct_1.01/web2py/applications/codeAct/sessions/127.0.0.1-f7f53c9f-8b35-4710-9e3b-7657ca83029d'
p2928
asbasbasbag56
(g72
g58
NtRp2929
(dp2930
g61
(dp2931
sg70
g2417
sg63
(lp2932
g56
(g77
g58
NtRp2933
(dp2934
g61
(dp2935
g81
g82
ssg70
g2929
sg63
(lp2936
S'session_id'
p2937
asbag56
(g77
g58
NtRp2938
(dp2939
g61
(dp2940
g88
g89
ssg70
g2929
sg63
(lp2941
S':'
asbag56
(g77
g58
NtRp2942
(dp2943
g61
(dp2944
sg70
g2929
sg63
(lp2945
g56
(g57
g58
NtRp2946
(dp2947
g61
(dp2948
g69
I5
ssg70
g2942
sg63
(lp2949
S'127.0.0.1-f7f53c9f-8b35-4710-9e3b-7657ca83029d'
p2950
asbasbasbag56
(g72
g58
NtRp2951
(dp2952
g61
(dp2953
sg70
g2417
sg63
(lp2954
g56
(g77
g58
NtRp2955
(dp2956
g61
(dp2957
g81
g82
ssg70
g2951
sg63
(lp2958
S'session_id_name'
p2959
asbag56
(g77
g58
NtRp2960
(dp2961
g61
(dp2962
g88
g89
ssg70
g2951
sg63
(lp2963
S':'
asbag56
(g77
g58
NtRp2964
(dp2965
g61
(dp2966
sg70
g2951
sg63
(lp2967
g56
(g57
g58
NtRp2968
(dp2969
g61
(dp2970
g69
I5
ssg70
g2964
sg63
(lp2971
g2474
asbasbasbag56
(g72
g58
NtRp2972
(dp2973
g61
(dp2974
sg70
g2417
sg63
(lp2975
g56
(g77
g58
NtRp2976
(dp2977
g61
(dp2978
g81
g82
ssg70
g2972
sg63
(lp2979
S'session_locked'
p2980
asbag56
(g77
g58
NtRp2981
(dp2982
g61
(dp2983
g88
g89
ssg70
g2972
sg63
(lp2984
S':'
asbag56
(g77
g58
NtRp2985
(dp2986
g61
(dp2987
sg70
g2972
sg63
(lp2988
g56
(g57
g58
NtRp2989
(dp2990
g61
(dp2991
g69
I5
ssg70
g2985
sg63
(lp2992
g1200
asbasbasbag56
(g72
g58
NtRp2993
(dp2994
g61
(dp2995
sg70
g2417
sg63
(lp2996
g56
(g77
g58
NtRp2997
(dp2998
g61
(dp2999
g81
g82
ssg70
g2993
sg63
(lp3000
S'session_new'
p3001
asbag56
(g77
g58
NtRp3002
(dp3003
g61
(dp3004
g88
g89
ssg70
g2993
sg63
(lp3005
S':'
asbag56
(g77
g58
NtRp3006
(dp3007
g61
(dp3008
sg70
g2993
sg63
(lp3009
g56
(g57
g58
NtRp3010
(dp3011
g61
(dp3012
g69
I5
ssg70
g3006
sg63
(lp3013
g99
asbasbasbag56
(g72
g58
NtRp3014
(dp3015
g61
(dp3016
sg70
g2417
sg63
(lp3017
g56
(g77
g58
NtRp3018
(dp3019
g61
(dp3020
g81
g82
ssg70
g3014
sg63
(lp3021
S'status'
p3022
asbag56
(g77
g58
NtRp3023
(dp3024
g61
(dp3025
g88
g89
ssg70
g3014
sg63
(lp3026
S':'
asbag56
(g77
g58
NtRp3027
(dp3028
g61
(dp3029
sg70
g3014
sg63
(lp3030
g56
(g57
g58
NtRp3031
(dp3032
g61
(dp3033
g69
I5
ssg70
g3027
sg63
(lp3034
S'200'
p3035
asbasbasbag56
(g72
g58
NtRp3036
(dp3037
g61
(dp3038
sg70
g2417
sg63
(lp3039
g56
(g77
g58
NtRp3040
(dp3041
g61
(dp3042
g81
g82
ssg70
g3036
sg63
(lp3043
g1525
asbag56
(g77
g58
NtRp3044
(dp3045
g61
(dp3046
g88
g89
ssg70
g3036
sg63
(lp3047
S':'
asbag56
(g77
g58
NtRp3048
(dp3049
g61
(dp3050
sg70
g3036
sg63
(lp3051
g56
(g57
g58
NtRp3052
(dp3053
g61
(dp3054
g69
I5
ssg70
g3048
sg63
(lp3055
g1538
asbasbasbag56
(g72
g58
NtRp3056
(dp3057
g61
(dp3058
sg70
g2417
sg63
(lp3059
g56
(g77
g58
NtRp3060
(dp3061
g61
(dp3062
g81
g82
ssg70
g3056
sg63
(lp3063
S'view'
p3064
asbag56
(g77
g58
NtRp3065
(dp3066
g61
(dp3067
g88
g89
ssg70
g3056
sg63
(lp3068
S':'
asbag56
(g77
g58
NtRp3069
(dp3070
g61
(dp3071
sg70
g3056
sg63
(lp3072
g56
(g57
g58
NtRp3073
(dp3074
g61
(dp3075
g69
I5
ssg70
g3069
sg63
(lp3076
S'ca_controller/quiz.html'
p3077
asbasbasbasbasbsS'locals'
p3078
(dp3079
S'index'
p3080
S'0'
sS'self'
p3081
S'<ca_quiz.quiz instance>'
p3082
sssS'traceback'
p3083
S'Traceback (most recent call last):\n  File "/home/jacobbl/SENG265/pe2/codeAct_1.01/web2py/gluon/restricted.py", line 181, in restricted\n    exec ccode in environment\n  File "/home/jacobbl/SENG265/pe2/codeAct_1.01/web2py/applications/codeAct/controllers/ca_controller.py", line 85, in <module>\n  File "/home/jacobbl/SENG265/pe2/codeAct_1.01/web2py/gluon/globals.py", line 133, in <lambda>\n    self._caller = lambda f: f()\n  File "/home/jacobbl/SENG265/pe2/codeAct_1.01/web2py/applications/codeAct/controllers/ca_controller.py", line 67, in quiz\n    question = session[\'quiz\'].get_question(question_number-1)\n  File "/home/jacobbl/SENG265/pe2/codeAct_1.01/web2py/applications/codeAct/ca_quiz.py", line 63, in get_question\n    return self.question_list[index]\nIndexError: list index out of range\n'
p3084
s.