(dp1
S'output'
p2
S''
sS'layer'
p3
S'/home/jacobbl/SENG265/exercise2_jacob/codeAct_1.01/web2py/applications/codeAct/controllers/ca_controller.py'
p4
sS'code'
p5
S"import sys\nimport time\nimport os\n\nimport ca_quiz as Quiz\nimport ca_log_create as log_create\n\nsys.path.append('applications/codeAct/controllers')\nimport ca_utility as utility\n\nsys.path.append('applications/codeAct/views/ca_controller')\nimport ca_question_HTML as question_HTML\n\nSERVERNAME = 'cdoku'\n\ndef ca_login():\n\tif not 'username' in request.vars.keys(): # not a submission\n\t\treturn dict(msg='')\n\telse: # request is a submission\n\t\t# get user list\n\t\tuser_list = 'allowed_users.txt'\n\t\t# check if student is registered in SENG265\n\t\tusers = open(os.path.join('../users/',user_list),\n\t\t 'r').read().split('\\n')\n\t\tif not request.vars['username'] in users:\n\t\t\treturn dict(\n\t\t\t msg = 'Not registered in the current session.')\n\t\t# authenticate username and password\n\t\tif os.uname()[1] == SERVERNAME:\n\t\t\tseng_auth = __import__('ca_seng_auth')\n\t\t\tif seng_auth.authenticate(request.vars['username'],\n\t\t\t request.vars['password']) != 0:\n\t\t\t\treturn dict(msg='Wrong username or password.')\n\t\tsession.login = request.vars['username']\n\t\tredirect(URL(r=request, f='quiz'))\n\ndef quiz():\n\t# the beginning of the quiz, create quiz and init answer_list\n\tif 'quiz_spec' in request.vars.keys():\n\t\tsession['quiz'] = Quiz.quiz(request.vars['quiz_spec'])\n\t\tsession['answer_list'] = utility.init_answer_list(\n\t\t session['quiz'])\n\t\t# initialize question_timer\n\t\tsession['question_timer'] = int(time.time())\n\t\t# reset the login\n\t\tif 'login' in session.keys():\n\t\t\tdel session['login']\n\n\t# if quiz does not exist, redirect to home page\n\tif not 'quiz' in session.keys():\n\t\tredirect(URL(r=request, f='ca_index'))\n\n\t# check login in marked mode\n\tif not 'login' in session.keys():\n\t\tif not session['quiz'].practice_mode: \n\t\t\tredirect(URL(r=request, f='ca_login'))\n\t\telse:\n\t\t\tsession['login'] = ''\n\n\t# init log_dir and log\n\tif session['quiz'].logged:\n\t\tlog_create.create_log(session['quiz'].log_dir,\n\t\t session['login'])\n\n\t# generate HTML code\n\tquestion_number = utility.get_question_number(request.vars)\n\tquestion = session['quiz'].get_question(question_number-1)\n\tutility.update_answer(question,question_number,session['answer_list'],\n\t request.vars)\n\tcode = question_HTML.generate_html(session['quiz'],question_number,\n\t session['answer_list'][question_number-1])\n\tcode = utility.get_result(code,question,question_number,\n\t session['quiz'].logged,session['quiz'].log_dir,\n\t session['quiz'].practice_mode,session['login'],\n\t session['answer_list'][question_number-1],\n\t request.vars,session['question_timer'])\n\tcode = utility.add_submit_label(code,session['quiz'].practice_mode)\n\tcode = utility.disable_navi_buttons(code,question_number,\n\t session['quiz'])\n\n\t# update question timer\n\tsession['question_timer'] = int(time.time())\n\treturn code\n\nresponse._vars=response._caller(quiz)\n"
p6
sS'snapshot'
p7
(dp8
S'exception'
p9
(dp10
S'__hash__'
p11
S"<method-wrapper '__hash__' of exceptions.IndexError object>"
p12
sS'__setattr__'
p13
S"<method-wrapper '__setattr__' of exceptions.IndexError object>"
p14
sS'__reduce_ex__'
p15
S'<built-in method __reduce_ex__ of exceptions.IndexError object>'
p16
sS'__getslice__'
p17
S"<method-wrapper '__getslice__' of exceptions.IndexError object>"
p18
sS'__getitem__'
p19
S"<method-wrapper '__getitem__' of exceptions.IndexError object>"
p20
sS'__setstate__'
p21
S'<built-in method __setstate__ of exceptions.IndexError object>'
p22
sS'__reduce__'
p23
S'<built-in method __reduce__ of exceptions.IndexError object>'
p24
sS'__str__'
p25
S"<method-wrapper '__str__' of exceptions.IndexError object>"
p26
sS'__format__'
p27
S'<built-in method __format__ of exceptions.IndexError object>'
p28
sS'__getattribute__'
p29
S"<method-wrapper '__getattribute__' of exceptions.IndexError object>"
p30
sS'__class__'
p31
S"<type 'exceptions.IndexError'>"
p32
sS'__unicode__'
p33
S'<built-in method __unicode__ of exceptions.IndexError object>'
p34
sS'__delattr__'
p35
S"<method-wrapper '__delattr__' of exceptions.IndexError object>"
p36
sS'__subclasshook__'
p37
S'<built-in method __subclasshook__ of type object>'
p38
sS'__repr__'
p39
S"<method-wrapper '__repr__' of exceptions.IndexError object>"
p40
sS'args'
p41
S"('list index out of range',)"
p42
sS'__dict__'
p43
S'{}'
p44
sS'__sizeof__'
p45
S'<built-in method __sizeof__ of exceptions.IndexError object>'
p46
sS'__doc__'
p47
S"'Sequence index out of range.'"
p48
sS'__init__'
p49
S"<method-wrapper '__init__' of exceptions.IndexError object>"
p50
sS'__new__'
p51
S'<built-in method __new__ of type object>'
p52
ssS'evalue'
p53
S'list index out of range'
p54
sS'request'
p55
ccopy_reg
_reconstructor
p56
(cgluon.html
BEAUTIFY
p57
c__builtin__
object
p58
NtRp59
(dp60
S'attributes'
p61
(dp62
sS'components'
p63
(lp64
g56
(cgluon.html
TABLE
p65
g58
NtRp66
(dp67
g61
(dp68
S'level'
p69
I5
ssS'parent'
p70
Nsg63
(lp71
g56
(cgluon.html
TR
p72
g58
NtRp73
(dp74
g61
(dp75
sg70
g66
sg63
(lp76
g56
(cgluon.html
TD
p77
g58
NtRp78
(dp79
g61
(dp80
S'_style'
p81
S'font-weight:bold;'
p82
ssg70
g73
sg63
(lp83
S'ajax'
p84
asbag56
(g77
g58
NtRp85
(dp86
g61
(dp87
S'_valign'
p88
S'top'
p89
ssg70
g73
sg63
(lp90
S':'
asbag56
(g77
g58
NtRp91
(dp92
g61
(dp93
sg70
g73
sg63
(lp94
g56
(g57
g58
NtRp95
(dp96
g61
(dp97
g69
I5
ssg70
g91
sg63
(lp98
S'False'
p99
asbasbasbag56
(g72
g58
NtRp100
(dp101
g61
(dp102
sg70
g66
sg63
(lp103
g56
(g77
g58
NtRp104
(dp105
g61
(dp106
g81
g82
ssg70
g100
sg63
(lp107
S'application'
p108
asbag56
(g77
g58
NtRp109
(dp110
g61
(dp111
g88
g89
ssg70
g100
sg63
(lp112
S':'
asbag56
(g77
g58
NtRp113
(dp114
g61
(dp115
sg70
g100
sg63
(lp116
g56
(g57
g58
NtRp117
(dp118
g61
(dp119
g69
I5
ssg70
g113
sg63
(lp120
S'codeAct'
p121
asbasbasbag56
(g72
g58
NtRp122
(dp123
g61
(dp124
sg70
g66
sg63
(lp125
g56
(g77
g58
NtRp126
(dp127
g61
(dp128
g81
g82
ssg70
g122
sg63
(lp129
g41
asbag56
(g77
g58
NtRp130
(dp131
g61
(dp132
g88
g89
ssg70
g122
sg63
(lp133
S':'
asbag56
(g77
g58
NtRp134
(dp135
g61
(dp136
sg70
g122
sg63
(lp137
g56
(g57
g58
NtRp138
(dp139
g61
(dp140
g69
I5
ssg70
g134
sg63
(lp141
g56
(g65
g58
NtRp142
(dp143
g61
(dp144
g69
I4
ssg70
Nsg63
(lp145
sbasbasbasbag56
(g72
g58
NtRp146
(dp147
g61
(dp148
sg70
g66
sg63
(lp149
g56
(g77
g58
NtRp150
(dp151
g61
(dp152
g81
g82
ssg70
g146
sg63
(lp153
S'body'
p154
asbag56
(g77
g58
NtRp155
(dp156
g61
(dp157
g88
g89
ssg70
g146
sg63
(lp158
S':'
asbag56
(g77
g58
NtRp159
(dp160
g61
(dp161
sg70
g146
sg63
(lp162
g56
(g57
g58
NtRp163
(dp164
g61
(dp165
g69
I5
ssg70
g159
sg63
(lp166
S'<cStringIO.StringO object at 0xab55da0>'
p167
asbasbasbag56
(g72
g58
NtRp168
(dp169
g61
(dp170
sg70
g66
sg63
(lp171
g56
(g77
g58
NtRp172
(dp173
g61
(dp174
g81
g82
ssg70
g168
sg63
(lp175
S'client'
p176
asbag56
(g77
g58
NtRp177
(dp178
g61
(dp179
g88
g89
ssg70
g168
sg63
(lp180
S':'
asbag56
(g77
g58
NtRp181
(dp182
g61
(dp183
sg70
g168
sg63
(lp184
g56
(g57
g58
NtRp185
(dp186
g61
(dp187
g69
I5
ssg70
g181
sg63
(lp188
S'127.0.0.1'
p189
asbasbasbag56
(g72
g58
NtRp190
(dp191
g61
(dp192
sg70
g66
sg63
(lp193
g56
(g77
g58
NtRp194
(dp195
g61
(dp196
g81
g82
ssg70
g190
sg63
(lp197
S'controller'
p198
asbag56
(g77
g58
NtRp199
(dp200
g61
(dp201
g88
g89
ssg70
g190
sg63
(lp202
S':'
asbag56
(g77
g58
NtRp203
(dp204
g61
(dp205
sg70
g190
sg63
(lp206
g56
(g57
g58
NtRp207
(dp208
g61
(dp209
g69
I5
ssg70
g203
sg63
(lp210
S'ca_controller'
p211
asbasbasbag56
(g72
g58
NtRp212
(dp213
g61
(dp214
sg70
g66
sg63
(lp215
g56
(g77
g58
NtRp216
(dp217
g61
(dp218
g81
g82
ssg70
g212
sg63
(lp219
S'cookies'
p220
asbag56
(g77
g58
NtRp221
(dp222
g61
(dp223
g88
g89
ssg70
g212
sg63
(lp224
S':'
asbag56
(g77
g58
NtRp225
(dp226
g61
(dp227
sg70
g212
sg63
(lp228
g56
(g57
g58
NtRp229
(dp230
g61
(dp231
g69
I5
ssg70
g225
sg63
(lp232
g56
(g65
g58
NtRp233
(dp234
g61
(dp235
g69
I4
ssg70
Nsg63
(lp236
g56
(g72
g58
NtRp237
(dp238
g61
(dp239
sg70
g233
sg63
(lp240
g56
(g77
g58
NtRp241
(dp242
g61
(dp243
g81
g82
ssg70
g237
sg63
(lp244
S'session_id_admin'
p245
asbag56
(g77
g58
NtRp246
(dp247
g61
(dp248
g88
g89
ssg70
g237
sg63
(lp249
S':'
asbag56
(g77
g58
NtRp250
(dp251
g61
(dp252
sg70
g237
sg63
(lp253
g56
(g57
g58
NtRp254
(dp255
g61
(dp256
g69
I4
ssg70
g250
sg63
(lp257
g56
(g65
g58
NtRp258
(dp259
g61
(dp260
g69
I3
ssg70
Nsg63
(lp261
g56
(g72
g58
NtRp262
(dp263
g61
(dp264
sg70
g258
sg63
(lp265
g56
(g77
g58
NtRp266
(dp267
g61
(dp268
g81
g82
ssg70
g262
sg63
(lp269
S'comment'
p270
asbag56
(g77
g58
NtRp271
(dp272
g61
(dp273
g88
g89
ssg70
g262
sg63
(lp274
S':'
asbag56
(g77
g58
NtRp275
(dp276
g61
(dp277
sg70
g262
sg63
(lp278
g56
(g57
g58
NtRp279
(dp280
g61
(dp281
g69
I3
ssg70
g275
sg63
(lp282
S''
asbasbasbag56
(g72
g58
NtRp283
(dp284
g61
(dp285
sg70
g258
sg63
(lp286
g56
(g77
g58
NtRp287
(dp288
g61
(dp289
g81
g82
ssg70
g283
sg63
(lp290
S'domain'
p291
asbag56
(g77
g58
NtRp292
(dp293
g61
(dp294
g88
g89
ssg70
g283
sg63
(lp295
S':'
asbag56
(g77
g58
NtRp296
(dp297
g61
(dp298
sg70
g283
sg63
(lp299
g56
(g57
g58
NtRp300
(dp301
g61
(dp302
g69
I3
ssg70
g296
sg63
(lp303
S''
asbasbasbag56
(g72
g58
NtRp304
(dp305
g61
(dp306
sg70
g258
sg63
(lp307
g56
(g77
g58
NtRp308
(dp309
g61
(dp310
g81
g82
ssg70
g304
sg63
(lp311
S'expires'
p312
asbag56
(g77
g58
NtRp313
(dp314
g61
(dp315
g88
g89
ssg70
g304
sg63
(lp316
S':'
asbag56
(g77
g58
NtRp317
(dp318
g61
(dp319
sg70
g304
sg63
(lp320
g56
(g57
g58
NtRp321
(dp322
g61
(dp323
g69
I3
ssg70
g317
sg63
(lp324
S''
asbasbasbag56
(g72
g58
NtRp325
(dp326
g61
(dp327
sg70
g258
sg63
(lp328
g56
(g77
g58
NtRp329
(dp330
g61
(dp331
g81
g82
ssg70
g325
sg63
(lp332
S'httponly'
p333
asbag56
(g77
g58
NtRp334
(dp335
g61
(dp336
g88
g89
ssg70
g325
sg63
(lp337
S':'
asbag56
(g77
g58
NtRp338
(dp339
g61
(dp340
sg70
g325
sg63
(lp341
g56
(g57
g58
NtRp342
(dp343
g61
(dp344
g69
I3
ssg70
g338
sg63
(lp345
S''
asbasbasbag56
(g72
g58
NtRp346
(dp347
g61
(dp348
sg70
g258
sg63
(lp349
g56
(g77
g58
NtRp350
(dp351
g61
(dp352
g81
g82
ssg70
g346
sg63
(lp353
S'max-age'
p354
asbag56
(g77
g58
NtRp355
(dp356
g61
(dp357
g88
g89
ssg70
g346
sg63
(lp358
S':'
asbag56
(g77
g58
NtRp359
(dp360
g61
(dp361
sg70
g346
sg63
(lp362
g56
(g57
g58
NtRp363
(dp364
g61
(dp365
g69
I3
ssg70
g359
sg63
(lp366
S''
asbasbasbag56
(g72
g58
NtRp367
(dp368
g61
(dp369
sg70
g258
sg63
(lp370
g56
(g77
g58
NtRp371
(dp372
g61
(dp373
g81
g82
ssg70
g367
sg63
(lp374
S'path'
p375
asbag56
(g77
g58
NtRp376
(dp377
g61
(dp378
g88
g89
ssg70
g367
sg63
(lp379
S':'
asbag56
(g77
g58
NtRp380
(dp381
g61
(dp382
sg70
g367
sg63
(lp383
g56
(g57
g58
NtRp384
(dp385
g61
(dp386
g69
I3
ssg70
g380
sg63
(lp387
S''
asbasbasbag56
(g72
g58
NtRp388
(dp389
g61
(dp390
sg70
g258
sg63
(lp391
g56
(g77
g58
NtRp392
(dp393
g61
(dp394
g81
g82
ssg70
g388
sg63
(lp395
S'secure'
p396
asbag56
(g77
g58
NtRp397
(dp398
g61
(dp399
g88
g89
ssg70
g388
sg63
(lp400
S':'
asbag56
(g77
g58
NtRp401
(dp402
g61
(dp403
sg70
g388
sg63
(lp404
g56
(g57
g58
NtRp405
(dp406
g61
(dp407
g69
I3
ssg70
g401
sg63
(lp408
S''
asbasbasbag56
(g72
g58
NtRp409
(dp410
g61
(dp411
sg70
g258
sg63
(lp412
g56
(g77
g58
NtRp413
(dp414
g61
(dp415
g81
g82
ssg70
g409
sg63
(lp416
S'version'
p417
asbag56
(g77
g58
NtRp418
(dp419
g61
(dp420
g88
g89
ssg70
g409
sg63
(lp421
S':'
asbag56
(g77
g58
NtRp422
(dp423
g61
(dp424
sg70
g409
sg63
(lp425
g56
(g57
g58
NtRp426
(dp427
g61
(dp428
g69
I3
ssg70
g422
sg63
(lp429
S''
asbasbasbasbasbasbasbag56
(g72
g58
NtRp430
(dp431
g61
(dp432
sg70
g233
sg63
(lp433
g56
(g77
g58
NtRp434
(dp435
g61
(dp436
g81
g82
ssg70
g430
sg63
(lp437
S'session_id_codeact'
p438
asbag56
(g77
g58
NtRp439
(dp440
g61
(dp441
g88
g89
ssg70
g430
sg63
(lp442
S':'
asbag56
(g77
g58
NtRp443
(dp444
g61
(dp445
sg70
g430
sg63
(lp446
g56
(g57
g58
NtRp447
(dp448
g61
(dp449
g69
I4
ssg70
g443
sg63
(lp450
g56
(g65
g58
NtRp451
(dp452
g61
(dp453
g69
I3
ssg70
Nsg63
(lp454
g56
(g72
g58
NtRp455
(dp456
g61
(dp457
sg70
g451
sg63
(lp458
g56
(g77
g58
NtRp459
(dp460
g61
(dp461
g81
g82
ssg70
g455
sg63
(lp462
g270
asbag56
(g77
g58
NtRp463
(dp464
g61
(dp465
g88
g89
ssg70
g455
sg63
(lp466
S':'
asbag56
(g77
g58
NtRp467
(dp468
g61
(dp469
sg70
g455
sg63
(lp470
g56
(g57
g58
NtRp471
(dp472
g61
(dp473
g69
I3
ssg70
g467
sg63
(lp474
S''
asbasbasbag56
(g72
g58
NtRp475
(dp476
g61
(dp477
sg70
g451
sg63
(lp478
g56
(g77
g58
NtRp479
(dp480
g61
(dp481
g81
g82
ssg70
g475
sg63
(lp482
g291
asbag56
(g77
g58
NtRp483
(dp484
g61
(dp485
g88
g89
ssg70
g475
sg63
(lp486
S':'
asbag56
(g77
g58
NtRp487
(dp488
g61
(dp489
sg70
g475
sg63
(lp490
g56
(g57
g58
NtRp491
(dp492
g61
(dp493
g69
I3
ssg70
g487
sg63
(lp494
S''
asbasbasbag56
(g72
g58
NtRp495
(dp496
g61
(dp497
sg70
g451
sg63
(lp498
g56
(g77
g58
NtRp499
(dp500
g61
(dp501
g81
g82
ssg70
g495
sg63
(lp502
g312
asbag56
(g77
g58
NtRp503
(dp504
g61
(dp505
g88
g89
ssg70
g495
sg63
(lp506
S':'
asbag56
(g77
g58
NtRp507
(dp508
g61
(dp509
sg70
g495
sg63
(lp510
g56
(g57
g58
NtRp511
(dp512
g61
(dp513
g69
I3
ssg70
g507
sg63
(lp514
S''
asbasbasbag56
(g72
g58
NtRp515
(dp516
g61
(dp517
sg70
g451
sg63
(lp518
g56
(g77
g58
NtRp519
(dp520
g61
(dp521
g81
g82
ssg70
g515
sg63
(lp522
g333
asbag56
(g77
g58
NtRp523
(dp524
g61
(dp525
g88
g89
ssg70
g515
sg63
(lp526
S':'
asbag56
(g77
g58
NtRp527
(dp528
g61
(dp529
sg70
g515
sg63
(lp530
g56
(g57
g58
NtRp531
(dp532
g61
(dp533
g69
I3
ssg70
g527
sg63
(lp534
S''
asbasbasbag56
(g72
g58
NtRp535
(dp536
g61
(dp537
sg70
g451
sg63
(lp538
g56
(g77
g58
NtRp539
(dp540
g61
(dp541
g81
g82
ssg70
g535
sg63
(lp542
g354
asbag56
(g77
g58
NtRp543
(dp544
g61
(dp545
g88
g89
ssg70
g535
sg63
(lp546
S':'
asbag56
(g77
g58
NtRp547
(dp548
g61
(dp549
sg70
g535
sg63
(lp550
g56
(g57
g58
NtRp551
(dp552
g61
(dp553
g69
I3
ssg70
g547
sg63
(lp554
S''
asbasbasbag56
(g72
g58
NtRp555
(dp556
g61
(dp557
sg70
g451
sg63
(lp558
g56
(g77
g58
NtRp559
(dp560
g61
(dp561
g81
g82
ssg70
g555
sg63
(lp562
g375
asbag56
(g77
g58
NtRp563
(dp564
g61
(dp565
g88
g89
ssg70
g555
sg63
(lp566
S':'
asbag56
(g77
g58
NtRp567
(dp568
g61
(dp569
sg70
g555
sg63
(lp570
g56
(g57
g58
NtRp571
(dp572
g61
(dp573
g69
I3
ssg70
g567
sg63
(lp574
S''
asbasbasbag56
(g72
g58
NtRp575
(dp576
g61
(dp577
sg70
g451
sg63
(lp578
g56
(g77
g58
NtRp579
(dp580
g61
(dp581
g81
g82
ssg70
g575
sg63
(lp582
g396
asbag56
(g77
g58
NtRp583
(dp584
g61
(dp585
g88
g89
ssg70
g575
sg63
(lp586
S':'
asbag56
(g77
g58
NtRp587
(dp588
g61
(dp589
sg70
g575
sg63
(lp590
g56
(g57
g58
NtRp591
(dp592
g61
(dp593
g69
I3
ssg70
g587
sg63
(lp594
S''
asbasbasbag56
(g72
g58
NtRp595
(dp596
g61
(dp597
sg70
g451
sg63
(lp598
g56
(g77
g58
NtRp599
(dp600
g61
(dp601
g81
g82
ssg70
g595
sg63
(lp602
g417
asbag56
(g77
g58
NtRp603
(dp604
g61
(dp605
g88
g89
ssg70
g595
sg63
(lp606
S':'
asbag56
(g77
g58
NtRp607
(dp608
g61
(dp609
sg70
g595
sg63
(lp610
g56
(g57
g58
NtRp611
(dp612
g61
(dp613
g69
I3
ssg70
g607
sg63
(lp614
S''
asbasbasbasbasbasbasbasbasbasbasbag56
(g72
g58
NtRp615
(dp616
g61
(dp617
sg70
g66
sg63
(lp618
g56
(g77
g58
NtRp619
(dp620
g61
(dp621
g81
g82
ssg70
g615
sg63
(lp622
S'env'
p623
asbag56
(g77
g58
NtRp624
(dp625
g61
(dp626
g88
g89
ssg70
g615
sg63
(lp627
S':'
asbag56
(g77
g58
NtRp628
(dp629
g61
(dp630
sg70
g615
sg63
(lp631
g56
(g57
g58
NtRp632
(dp633
g61
(dp634
g69
I5
ssg70
g628
sg63
(lp635
g56
(g65
g58
NtRp636
(dp637
g61
(dp638
g69
I4
ssg70
Nsg63
(lp639
g56
(g72
g58
NtRp640
(dp641
g61
(dp642
sg70
g636
sg63
(lp643
g56
(g77
g58
NtRp644
(dp645
g61
(dp646
g81
g82
ssg70
g640
sg63
(lp647
S'app_folders'
p648
asbag56
(g77
g58
NtRp649
(dp650
g61
(dp651
g88
g89
ssg70
g640
sg63
(lp652
S':'
asbag56
(g77
g58
NtRp653
(dp654
g61
(dp655
sg70
g640
sg63
(lp656
g56
(g57
g58
NtRp657
(dp658
g61
(dp659
g69
I4
ssg70
g653
sg63
(lp660
S"set(['/home/jacobbl/SENG265/exercise2_jacob/codeAct_1.01/web2py/applications/codeAct/', '/home/jacobbl/SENG265/exercise2_jacob/codeAct_1.01/web2py/applications/admin/'])"
p661
asbasbasbag56
(g72
g58
NtRp662
(dp663
g61
(dp664
sg70
g636
sg63
(lp665
g56
(g77
g58
NtRp666
(dp667
g61
(dp668
g81
g82
ssg70
g662
sg63
(lp669
S'applications_parent'
p670
asbag56
(g77
g58
NtRp671
(dp672
g61
(dp673
g88
g89
ssg70
g662
sg63
(lp674
S':'
asbag56
(g77
g58
NtRp675
(dp676
g61
(dp677
sg70
g662
sg63
(lp678
g56
(g57
g58
NtRp679
(dp680
g61
(dp681
g69
I4
ssg70
g675
sg63
(lp682
S'/home/jacobbl/SENG265/exercise2_jacob/codeAct_1.01/web2py'
p683
asbasbasbag56
(g72
g58
NtRp684
(dp685
g61
(dp686
sg70
g636
sg63
(lp687
g56
(g77
g58
NtRp688
(dp689
g61
(dp690
g81
g82
ssg70
g684
sg63
(lp691
S'cmd_args'
p692
asbag56
(g77
g58
NtRp693
(dp694
g61
(dp695
g88
g89
ssg70
g684
sg63
(lp696
S':'
asbag56
(g77
g58
NtRp697
(dp698
g61
(dp699
sg70
g684
sg63
(lp700
g56
(g57
g58
NtRp701
(dp702
g61
(dp703
g69
I4
ssg70
g697
sg63
(lp704
g56
(g65
g58
NtRp705
(dp706
g61
(dp707
g69
I3
ssg70
Nsg63
(lp708
sbasbasbasbag56
(g72
g58
NtRp709
(dp710
g61
(dp711
sg70
g636
sg63
(lp712
g56
(g77
g58
NtRp713
(dp714
g61
(dp715
g81
g82
ssg70
g709
sg63
(lp716
S'cmd_options'
p717
asbag56
(g77
g58
NtRp718
(dp719
g61
(dp720
g88
g89
ssg70
g709
sg63
(lp721
S':'
asbag56
(g77
g58
NtRp722
(dp723
g61
(dp724
sg70
g709
sg63
(lp725
g56
(g57
g58
NtRp726
(dp727
g61
(dp728
g69
I4
ssg70
g722
sg63
(lp729
S"<Values at 0xa77024c: {'verbose': False, 'ip': '127.0.0.1', 'shutdown_timeout': 5, 'taskbar': False, 'port': 8080, 'maxthreads': None, 'softcron': False, 'server_name': 'c74', 'bpython': False, 'nogui': False, 'nocron': False, 'extcron': False, 'debuglevel': 30, 'test': None, 'folder': '/home/jacobbl/SENG265/exercise2_jacob/codeAct_1.01/web2py', 'config': '', 'import_models': False, 'winservice': '', 'shell': None, 'run': '', 'log_filename': 'httpserver.log', 'args': [''], 'profiler_filename': None, 'ssl_private_key': '', 'password': 'password', 'request_queue_size': 5, 'ssl_certificate': '', 'cronjob': False, 'plain': False, 'quiet': False, 'interfaces': None, 'minthreads': None, 'timeout': 10, 'numthreads': None, 'pid_filename': 'httpserver.pid'}>"
p730
asbasbasbag56
(g72
g58
NtRp731
(dp732
g61
(dp733
sg70
g636
sg63
(lp734
g56
(g77
g58
NtRp735
(dp736
g61
(dp737
g81
g82
ssg70
g731
sg63
(lp738
S'db_sessions'
p739
asbag56
(g77
g58
NtRp740
(dp741
g61
(dp742
g88
g89
ssg70
g731
sg63
(lp743
S':'
asbag56
(g77
g58
NtRp744
(dp745
g61
(dp746
sg70
g731
sg63
(lp747
g56
(g57
g58
NtRp748
(dp749
g61
(dp750
g69
I4
ssg70
g744
sg63
(lp751
S'set([])'
p752
asbasbasbag56
(g72
g58
NtRp753
(dp754
g61
(dp755
sg70
g636
sg63
(lp756
g56
(g77
g58
NtRp757
(dp758
g61
(dp759
g81
g82
ssg70
g753
sg63
(lp760
S'debugging'
p761
asbag56
(g77
g58
NtRp762
(dp763
g61
(dp764
g88
g89
ssg70
g753
sg63
(lp765
S':'
asbag56
(g77
g58
NtRp766
(dp767
g61
(dp768
sg70
g753
sg63
(lp769
g56
(g57
g58
NtRp770
(dp771
g61
(dp772
g69
I4
ssg70
g766
sg63
(lp773
g99
asbasbasbag56
(g72
g58
NtRp774
(dp775
g61
(dp776
sg70
g636
sg63
(lp777
g56
(g77
g58
NtRp778
(dp779
g61
(dp780
g81
g82
ssg70
g774
sg63
(lp781
S'gluon_parent'
p782
asbag56
(g77
g58
NtRp783
(dp784
g61
(dp785
g88
g89
ssg70
g774
sg63
(lp786
S':'
asbag56
(g77
g58
NtRp787
(dp788
g61
(dp789
sg70
g774
sg63
(lp790
g56
(g57
g58
NtRp791
(dp792
g61
(dp793
g69
I4
ssg70
g787
sg63
(lp794
S'/home/jacobbl/SENG265/exercise2_jacob/codeAct_1.01/web2py'
p795
asbasbasbag56
(g72
g58
NtRp796
(dp797
g61
(dp798
sg70
g636
sg63
(lp799
g56
(g77
g58
NtRp800
(dp801
g61
(dp802
g81
g82
ssg70
g796
sg63
(lp803
S'http_accept'
p804
asbag56
(g77
g58
NtRp805
(dp806
g61
(dp807
g88
g89
ssg70
g796
sg63
(lp808
S':'
asbag56
(g77
g58
NtRp809
(dp810
g61
(dp811
sg70
g796
sg63
(lp812
g56
(g57
g58
NtRp813
(dp814
g61
(dp815
g69
I4
ssg70
g809
sg63
(lp816
S'text/html,application/xhtml+xml,application/xml;q=0.9,*/*;q=0.8'
p817
asbasbasbag56
(g72
g58
NtRp818
(dp819
g61
(dp820
sg70
g636
sg63
(lp821
g56
(g77
g58
NtRp822
(dp823
g61
(dp824
g81
g82
ssg70
g818
sg63
(lp825
S'http_accept_charset'
p826
asbag56
(g77
g58
NtRp827
(dp828
g61
(dp829
g88
g89
ssg70
g818
sg63
(lp830
S':'
asbag56
(g77
g58
NtRp831
(dp832
g61
(dp833
sg70
g818
sg63
(lp834
g56
(g57
g58
NtRp835
(dp836
g61
(dp837
g69
I4
ssg70
g831
sg63
(lp838
S'ISO-8859-1,utf-8;q=0.7,*;q=0.7'
p839
asbasbasbag56
(g72
g58
NtRp840
(dp841
g61
(dp842
sg70
g636
sg63
(lp843
g56
(g77
g58
NtRp844
(dp845
g61
(dp846
g81
g82
ssg70
g840
sg63
(lp847
S'http_accept_encoding'
p848
asbag56
(g77
g58
NtRp849
(dp850
g61
(dp851
g88
g89
ssg70
g840
sg63
(lp852
S':'
asbag56
(g77
g58
NtRp853
(dp854
g61
(dp855
sg70
g840
sg63
(lp856
g56
(g57
g58
NtRp857
(dp858
g61
(dp859
g69
I4
ssg70
g853
sg63
(lp860
S'gzip,deflate'
p861
asbasbasbag56
(g72
g58
NtRp862
(dp863
g61
(dp864
sg70
g636
sg63
(lp865
g56
(g77
g58
NtRp866
(dp867
g61
(dp868
g81
g82
ssg70
g862
sg63
(lp869
S'http_accept_language'
p870
asbag56
(g77
g58
NtRp871
(dp872
g61
(dp873
g88
g89
ssg70
g862
sg63
(lp874
S':'
asbag56
(g77
g58
NtRp875
(dp876
g61
(dp877
sg70
g862
sg63
(lp878
g56
(g57
g58
NtRp879
(dp880
g61
(dp881
g69
I4
ssg70
g875
sg63
(lp882
S'en-us,en;q=0.5'
p883
asbasbasbag56
(g72
g58
NtRp884
(dp885
g61
(dp886
sg70
g636
sg63
(lp887
g56
(g77
g58
NtRp888
(dp889
g61
(dp890
g81
g82
ssg70
g884
sg63
(lp891
S'http_cache_control'
p892
asbag56
(g77
g58
NtRp893
(dp894
g61
(dp895
g88
g89
ssg70
g884
sg63
(lp896
S':'
asbag56
(g77
g58
NtRp897
(dp898
g61
(dp899
sg70
g884
sg63
(lp900
g56
(g57
g58
NtRp901
(dp902
g61
(dp903
g69
I4
ssg70
g897
sg63
(lp904
S'max-age=0'
p905
asbasbasbag56
(g72
g58
NtRp906
(dp907
g61
(dp908
sg70
g636
sg63
(lp909
g56
(g77
g58
NtRp910
(dp911
g61
(dp912
g81
g82
ssg70
g906
sg63
(lp913
S'http_connection'
p914
asbag56
(g77
g58
NtRp915
(dp916
g61
(dp917
g88
g89
ssg70
g906
sg63
(lp918
S':'
asbag56
(g77
g58
NtRp919
(dp920
g61
(dp921
sg70
g906
sg63
(lp922
g56
(g57
g58
NtRp923
(dp924
g61
(dp925
g69
I4
ssg70
g919
sg63
(lp926
S'keep-alive'
p927
asbasbasbag56
(g72
g58
NtRp928
(dp929
g61
(dp930
sg70
g636
sg63
(lp931
g56
(g77
g58
NtRp932
(dp933
g61
(dp934
g81
g82
ssg70
g928
sg63
(lp935
S'http_cookie'
p936
asbag56
(g77
g58
NtRp937
(dp938
g61
(dp939
g88
g89
ssg70
g928
sg63
(lp940
S':'
asbag56
(g77
g58
NtRp941
(dp942
g61
(dp943
sg70
g928
sg63
(lp944
g56
(g57
g58
NtRp945
(dp946
g61
(dp947
g69
I4
ssg70
g941
sg63
(lp948
S'session_id_codeact=127.0.0.1-919396c9-dffc-4b6e-bb96-f08da977b37b; session_id_admin=127.0.0.1-0c624280-d14d-4aba-80fb-07b2a3de2477'
p949
asbasbasbag56
(g72
g58
NtRp950
(dp951
g61
(dp952
sg70
g636
sg63
(lp953
g56
(g77
g58
NtRp954
(dp955
g61
(dp956
g81
g82
ssg70
g950
sg63
(lp957
S'http_host'
p958
asbag56
(g77
g58
NtRp959
(dp960
g61
(dp961
g88
g89
ssg70
g950
sg63
(lp962
S':'
asbag56
(g77
g58
NtRp963
(dp964
g61
(dp965
sg70
g950
sg63
(lp966
g56
(g57
g58
NtRp967
(dp968
g61
(dp969
g69
I4
ssg70
g963
sg63
(lp970
S'localhost:8080'
p971
asbasbasbag56
(g72
g58
NtRp972
(dp973
g61
(dp974
sg70
g636
sg63
(lp975
g56
(g77
g58
NtRp976
(dp977
g61
(dp978
g81
g82
ssg70
g972
sg63
(lp979
S'http_keep_alive'
p980
asbag56
(g77
g58
NtRp981
(dp982
g61
(dp983
g88
g89
ssg70
g972
sg63
(lp984
S':'
asbag56
(g77
g58
NtRp985
(dp986
g61
(dp987
sg70
g972
sg63
(lp988
g56
(g57
g58
NtRp989
(dp990
g61
(dp991
g69
I4
ssg70
g985
sg63
(lp992
S'115'
p993
asbasbasbag56
(g72
g58
NtRp994
(dp995
g61
(dp996
sg70
g636
sg63
(lp997
g56
(g77
g58
NtRp998
(dp999
g61
(dp1000
g81
g82
ssg70
g994
sg63
(lp1001
S'http_referer'
p1002
asbag56
(g77
g58
NtRp1003
(dp1004
g61
(dp1005
g88
g89
ssg70
g994
sg63
(lp1006
S':'
asbag56
(g77
g58
NtRp1007
(dp1008
g61
(dp1009
sg70
g994
sg63
(lp1010
g56
(g57
g58
NtRp1011
(dp1012
g61
(dp1013
g69
I4
ssg70
g1007
sg63
(lp1014
S'http://localhost:8080/codeAct/ca_controller/quiz.html?nextq=Next&currqn=3'
p1015
asbasbasbag56
(g72
g58
NtRp1016
(dp1017
g61
(dp1018
sg70
g636
sg63
(lp1019
g56
(g77
g58
NtRp1020
(dp1021
g61
(dp1022
g81
g82
ssg70
g1016
sg63
(lp1023
S'http_user_agent'
p1024
asbag56
(g77
g58
NtRp1025
(dp1026
g61
(dp1027
g88
g89
ssg70
g1016
sg63
(lp1028
S':'
asbag56
(g77
g58
NtRp1029
(dp1030
g61
(dp1031
sg70
g1016
sg63
(lp1032
g56
(g57
g58
NtRp1033
(dp1034
g61
(dp1035
g69
I4
ssg70
g1029
sg63
(lp1036
S'Mozilla/5.0 (X11; U; Linux i686; en-US; rv:1.9.2.17) Gecko/20110422 Ubuntu/10.04 (lucid) Firefox/3.6.17'
p1037
asbasbasbag56
(g72
g58
NtRp1038
(dp1039
g61
(dp1040
sg70
g636
sg63
(lp1041
g56
(g77
g58
NtRp1042
(dp1043
g61
(dp1044
g81
g82
ssg70
g1038
sg63
(lp1045
S'path_info'
p1046
asbag56
(g77
g58
NtRp1047
(dp1048
g61
(dp1049
g88
g89
ssg70
g1038
sg63
(lp1050
S':'
asbag56
(g77
g58
NtRp1051
(dp1052
g61
(dp1053
sg70
g1038
sg63
(lp1054
g56
(g57
g58
NtRp1055
(dp1056
g61
(dp1057
g69
I4
ssg70
g1051
sg63
(lp1058
S'/codeAct/ca_controller/quiz.html'
p1059
asbasbasbag56
(g72
g58
NtRp1060
(dp1061
g61
(dp1062
sg70
g636
sg63
(lp1063
g56
(g77
g58
NtRp1064
(dp1065
g61
(dp1066
g81
g82
ssg70
g1060
sg63
(lp1067
S'query_string'
p1068
asbag56
(g77
g58
NtRp1069
(dp1070
g61
(dp1071
g88
g89
ssg70
g1060
sg63
(lp1072
S':'
asbag56
(g77
g58
NtRp1073
(dp1074
g61
(dp1075
sg70
g1060
sg63
(lp1076
g56
(g57
g58
NtRp1077
(dp1078
g61
(dp1079
g69
I4
ssg70
g1073
sg63
(lp1080
S'previousq=Previous&currqn=4'
p1081
asbasbasbag56
(g72
g58
NtRp1082
(dp1083
g61
(dp1084
sg70
g636
sg63
(lp1085
g56
(g77
g58
NtRp1086
(dp1087
g61
(dp1088
g81
g82
ssg70
g1082
sg63
(lp1089
S'remote_addr'
p1090
asbag56
(g77
g58
NtRp1091
(dp1092
g61
(dp1093
g88
g89
ssg70
g1082
sg63
(lp1094
S':'
asbag56
(g77
g58
NtRp1095
(dp1096
g61
(dp1097
sg70
g1082
sg63
(lp1098
g56
(g57
g58
NtRp1099
(dp1100
g61
(dp1101
g69
I4
ssg70
g1095
sg63
(lp1102
g189
asbasbasbag56
(g72
g58
NtRp1103
(dp1104
g61
(dp1105
sg70
g636
sg63
(lp1106
g56
(g77
g58
NtRp1107
(dp1108
g61
(dp1109
g81
g82
ssg70
g1103
sg63
(lp1110
S'remote_port'
p1111
asbag56
(g77
g58
NtRp1112
(dp1113
g61
(dp1114
g88
g89
ssg70
g1103
sg63
(lp1115
S':'
asbag56
(g77
g58
NtRp1116
(dp1117
g61
(dp1118
sg70
g1103
sg63
(lp1119
g56
(g57
g58
NtRp1120
(dp1121
g61
(dp1122
g69
I4
ssg70
g1116
sg63
(lp1123
S'44027'
p1124
asbasbasbag56
(g72
g58
NtRp1125
(dp1126
g61
(dp1127
sg70
g636
sg63
(lp1128
g56
(g77
g58
NtRp1129
(dp1130
g61
(dp1131
g81
g82
ssg70
g1125
sg63
(lp1132
S'request_method'
p1133
asbag56
(g77
g58
NtRp1134
(dp1135
g61
(dp1136
g88
g89
ssg70
g1125
sg63
(lp1137
S':'
asbag56
(g77
g58
NtRp1138
(dp1139
g61
(dp1140
sg70
g1125
sg63
(lp1141
g56
(g57
g58
NtRp1142
(dp1143
g61
(dp1144
g69
I4
ssg70
g1138
sg63
(lp1145
S'GET'
p1146
asbasbasbag56
(g72
g58
NtRp1147
(dp1148
g61
(dp1149
sg70
g636
sg63
(lp1150
g56
(g77
g58
NtRp1151
(dp1152
g61
(dp1153
g81
g82
ssg70
g1147
sg63
(lp1154
S'script_name'
p1155
asbag56
(g77
g58
NtRp1156
(dp1157
g61
(dp1158
g88
g89
ssg70
g1147
sg63
(lp1159
S':'
asbag56
(g77
g58
NtRp1160
(dp1161
g61
(dp1162
sg70
g1147
sg63
(lp1163
g56
(g57
g58
NtRp1164
(dp1165
g61
(dp1166
g69
I4
ssg70
g1160
sg63
(lp1167
S''
asbasbasbag56
(g72
g58
NtRp1168
(dp1169
g61
(dp1170
sg70
g636
sg63
(lp1171
g56
(g77
g58
NtRp1172
(dp1173
g61
(dp1174
g81
g82
ssg70
g1168
sg63
(lp1175
S'server_name'
p1176
asbag56
(g77
g58
NtRp1177
(dp1178
g61
(dp1179
g88
g89
ssg70
g1168
sg63
(lp1180
S':'
asbag56
(g77
g58
NtRp1181
(dp1182
g61
(dp1183
sg70
g1168
sg63
(lp1184
g56
(g57
g58
NtRp1185
(dp1186
g61
(dp1187
g69
I4
ssg70
g1181
sg63
(lp1188
S'c74'
p1189
asbasbasbag56
(g72
g58
NtRp1190
(dp1191
g61
(dp1192
sg70
g636
sg63
(lp1193
g56
(g77
g58
NtRp1194
(dp1195
g61
(dp1196
g81
g82
ssg70
g1190
sg63
(lp1197
S'server_port'
p1198
asbag56
(g77
g58
NtRp1199
(dp1200
g61
(dp1201
g88
g89
ssg70
g1190
sg63
(lp1202
S':'
asbag56
(g77
g58
NtRp1203
(dp1204
g61
(dp1205
sg70
g1190
sg63
(lp1206
g56
(g57
g58
NtRp1207
(dp1208
g61
(dp1209
g69
I4
ssg70
g1203
sg63
(lp1210
S'8080'
p1211
asbasbasbag56
(g72
g58
NtRp1212
(dp1213
g61
(dp1214
sg70
g636
sg63
(lp1215
g56
(g77
g58
NtRp1216
(dp1217
g61
(dp1218
g81
g82
ssg70
g1212
sg63
(lp1219
S'server_protocol'
p1220
asbag56
(g77
g58
NtRp1221
(dp1222
g61
(dp1223
g88
g89
ssg70
g1212
sg63
(lp1224
S':'
asbag56
(g77
g58
NtRp1225
(dp1226
g61
(dp1227
sg70
g1212
sg63
(lp1228
g56
(g57
g58
NtRp1229
(dp1230
g61
(dp1231
g69
I4
ssg70
g1225
sg63
(lp1232
S'HTTP/1.1'
p1233
asbasbasbag56
(g72
g58
NtRp1234
(dp1235
g61
(dp1236
sg70
g636
sg63
(lp1237
g56
(g77
g58
NtRp1238
(dp1239
g61
(dp1240
g81
g82
ssg70
g1234
sg63
(lp1241
S'server_software'
p1242
asbag56
(g77
g58
NtRp1243
(dp1244
g61
(dp1245
g88
g89
ssg70
g1234
sg63
(lp1246
S':'
asbag56
(g77
g58
NtRp1247
(dp1248
g61
(dp1249
sg70
g1234
sg63
(lp1250
g56
(g57
g58
NtRp1251
(dp1252
g61
(dp1253
g69
I4
ssg70
g1247
sg63
(lp1254
S'Rocket 1.2.2'
p1255
asbasbasbag56
(g72
g58
NtRp1256
(dp1257
g61
(dp1258
sg70
g636
sg63
(lp1259
g56
(g77
g58
NtRp1260
(dp1261
g61
(dp1262
g81
g82
ssg70
g1256
sg63
(lp1263
S'web2py_crontype'
p1264
asbag56
(g77
g58
NtRp1265
(dp1266
g61
(dp1267
g88
g89
ssg70
g1256
sg63
(lp1268
S':'
asbag56
(g77
g58
NtRp1269
(dp1270
g61
(dp1271
sg70
g1256
sg63
(lp1272
g56
(g57
g58
NtRp1273
(dp1274
g61
(dp1275
g69
I4
ssg70
g1269
sg63
(lp1276
S'hard'
p1277
asbasbasbag56
(g72
g58
NtRp1278
(dp1279
g61
(dp1280
sg70
g636
sg63
(lp1281
g56
(g77
g58
NtRp1282
(dp1283
g61
(dp1284
g81
g82
ssg70
g1278
sg63
(lp1285
S'web2py_path'
p1286
asbag56
(g77
g58
NtRp1287
(dp1288
g61
(dp1289
g88
g89
ssg70
g1278
sg63
(lp1290
S':'
asbag56
(g77
g58
NtRp1291
(dp1292
g61
(dp1293
sg70
g1278
sg63
(lp1294
g56
(g57
g58
NtRp1295
(dp1296
g61
(dp1297
g69
I4
ssg70
g1291
sg63
(lp1298
g683
asbasbasbag56
(g72
g58
NtRp1299
(dp1300
g61
(dp1301
sg70
g636
sg63
(lp1302
g56
(g77
g58
NtRp1303
(dp1304
g61
(dp1305
g81
g82
ssg70
g1299
sg63
(lp1306
S'web2py_version'
p1307
asbag56
(g77
g58
NtRp1308
(dp1309
g61
(dp1310
g88
g89
ssg70
g1299
sg63
(lp1311
S':'
asbag56
(g77
g58
NtRp1312
(dp1313
g61
(dp1314
sg70
g1299
sg63
(lp1315
g56
(g57
g58
NtRp1316
(dp1317
g61
(dp1318
g69
I4
ssg70
g1312
sg63
(lp1319
S'Version 1.95.1 (2011-04-25 15:04:14)\n'
p1320
asbasbasbag56
(g72
g58
NtRp1321
(dp1322
g61
(dp1323
sg70
g636
sg63
(lp1324
g56
(g77
g58
NtRp1325
(dp1326
g61
(dp1327
g81
g82
ssg70
g1321
sg63
(lp1328
S'wsgi_errors'
p1329
asbag56
(g77
g58
NtRp1330
(dp1331
g61
(dp1332
g88
g89
ssg70
g1321
sg63
(lp1333
S':'
asbag56
(g77
g58
NtRp1334
(dp1335
g61
(dp1336
sg70
g1321
sg63
(lp1337
g56
(g57
g58
NtRp1338
(dp1339
g61
(dp1340
g69
I4
ssg70
g1334
sg63
(lp1341
S"<open file '<stderr>', mode 'w' at 0xb784a0d0>"
p1342
asbasbasbag56
(g72
g58
NtRp1343
(dp1344
g61
(dp1345
sg70
g636
sg63
(lp1346
g56
(g77
g58
NtRp1347
(dp1348
g61
(dp1349
g81
g82
ssg70
g1343
sg63
(lp1350
S'wsgi_file_wrapper'
p1351
asbag56
(g77
g58
NtRp1352
(dp1353
g61
(dp1354
g88
g89
ssg70
g1343
sg63
(lp1355
S':'
asbag56
(g77
g58
NtRp1356
(dp1357
g61
(dp1358
sg70
g1343
sg63
(lp1359
g56
(g57
g58
NtRp1360
(dp1361
g61
(dp1362
g69
I4
ssg70
g1356
sg63
(lp1363
S'<class gluon.rocket.FileWrapper at 0xa73744c>'
p1364
asbasbasbag56
(g72
g58
NtRp1365
(dp1366
g61
(dp1367
sg70
g636
sg63
(lp1368
g56
(g77
g58
NtRp1369
(dp1370
g61
(dp1371
g81
g82
ssg70
g1365
sg63
(lp1372
S'wsgi_input'
p1373
asbag56
(g77
g58
NtRp1374
(dp1375
g61
(dp1376
g88
g89
ssg70
g1365
sg63
(lp1377
S':'
asbag56
(g77
g58
NtRp1378
(dp1379
g61
(dp1380
sg70
g1365
sg63
(lp1381
g56
(g57
g58
NtRp1382
(dp1383
g61
(dp1384
g69
I4
ssg70
g1378
sg63
(lp1385
S'<socket._fileobject object at 0xa846eac>'
p1386
asbasbasbag56
(g72
g58
NtRp1387
(dp1388
g61
(dp1389
sg70
g636
sg63
(lp1390
g56
(g77
g58
NtRp1391
(dp1392
g61
(dp1393
g81
g82
ssg70
g1387
sg63
(lp1394
S'wsgi_multiprocess'
p1395
asbag56
(g77
g58
NtRp1396
(dp1397
g61
(dp1398
g88
g89
ssg70
g1387
sg63
(lp1399
S':'
asbag56
(g77
g58
NtRp1400
(dp1401
g61
(dp1402
sg70
g1387
sg63
(lp1403
g56
(g57
g58
NtRp1404
(dp1405
g61
(dp1406
g69
I4
ssg70
g1400
sg63
(lp1407
g99
asbasbasbag56
(g72
g58
NtRp1408
(dp1409
g61
(dp1410
sg70
g636
sg63
(lp1411
g56
(g77
g58
NtRp1412
(dp1413
g61
(dp1414
g81
g82
ssg70
g1408
sg63
(lp1415
S'wsgi_multithread'
p1416
asbag56
(g77
g58
NtRp1417
(dp1418
g61
(dp1419
g88
g89
ssg70
g1408
sg63
(lp1420
S':'
asbag56
(g77
g58
NtRp1421
(dp1422
g61
(dp1423
sg70
g1408
sg63
(lp1424
g56
(g57
g58
NtRp1425
(dp1426
g61
(dp1427
g69
I4
ssg70
g1421
sg63
(lp1428
S'True'
p1429
asbasbasbag56
(g72
g58
NtRp1430
(dp1431
g61
(dp1432
sg70
g636
sg63
(lp1433
g56
(g77
g58
NtRp1434
(dp1435
g61
(dp1436
g81
g82
ssg70
g1430
sg63
(lp1437
S'wsgi_run_once'
p1438
asbag56
(g77
g58
NtRp1439
(dp1440
g61
(dp1441
g88
g89
ssg70
g1430
sg63
(lp1442
S':'
asbag56
(g77
g58
NtRp1443
(dp1444
g61
(dp1445
sg70
g1430
sg63
(lp1446
g56
(g57
g58
NtRp1447
(dp1448
g61
(dp1449
g69
I4
ssg70
g1443
sg63
(lp1450
g99
asbasbasbag56
(g72
g58
NtRp1451
(dp1452
g61
(dp1453
sg70
g636
sg63
(lp1454
g56
(g77
g58
NtRp1455
(dp1456
g61
(dp1457
g81
g82
ssg70
g1451
sg63
(lp1458
S'wsgi_url_scheme'
p1459
asbag56
(g77
g58
NtRp1460
(dp1461
g61
(dp1462
g88
g89
ssg70
g1451
sg63
(lp1463
S':'
asbag56
(g77
g58
NtRp1464
(dp1465
g61
(dp1466
sg70
g1451
sg63
(lp1467
g56
(g57
g58
NtRp1468
(dp1469
g61
(dp1470
g69
I4
ssg70
g1464
sg63
(lp1471
S'http'
p1472
asbasbasbag56
(g72
g58
NtRp1473
(dp1474
g61
(dp1475
sg70
g636
sg63
(lp1476
g56
(g77
g58
NtRp1477
(dp1478
g61
(dp1479
g81
g82
ssg70
g1473
sg63
(lp1480
S'wsgi_version'
p1481
asbag56
(g77
g58
NtRp1482
(dp1483
g61
(dp1484
g88
g89
ssg70
g1473
sg63
(lp1485
S':'
asbag56
(g77
g58
NtRp1486
(dp1487
g61
(dp1488
sg70
g1473
sg63
(lp1489
g56
(g57
g58
NtRp1490
(dp1491
g61
(dp1492
g69
I4
ssg70
g1486
sg63
(lp1493
g56
(g65
g58
NtRp1494
(dp1495
g61
(dp1496
g69
I3
ssg70
Nsg63
(lp1497
g56
(g72
g58
NtRp1498
(dp1499
g61
(dp1500
sg70
g1494
sg63
(lp1501
g56
(g77
g58
NtRp1502
(dp1503
g61
(dp1504
sg70
g1498
sg63
(lp1505
g56
(g57
g58
NtRp1506
(dp1507
g61
(dp1508
g69
I3
ssg70
g1502
sg63
(lp1509
S'1'
asbasbasbag56
(g72
g58
NtRp1510
(dp1511
g61
(dp1512
sg70
g1494
sg63
(lp1513
g56
(g77
g58
NtRp1514
(dp1515
g61
(dp1516
sg70
g1510
sg63
(lp1517
g56
(g57
g58
NtRp1518
(dp1519
g61
(dp1520
g69
I3
ssg70
g1514
sg63
(lp1521
S'0'
asbasbasbasbasbasbasbasbasbasbasbag56
(g72
g58
NtRp1522
(dp1523
g61
(dp1524
sg70
g66
sg63
(lp1525
g56
(g77
g58
NtRp1526
(dp1527
g61
(dp1528
g81
g82
ssg70
g1522
sg63
(lp1529
S'extension'
p1530
asbag56
(g77
g58
NtRp1531
(dp1532
g61
(dp1533
g88
g89
ssg70
g1522
sg63
(lp1534
S':'
asbag56
(g77
g58
NtRp1535
(dp1536
g61
(dp1537
sg70
g1522
sg63
(lp1538
g56
(g57
g58
NtRp1539
(dp1540
g61
(dp1541
g69
I5
ssg70
g1535
sg63
(lp1542
S'html'
p1543
asbasbasbag56
(g72
g58
NtRp1544
(dp1545
g61
(dp1546
sg70
g66
sg63
(lp1547
g56
(g77
g58
NtRp1548
(dp1549
g61
(dp1550
g81
g82
ssg70
g1544
sg63
(lp1551
S'folder'
p1552
asbag56
(g77
g58
NtRp1553
(dp1554
g61
(dp1555
g88
g89
ssg70
g1544
sg63
(lp1556
S':'
asbag56
(g77
g58
NtRp1557
(dp1558
g61
(dp1559
sg70
g1544
sg63
(lp1560
g56
(g57
g58
NtRp1561
(dp1562
g61
(dp1563
g69
I5
ssg70
g1557
sg63
(lp1564
S'/home/jacobbl/SENG265/exercise2_jacob/codeAct_1.01/web2py/applications/codeAct/'
p1565
asbasbasbag56
(g72
g58
NtRp1566
(dp1567
g61
(dp1568
sg70
g66
sg63
(lp1569
g56
(g77
g58
NtRp1570
(dp1571
g61
(dp1572
g81
g82
ssg70
g1566
sg63
(lp1573
S'function'
p1574
asbag56
(g77
g58
NtRp1575
(dp1576
g61
(dp1577
g88
g89
ssg70
g1566
sg63
(lp1578
S':'
asbag56
(g77
g58
NtRp1579
(dp1580
g61
(dp1581
sg70
g1566
sg63
(lp1582
g56
(g57
g58
NtRp1583
(dp1584
g61
(dp1585
g69
I5
ssg70
g1579
sg63
(lp1586
S'quiz'
p1587
asbasbasbag56
(g72
g58
NtRp1588
(dp1589
g61
(dp1590
sg70
g66
sg63
(lp1591
g56
(g77
g58
NtRp1592
(dp1593
g61
(dp1594
g81
g82
ssg70
g1588
sg63
(lp1595
S'get_vars'
p1596
asbag56
(g77
g58
NtRp1597
(dp1598
g61
(dp1599
g88
g89
ssg70
g1588
sg63
(lp1600
S':'
asbag56
(g77
g58
NtRp1601
(dp1602
g61
(dp1603
sg70
g1588
sg63
(lp1604
g56
(g57
g58
NtRp1605
(dp1606
g61
(dp1607
g69
I5
ssg70
g1601
sg63
(lp1608
g56
(g65
g58
NtRp1609
(dp1610
g61
(dp1611
g69
I4
ssg70
Nsg63
(lp1612
g56
(g72
g58
NtRp1613
(dp1614
g61
(dp1615
sg70
g1609
sg63
(lp1616
g56
(g77
g58
NtRp1617
(dp1618
g61
(dp1619
g81
g82
ssg70
g1613
sg63
(lp1620
S'currqn'
p1621
asbag56
(g77
g58
NtRp1622
(dp1623
g61
(dp1624
g88
g89
ssg70
g1613
sg63
(lp1625
S':'
asbag56
(g77
g58
NtRp1626
(dp1627
g61
(dp1628
sg70
g1613
sg63
(lp1629
g56
(g57
g58
NtRp1630
(dp1631
g61
(dp1632
g69
I4
ssg70
g1626
sg63
(lp1633
S'4'
asbasbasbag56
(g72
g58
NtRp1634
(dp1635
g61
(dp1636
sg70
g1609
sg63
(lp1637
g56
(g77
g58
NtRp1638
(dp1639
g61
(dp1640
g81
g82
ssg70
g1634
sg63
(lp1641
S'previousq'
p1642
asbag56
(g77
g58
NtRp1643
(dp1644
g61
(dp1645
g88
g89
ssg70
g1634
sg63
(lp1646
S':'
asbag56
(g77
g58
NtRp1647
(dp1648
g61
(dp1649
sg70
g1634
sg63
(lp1650
g56
(g57
g58
NtRp1651
(dp1652
g61
(dp1653
g69
I4
ssg70
g1647
sg63
(lp1654
S'Previous'
p1655
asbasbasbasbasbasbasbag56
(g72
g58
NtRp1656
(dp1657
g61
(dp1658
sg70
g66
sg63
(lp1659
g56
(g77
g58
NtRp1660
(dp1661
g61
(dp1662
g81
g82
ssg70
g1656
sg63
(lp1663
S'is_restful'
p1664
asbag56
(g77
g58
NtRp1665
(dp1666
g61
(dp1667
g88
g89
ssg70
g1656
sg63
(lp1668
S':'
asbag56
(g77
g58
NtRp1669
(dp1670
g61
(dp1671
sg70
g1656
sg63
(lp1672
g56
(g57
g58
NtRp1673
(dp1674
g61
(dp1675
g69
I5
ssg70
g1669
sg63
(lp1676
g99
asbasbasbag56
(g72
g58
NtRp1677
(dp1678
g61
(dp1679
sg70
g66
sg63
(lp1680
g56
(g77
g58
NtRp1681
(dp1682
g61
(dp1683
g81
g82
ssg70
g1677
sg63
(lp1684
S'now'
p1685
asbag56
(g77
g58
NtRp1686
(dp1687
g61
(dp1688
g88
g89
ssg70
g1677
sg63
(lp1689
S':'
asbag56
(g77
g58
NtRp1690
(dp1691
g61
(dp1692
sg70
g1677
sg63
(lp1693
g56
(g57
g58
NtRp1694
(dp1695
g61
(dp1696
g69
I5
ssg70
g1690
sg63
(lp1697
S'datetime.datetime(2011, 7, 2, 16, 4, 28, 167583)'
p1698
asbasbasbag56
(g72
g58
NtRp1699
(dp1700
g61
(dp1701
sg70
g66
sg63
(lp1702
g56
(g77
g58
NtRp1703
(dp1704
g61
(dp1705
g81
g82
ssg70
g1699
sg63
(lp1706
S'post_vars'
p1707
asbag56
(g77
g58
NtRp1708
(dp1709
g61
(dp1710
g88
g89
ssg70
g1699
sg63
(lp1711
S':'
asbag56
(g77
g58
NtRp1712
(dp1713
g61
(dp1714
sg70
g1699
sg63
(lp1715
g56
(g57
g58
NtRp1716
(dp1717
g61
(dp1718
g69
I5
ssg70
g1712
sg63
(lp1719
g56
(g65
g58
NtRp1720
(dp1721
g61
(dp1722
g69
I4
ssg70
Nsg63
(lp1723
sbasbasbasbag56
(g72
g58
NtRp1724
(dp1725
g61
(dp1726
sg70
g66
sg63
(lp1727
g56
(g77
g58
NtRp1728
(dp1729
g61
(dp1730
g81
g82
ssg70
g1724
sg63
(lp1731
S'raw_extension'
p1732
asbag56
(g77
g58
NtRp1733
(dp1734
g61
(dp1735
g88
g89
ssg70
g1724
sg63
(lp1736
S':'
asbag56
(g77
g58
NtRp1737
(dp1738
g61
(dp1739
sg70
g1724
sg63
(lp1740
g56
(g57
g58
NtRp1741
(dp1742
g61
(dp1743
g69
I5
ssg70
g1737
sg63
(lp1744
g1543
asbasbasbag56
(g72
g58
NtRp1745
(dp1746
g61
(dp1747
sg70
g66
sg63
(lp1748
g56
(g77
g58
NtRp1749
(dp1750
g61
(dp1751
g81
g82
ssg70
g1745
sg63
(lp1752
S'url'
p1753
asbag56
(g77
g58
NtRp1754
(dp1755
g61
(dp1756
g88
g89
ssg70
g1745
sg63
(lp1757
S':'
asbag56
(g77
g58
NtRp1758
(dp1759
g61
(dp1760
sg70
g1745
sg63
(lp1761
g56
(g57
g58
NtRp1762
(dp1763
g61
(dp1764
g69
I5
ssg70
g1758
sg63
(lp1765
S'/codeAct/ca_controller/quiz.html'
p1766
asbasbasbag56
(g72
g58
NtRp1767
(dp1768
g61
(dp1769
sg70
g66
sg63
(lp1770
g56
(g77
g58
NtRp1771
(dp1772
g61
(dp1773
g81
g82
ssg70
g1767
sg63
(lp1774
S'uuid'
p1775
asbag56
(g77
g58
NtRp1776
(dp1777
g61
(dp1778
g88
g89
ssg70
g1767
sg63
(lp1779
S':'
asbag56
(g77
g58
NtRp1780
(dp1781
g61
(dp1782
sg70
g1767
sg63
(lp1783
g56
(g57
g58
NtRp1784
(dp1785
g61
(dp1786
g69
I5
ssg70
g1780
sg63
(lp1787
S'codeAct/127.0.0.1.2011-07-02.16-04-28.17c8db7b-ba49-4c0a-874a-9f2ef698b3a5'
p1788
asbasbasbag56
(g72
g58
NtRp1789
(dp1790
g61
(dp1791
sg70
g66
sg63
(lp1792
g56
(g77
g58
NtRp1793
(dp1794
g61
(dp1795
g81
g82
ssg70
g1789
sg63
(lp1796
S'vars'
p1797
asbag56
(g77
g58
NtRp1798
(dp1799
g61
(dp1800
g88
g89
ssg70
g1789
sg63
(lp1801
S':'
asbag56
(g77
g58
NtRp1802
(dp1803
g61
(dp1804
sg70
g1789
sg63
(lp1805
g56
(g57
g58
NtRp1806
(dp1807
g61
(dp1808
g69
I5
ssg70
g1802
sg63
(lp1809
g56
(g65
g58
NtRp1810
(dp1811
g61
(dp1812
g69
I4
ssg70
Nsg63
(lp1813
g56
(g72
g58
NtRp1814
(dp1815
g61
(dp1816
sg70
g1810
sg63
(lp1817
g56
(g77
g58
NtRp1818
(dp1819
g61
(dp1820
g81
g82
ssg70
g1814
sg63
(lp1821
g1621
asbag56
(g77
g58
NtRp1822
(dp1823
g61
(dp1824
g88
g89
ssg70
g1814
sg63
(lp1825
S':'
asbag56
(g77
g58
NtRp1826
(dp1827
g61
(dp1828
sg70
g1814
sg63
(lp1829
g56
(g57
g58
NtRp1830
(dp1831
g61
(dp1832
g69
I4
ssg70
g1826
sg63
(lp1833
S'4'
asbasbasbag56
(g72
g58
NtRp1834
(dp1835
g61
(dp1836
sg70
g1810
sg63
(lp1837
g56
(g77
g58
NtRp1838
(dp1839
g61
(dp1840
g81
g82
ssg70
g1834
sg63
(lp1841
g1642
asbag56
(g77
g58
NtRp1842
(dp1843
g61
(dp1844
g88
g89
ssg70
g1834
sg63
(lp1845
S':'
asbag56
(g77
g58
NtRp1846
(dp1847
g61
(dp1848
sg70
g1834
sg63
(lp1849
g56
(g57
g58
NtRp1850
(dp1851
g61
(dp1852
g69
I4
ssg70
g1846
sg63
(lp1853
g1655
asbasbasbasbasbasbasbag56
(g72
g58
NtRp1854
(dp1855
g61
(dp1856
sg70
g66
sg63
(lp1857
g56
(g77
g58
NtRp1858
(dp1859
g61
(dp1860
g81
g82
ssg70
g1854
sg63
(lp1861
S'wsgi'
p1862
asbag56
(g77
g58
NtRp1863
(dp1864
g61
(dp1865
g88
g89
ssg70
g1854
sg63
(lp1866
S':'
asbag56
(g77
g58
NtRp1867
(dp1868
g61
(dp1869
sg70
g1854
sg63
(lp1870
g56
(g57
g58
NtRp1871
(dp1872
g61
(dp1873
g69
I5
ssg70
g1867
sg63
(lp1874
g56
(g65
g58
NtRp1875
(dp1876
g61
(dp1877
g69
I4
ssg70
Nsg63
(lp1878
g56
(g72
g58
NtRp1879
(dp1880
g61
(dp1881
sg70
g1875
sg63
(lp1882
g56
(g77
g58
NtRp1883
(dp1884
g61
(dp1885
g81
g82
ssg70
g1879
sg63
(lp1886
S'environ'
p1887
asbag56
(g77
g58
NtRp1888
(dp1889
g61
(dp1890
g88
g89
ssg70
g1879
sg63
(lp1891
S':'
asbag56
(g77
g58
NtRp1892
(dp1893
g61
(dp1894
sg70
g1879
sg63
(lp1895
g56
(g57
g58
NtRp1896
(dp1897
g61
(dp1898
g69
I4
ssg70
g1892
sg63
(lp1899
g56
(g65
g58
NtRp1900
(dp1901
g61
(dp1902
g69
I3
ssg70
Nsg63
(lp1903
g56
(g72
g58
NtRp1904
(dp1905
g61
(dp1906
sg70
g1900
sg63
(lp1907
g56
(g77
g58
NtRp1908
(dp1909
g61
(dp1910
g81
g82
ssg70
g1904
sg63
(lp1911
S'HTTP_ACCEPT'
p1912
asbag56
(g77
g58
NtRp1913
(dp1914
g61
(dp1915
g88
g89
ssg70
g1904
sg63
(lp1916
S':'
asbag56
(g77
g58
NtRp1917
(dp1918
g61
(dp1919
sg70
g1904
sg63
(lp1920
g56
(g57
g58
NtRp1921
(dp1922
g61
(dp1923
g69
I3
ssg70
g1917
sg63
(lp1924
g817
asbasbasbag56
(g72
g58
NtRp1925
(dp1926
g61
(dp1927
sg70
g1900
sg63
(lp1928
g56
(g77
g58
NtRp1929
(dp1930
g61
(dp1931
g81
g82
ssg70
g1925
sg63
(lp1932
S'HTTP_ACCEPT_CHARSET'
p1933
asbag56
(g77
g58
NtRp1934
(dp1935
g61
(dp1936
g88
g89
ssg70
g1925
sg63
(lp1937
S':'
asbag56
(g77
g58
NtRp1938
(dp1939
g61
(dp1940
sg70
g1925
sg63
(lp1941
g56
(g57
g58
NtRp1942
(dp1943
g61
(dp1944
g69
I3
ssg70
g1938
sg63
(lp1945
g839
asbasbasbag56
(g72
g58
NtRp1946
(dp1947
g61
(dp1948
sg70
g1900
sg63
(lp1949
g56
(g77
g58
NtRp1950
(dp1951
g61
(dp1952
g81
g82
ssg70
g1946
sg63
(lp1953
S'HTTP_ACCEPT_ENCODING'
p1954
asbag56
(g77
g58
NtRp1955
(dp1956
g61
(dp1957
g88
g89
ssg70
g1946
sg63
(lp1958
S':'
asbag56
(g77
g58
NtRp1959
(dp1960
g61
(dp1961
sg70
g1946
sg63
(lp1962
g56
(g57
g58
NtRp1963
(dp1964
g61
(dp1965
g69
I3
ssg70
g1959
sg63
(lp1966
g861
asbasbasbag56
(g72
g58
NtRp1967
(dp1968
g61
(dp1969
sg70
g1900
sg63
(lp1970
g56
(g77
g58
NtRp1971
(dp1972
g61
(dp1973
g81
g82
ssg70
g1967
sg63
(lp1974
S'HTTP_ACCEPT_LANGUAGE'
p1975
asbag56
(g77
g58
NtRp1976
(dp1977
g61
(dp1978
g88
g89
ssg70
g1967
sg63
(lp1979
S':'
asbag56
(g77
g58
NtRp1980
(dp1981
g61
(dp1982
sg70
g1967
sg63
(lp1983
g56
(g57
g58
NtRp1984
(dp1985
g61
(dp1986
g69
I3
ssg70
g1980
sg63
(lp1987
g883
asbasbasbag56
(g72
g58
NtRp1988
(dp1989
g61
(dp1990
sg70
g1900
sg63
(lp1991
g56
(g77
g58
NtRp1992
(dp1993
g61
(dp1994
g81
g82
ssg70
g1988
sg63
(lp1995
S'HTTP_CACHE_CONTROL'
p1996
asbag56
(g77
g58
NtRp1997
(dp1998
g61
(dp1999
g88
g89
ssg70
g1988
sg63
(lp2000
S':'
asbag56
(g77
g58
NtRp2001
(dp2002
g61
(dp2003
sg70
g1988
sg63
(lp2004
g56
(g57
g58
NtRp2005
(dp2006
g61
(dp2007
g69
I3
ssg70
g2001
sg63
(lp2008
g905
asbasbasbag56
(g72
g58
NtRp2009
(dp2010
g61
(dp2011
sg70
g1900
sg63
(lp2012
g56
(g77
g58
NtRp2013
(dp2014
g61
(dp2015
g81
g82
ssg70
g2009
sg63
(lp2016
S'HTTP_CONNECTION'
p2017
asbag56
(g77
g58
NtRp2018
(dp2019
g61
(dp2020
g88
g89
ssg70
g2009
sg63
(lp2021
S':'
asbag56
(g77
g58
NtRp2022
(dp2023
g61
(dp2024
sg70
g2009
sg63
(lp2025
g56
(g57
g58
NtRp2026
(dp2027
g61
(dp2028
g69
I3
ssg70
g2022
sg63
(lp2029
g927
asbasbasbag56
(g72
g58
NtRp2030
(dp2031
g61
(dp2032
sg70
g1900
sg63
(lp2033
g56
(g77
g58
NtRp2034
(dp2035
g61
(dp2036
g81
g82
ssg70
g2030
sg63
(lp2037
S'HTTP_COOKIE'
p2038
asbag56
(g77
g58
NtRp2039
(dp2040
g61
(dp2041
g88
g89
ssg70
g2030
sg63
(lp2042
S':'
asbag56
(g77
g58
NtRp2043
(dp2044
g61
(dp2045
sg70
g2030
sg63
(lp2046
g56
(g57
g58
NtRp2047
(dp2048
g61
(dp2049
g69
I3
ssg70
g2043
sg63
(lp2050
g949
asbasbasbag56
(g72
g58
NtRp2051
(dp2052
g61
(dp2053
sg70
g1900
sg63
(lp2054
g56
(g77
g58
NtRp2055
(dp2056
g61
(dp2057
g81
g82
ssg70
g2051
sg63
(lp2058
S'HTTP_HOST'
p2059
asbag56
(g77
g58
NtRp2060
(dp2061
g61
(dp2062
g88
g89
ssg70
g2051
sg63
(lp2063
S':'
asbag56
(g77
g58
NtRp2064
(dp2065
g61
(dp2066
sg70
g2051
sg63
(lp2067
g56
(g57
g58
NtRp2068
(dp2069
g61
(dp2070
g69
I3
ssg70
g2064
sg63
(lp2071
g971
asbasbasbag56
(g72
g58
NtRp2072
(dp2073
g61
(dp2074
sg70
g1900
sg63
(lp2075
g56
(g77
g58
NtRp2076
(dp2077
g61
(dp2078
g81
g82
ssg70
g2072
sg63
(lp2079
S'HTTP_KEEP_ALIVE'
p2080
asbag56
(g77
g58
NtRp2081
(dp2082
g61
(dp2083
g88
g89
ssg70
g2072
sg63
(lp2084
S':'
asbag56
(g77
g58
NtRp2085
(dp2086
g61
(dp2087
sg70
g2072
sg63
(lp2088
g56
(g57
g58
NtRp2089
(dp2090
g61
(dp2091
g69
I3
ssg70
g2085
sg63
(lp2092
g993
asbasbasbag56
(g72
g58
NtRp2093
(dp2094
g61
(dp2095
sg70
g1900
sg63
(lp2096
g56
(g77
g58
NtRp2097
(dp2098
g61
(dp2099
g81
g82
ssg70
g2093
sg63
(lp2100
S'HTTP_REFERER'
p2101
asbag56
(g77
g58
NtRp2102
(dp2103
g61
(dp2104
g88
g89
ssg70
g2093
sg63
(lp2105
S':'
asbag56
(g77
g58
NtRp2106
(dp2107
g61
(dp2108
sg70
g2093
sg63
(lp2109
g56
(g57
g58
NtRp2110
(dp2111
g61
(dp2112
g69
I3
ssg70
g2106
sg63
(lp2113
g1015
asbasbasbag56
(g72
g58
NtRp2114
(dp2115
g61
(dp2116
sg70
g1900
sg63
(lp2117
g56
(g77
g58
NtRp2118
(dp2119
g61
(dp2120
g81
g82
ssg70
g2114
sg63
(lp2121
S'HTTP_USER_AGENT'
p2122
asbag56
(g77
g58
NtRp2123
(dp2124
g61
(dp2125
g88
g89
ssg70
g2114
sg63
(lp2126
S':'
asbag56
(g77
g58
NtRp2127
(dp2128
g61
(dp2129
sg70
g2114
sg63
(lp2130
g56
(g57
g58
NtRp2131
(dp2132
g61
(dp2133
g69
I3
ssg70
g2127
sg63
(lp2134
g1037
asbasbasbag56
(g72
g58
NtRp2135
(dp2136
g61
(dp2137
sg70
g1900
sg63
(lp2138
g56
(g77
g58
NtRp2139
(dp2140
g61
(dp2141
g81
g82
ssg70
g2135
sg63
(lp2142
S'PATH_INFO'
p2143
asbag56
(g77
g58
NtRp2144
(dp2145
g61
(dp2146
g88
g89
ssg70
g2135
sg63
(lp2147
S':'
asbag56
(g77
g58
NtRp2148
(dp2149
g61
(dp2150
sg70
g2135
sg63
(lp2151
g56
(g57
g58
NtRp2152
(dp2153
g61
(dp2154
g69
I3
ssg70
g2148
sg63
(lp2155
g1059
asbasbasbag56
(g72
g58
NtRp2156
(dp2157
g61
(dp2158
sg70
g1900
sg63
(lp2159
g56
(g77
g58
NtRp2160
(dp2161
g61
(dp2162
g81
g82
ssg70
g2156
sg63
(lp2163
S'QUERY_STRING'
p2164
asbag56
(g77
g58
NtRp2165
(dp2166
g61
(dp2167
g88
g89
ssg70
g2156
sg63
(lp2168
S':'
asbag56
(g77
g58
NtRp2169
(dp2170
g61
(dp2171
sg70
g2156
sg63
(lp2172
g56
(g57
g58
NtRp2173
(dp2174
g61
(dp2175
g69
I3
ssg70
g2169
sg63
(lp2176
g1081
asbasbasbag56
(g72
g58
NtRp2177
(dp2178
g61
(dp2179
sg70
g1900
sg63
(lp2180
g56
(g77
g58
NtRp2181
(dp2182
g61
(dp2183
g81
g82
ssg70
g2177
sg63
(lp2184
S'REMOTE_ADDR'
p2185
asbag56
(g77
g58
NtRp2186
(dp2187
g61
(dp2188
g88
g89
ssg70
g2177
sg63
(lp2189
S':'
asbag56
(g77
g58
NtRp2190
(dp2191
g61
(dp2192
sg70
g2177
sg63
(lp2193
g56
(g57
g58
NtRp2194
(dp2195
g61
(dp2196
g69
I3
ssg70
g2190
sg63
(lp2197
g189
asbasbasbag56
(g72
g58
NtRp2198
(dp2199
g61
(dp2200
sg70
g1900
sg63
(lp2201
g56
(g77
g58
NtRp2202
(dp2203
g61
(dp2204
g81
g82
ssg70
g2198
sg63
(lp2205
S'REMOTE_PORT'
p2206
asbag56
(g77
g58
NtRp2207
(dp2208
g61
(dp2209
g88
g89
ssg70
g2198
sg63
(lp2210
S':'
asbag56
(g77
g58
NtRp2211
(dp2212
g61
(dp2213
sg70
g2198
sg63
(lp2214
g56
(g57
g58
NtRp2215
(dp2216
g61
(dp2217
g69
I3
ssg70
g2211
sg63
(lp2218
g1124
asbasbasbag56
(g72
g58
NtRp2219
(dp2220
g61
(dp2221
sg70
g1900
sg63
(lp2222
g56
(g77
g58
NtRp2223
(dp2224
g61
(dp2225
g81
g82
ssg70
g2219
sg63
(lp2226
S'REQUEST_METHOD'
p2227
asbag56
(g77
g58
NtRp2228
(dp2229
g61
(dp2230
g88
g89
ssg70
g2219
sg63
(lp2231
S':'
asbag56
(g77
g58
NtRp2232
(dp2233
g61
(dp2234
sg70
g2219
sg63
(lp2235
g56
(g57
g58
NtRp2236
(dp2237
g61
(dp2238
g69
I3
ssg70
g2232
sg63
(lp2239
g1146
asbasbasbag56
(g72
g58
NtRp2240
(dp2241
g61
(dp2242
sg70
g1900
sg63
(lp2243
g56
(g77
g58
NtRp2244
(dp2245
g61
(dp2246
g81
g82
ssg70
g2240
sg63
(lp2247
S'SCRIPT_NAME'
p2248
asbag56
(g77
g58
NtRp2249
(dp2250
g61
(dp2251
g88
g89
ssg70
g2240
sg63
(lp2252
S':'
asbag56
(g77
g58
NtRp2253
(dp2254
g61
(dp2255
sg70
g2240
sg63
(lp2256
g56
(g57
g58
NtRp2257
(dp2258
g61
(dp2259
g69
I3
ssg70
g2253
sg63
(lp2260
S''
asbasbasbag56
(g72
g58
NtRp2261
(dp2262
g61
(dp2263
sg70
g1900
sg63
(lp2264
g56
(g77
g58
NtRp2265
(dp2266
g61
(dp2267
g81
g82
ssg70
g2261
sg63
(lp2268
S'SERVER_NAME'
p2269
asbag56
(g77
g58
NtRp2270
(dp2271
g61
(dp2272
g88
g89
ssg70
g2261
sg63
(lp2273
S':'
asbag56
(g77
g58
NtRp2274
(dp2275
g61
(dp2276
sg70
g2261
sg63
(lp2277
g56
(g57
g58
NtRp2278
(dp2279
g61
(dp2280
g69
I3
ssg70
g2274
sg63
(lp2281
g1189
asbasbasbag56
(g72
g58
NtRp2282
(dp2283
g61
(dp2284
sg70
g1900
sg63
(lp2285
g56
(g77
g58
NtRp2286
(dp2287
g61
(dp2288
g81
g82
ssg70
g2282
sg63
(lp2289
S'SERVER_PORT'
p2290
asbag56
(g77
g58
NtRp2291
(dp2292
g61
(dp2293
g88
g89
ssg70
g2282
sg63
(lp2294
S':'
asbag56
(g77
g58
NtRp2295
(dp2296
g61
(dp2297
sg70
g2282
sg63
(lp2298
g56
(g57
g58
NtRp2299
(dp2300
g61
(dp2301
g69
I3
ssg70
g2295
sg63
(lp2302
g1211
asbasbasbag56
(g72
g58
NtRp2303
(dp2304
g61
(dp2305
sg70
g1900
sg63
(lp2306
g56
(g77
g58
NtRp2307
(dp2308
g61
(dp2309
g81
g82
ssg70
g2303
sg63
(lp2310
S'SERVER_PROTOCOL'
p2311
asbag56
(g77
g58
NtRp2312
(dp2313
g61
(dp2314
g88
g89
ssg70
g2303
sg63
(lp2315
S':'
asbag56
(g77
g58
NtRp2316
(dp2317
g61
(dp2318
sg70
g2303
sg63
(lp2319
g56
(g57
g58
NtRp2320
(dp2321
g61
(dp2322
g69
I3
ssg70
g2316
sg63
(lp2323
g1233
asbasbasbag56
(g72
g58
NtRp2324
(dp2325
g61
(dp2326
sg70
g1900
sg63
(lp2327
g56
(g77
g58
NtRp2328
(dp2329
g61
(dp2330
g81
g82
ssg70
g2324
sg63
(lp2331
S'SERVER_SOFTWARE'
p2332
asbag56
(g77
g58
NtRp2333
(dp2334
g61
(dp2335
g88
g89
ssg70
g2324
sg63
(lp2336
S':'
asbag56
(g77
g58
NtRp2337
(dp2338
g61
(dp2339
sg70
g2324
sg63
(lp2340
g56
(g57
g58
NtRp2341
(dp2342
g61
(dp2343
g69
I3
ssg70
g2337
sg63
(lp2344
g1255
asbasbasbag56
(g72
g58
NtRp2345
(dp2346
g61
(dp2347
sg70
g1900
sg63
(lp2348
g56
(g77
g58
NtRp2349
(dp2350
g61
(dp2351
g81
g82
ssg70
g2345
sg63
(lp2352
S'wsgi.errors'
p2353
asbag56
(g77
g58
NtRp2354
(dp2355
g61
(dp2356
g88
g89
ssg70
g2345
sg63
(lp2357
S':'
asbag56
(g77
g58
NtRp2358
(dp2359
g61
(dp2360
sg70
g2345
sg63
(lp2361
g56
(g57
g58
NtRp2362
(dp2363
g61
(dp2364
g69
I3
ssg70
g2358
sg63
(lp2365
S"<open file '<stderr>', mode 'w' at 0xb784a0d0>"
p2366
asbasbasbag56
(g72
g58
NtRp2367
(dp2368
g61
(dp2369
sg70
g1900
sg63
(lp2370
g56
(g77
g58
NtRp2371
(dp2372
g61
(dp2373
g81
g82
ssg70
g2367
sg63
(lp2374
S'wsgi.file_wrapper'
p2375
asbag56
(g77
g58
NtRp2376
(dp2377
g61
(dp2378
g88
g89
ssg70
g2367
sg63
(lp2379
S':'
asbag56
(g77
g58
NtRp2380
(dp2381
g61
(dp2382
sg70
g2367
sg63
(lp2383
g56
(g57
g58
NtRp2384
(dp2385
g61
(dp2386
g69
I3
ssg70
g2380
sg63
(lp2387
S'<class gluon.rocket.FileWrapper at 0xa73744c>'
p2388
asbasbasbag56
(g72
g58
NtRp2389
(dp2390
g61
(dp2391
sg70
g1900
sg63
(lp2392
g56
(g77
g58
NtRp2393
(dp2394
g61
(dp2395
g81
g82
ssg70
g2389
sg63
(lp2396
S'wsgi.input'
p2397
asbag56
(g77
g58
NtRp2398
(dp2399
g61
(dp2400
g88
g89
ssg70
g2389
sg63
(lp2401
S':'
asbag56
(g77
g58
NtRp2402
(dp2403
g61
(dp2404
sg70
g2389
sg63
(lp2405
g56
(g57
g58
NtRp2406
(dp2407
g61
(dp2408
g69
I3
ssg70
g2402
sg63
(lp2409
S'<cStringIO.StringO object at 0xab55da0>'
p2410
asbasbasbag56
(g72
g58
NtRp2411
(dp2412
g61
(dp2413
sg70
g1900
sg63
(lp2414
g56
(g77
g58
NtRp2415
(dp2416
g61
(dp2417
g81
g82
ssg70
g2411
sg63
(lp2418
S'wsgi.multiprocess'
p2419
asbag56
(g77
g58
NtRp2420
(dp2421
g61
(dp2422
g88
g89
ssg70
g2411
sg63
(lp2423
S':'
asbag56
(g77
g58
NtRp2424
(dp2425
g61
(dp2426
sg70
g2411
sg63
(lp2427
g56
(g57
g58
NtRp2428
(dp2429
g61
(dp2430
g69
I3
ssg70
g2424
sg63
(lp2431
g99
asbasbasbag56
(g72
g58
NtRp2432
(dp2433
g61
(dp2434
sg70
g1900
sg63
(lp2435
g56
(g77
g58
NtRp2436
(dp2437
g61
(dp2438
g81
g82
ssg70
g2432
sg63
(lp2439
S'wsgi.multithread'
p2440
asbag56
(g77
g58
NtRp2441
(dp2442
g61
(dp2443
g88
g89
ssg70
g2432
sg63
(lp2444
S':'
asbag56
(g77
g58
NtRp2445
(dp2446
g61
(dp2447
sg70
g2432
sg63
(lp2448
g56
(g57
g58
NtRp2449
(dp2450
g61
(dp2451
g69
I3
ssg70
g2445
sg63
(lp2452
g1429
asbasbasbag56
(g72
g58
NtRp2453
(dp2454
g61
(dp2455
sg70
g1900
sg63
(lp2456
g56
(g77
g58
NtRp2457
(dp2458
g61
(dp2459
g81
g82
ssg70
g2453
sg63
(lp2460
S'wsgi.run_once'
p2461
asbag56
(g77
g58
NtRp2462
(dp2463
g61
(dp2464
g88
g89
ssg70
g2453
sg63
(lp2465
S':'
asbag56
(g77
g58
NtRp2466
(dp2467
g61
(dp2468
sg70
g2453
sg63
(lp2469
g56
(g57
g58
NtRp2470
(dp2471
g61
(dp2472
g69
I3
ssg70
g2466
sg63
(lp2473
g99
asbasbasbag56
(g72
g58
NtRp2474
(dp2475
g61
(dp2476
sg70
g1900
sg63
(lp2477
g56
(g77
g58
NtRp2478
(dp2479
g61
(dp2480
g81
g82
ssg70
g2474
sg63
(lp2481
S'wsgi.url_scheme'
p2482
asbag56
(g77
g58
NtRp2483
(dp2484
g61
(dp2485
g88
g89
ssg70
g2474
sg63
(lp2486
S':'
asbag56
(g77
g58
NtRp2487
(dp2488
g61
(dp2489
sg70
g2474
sg63
(lp2490
g56
(g57
g58
NtRp2491
(dp2492
g61
(dp2493
g69
I3
ssg70
g2487
sg63
(lp2494
g1472
asbasbasbag56
(g72
g58
NtRp2495
(dp2496
g61
(dp2497
sg70
g1900
sg63
(lp2498
g56
(g77
g58
NtRp2499
(dp2500
g61
(dp2501
g81
g82
ssg70
g2495
sg63
(lp2502
S'wsgi.version'
p2503
asbag56
(g77
g58
NtRp2504
(dp2505
g61
(dp2506
g88
g89
ssg70
g2495
sg63
(lp2507
S':'
asbag56
(g77
g58
NtRp2508
(dp2509
g61
(dp2510
sg70
g2495
sg63
(lp2511
g56
(g57
g58
NtRp2512
(dp2513
g61
(dp2514
g69
I3
ssg70
g2508
sg63
(lp2515
S'1'
asbasbasbasbasbasbasbasbasbasbasbasbasbsS'frames'
p2516
(lp2517
(dp2518
S'file'
p2519
S'/home/jacobbl/SENG265/exercise2_jacob/codeAct_1.01/web2py/gluon/restricted.py'
p2520
sS'dump'
p2521
(dp2522
S'environment'
p2523
S"{'A': <class 'gluon.html.A'>, 'B': <class 'gluon.html.B'>, 'BEAUTIFY': <class 'gluon.html.BEAUTIFY'>, 'BODY': <class 'gluon.html.BODY'>, 'BR': <class 'gluon.html.BR'>, 'CENTER': <class 'gluon.html.CENTER'>, 'CLEANUP': <class 'gluon.validators.CLEANUP'>, 'CODE': <class 'gluon.html.CODE'>, 'CRYPT': <class 'gluon.validators.CRYPT'>, 'DAL': <class 'gluon.dal.DAL'>, ...}"
p2524
sS'ccode'
p2525
S'<code object <module> at 0xa9a5f98, file "/home/...ns/codeAct/controllers/ca_controller.py", line 1>'
p2526
ssS'lnum'
p2527
I181
sS'lines'
p2528
(dp2529
I176
S'    try:'
p2530
sI177
S'        if type(code) == types.CodeType:'
p2531
sI178
S'            ccode = code'
p2532
sI179
S'        else:'
p2533
sI180
S'            ccode = compile2(code,layer)'
p2534
sI181
S'        exec ccode in environment'
p2535
sI182
S'    except HTTP:'
p2536
sI183
S'        raise'
p2537
sI184
S'    except Exception:'
p2538
sI185
S'        # XXX Show exception in Wing IDE if running in debugger'
p2539
ssS'call'
p2540
S"(code='import sys\\nimport time\\nimport os\\n\\nimport ca_quiz...turn code\\n\\nresponse._vars=response._caller(quiz)\\n', environment={'A': <class 'gluon.html.A'>, 'B': <class 'gluon.html.B'>, 'BEAUTIFY': <class 'gluon.html.BEAUTIFY'>, 'BODY': <class 'gluon.html.BODY'>, 'BR': <class 'gluon.html.BR'>, 'CENTER': <class 'gluon.html.CENTER'>, 'CLEANUP': <class 'gluon.validators.CLEANUP'>, 'CODE': <class 'gluon.html.CODE'>, 'CRYPT': <class 'gluon.validators.CRYPT'>, 'DAL': <class 'gluon.dal.DAL'>, ...}, layer='/home/jacobbl/SENG265/exercise2_jacob/codeAct_1....applications/codeAct/controllers/ca_controller.py')"
p2541
sS'func'
p2542
S'restricted'
p2543
sa(dp2544
g2519
S'/home/jacobbl/SENG265/exercise2_jacob/codeAct_1.01/web2py/applications/codeAct/controllers/ca_controller.py'
p2545
sg2521
(dp2546
sg2527
I85
sg2528
(dp2547
I74
S"\t session['quiz'].practice_mode,session['login'],"
p2548
sI75
S"\t session['answer_list'][question_number-1],"
p2549
sI76
S"\t request.vars,session['question_timer'])"
p2550
sI77
S"\tcode = utility.add_submit_label(code,session['quiz'].practice_mode)"
p2551
sI78
S'\tcode = utility.disable_navi_buttons(code,question_number,'
p2552
sI79
S"\t session['quiz'])"
p2553
sI80
S''
sI81
S'\t# update question timer'
p2554
sI82
S"\tsession['question_timer'] = int(time.time())"
p2555
sI83
S'\treturn code'
p2556
ssg2540
S'()'
p2557
sg2542
S'<module>'
p2558
sa(dp2559
g2519
S'/home/jacobbl/SENG265/exercise2_jacob/codeAct_1.01/web2py/gluon/globals.py'
p2560
sg2521
(dp2561
S'self'
p2562
S'undefined'
p2563
sS'f'
S'<function quiz>'
p2564
ssg2527
I133
sg2528
(dp2565
I128
S"        self.flash = ''           # used by the default view layout"
p2566
sI129
S'        self.meta = Storage()     # used by web2py_ajax.html'
p2567
sI130
S'        self.menu = []            # used by the default view layout'
p2568
sI131
S'        self.files = []           # used by web2py_ajax.html'
p2569
sI132
S'        self._vars = None'
p2570
sI133
S'        self._caller = lambda f: f()'
p2571
sI134
S'        self._view_environment = None'
p2572
sI135
S'        self._custom_commit = None'
p2573
sI136
S'        self._custom_rollback = None'
p2574
sI137
S''
ssg2540
S'(f=<function quiz>)'
p2575
sg2542
S'<lambda>'
p2576
sa(dp2577
g2519
S'/home/jacobbl/SENG265/exercise2_jacob/codeAct_1.01/web2py/applications/codeAct/controllers/ca_controller.py'
p2578
sg2521
(dp2579
S'].get_question'
p2580
S'None'
p2581
sS'global session'
p2582
S"<Storage {'login': '', 'question_timer': 1309647...], 'quiz': <ca_quiz.quiz instance at 0xab5580c>}>"
p2583
sS'question'
p2584
g2563
sS'question_number'
p2585
S'3'
ssg2527
I67
sg2528
(dp2586
I64
S''
sI65
S'\t# generate HTML code'
p2587
sI66
S'\tquestion_number = utility.get_question_number(request.vars)'
p2588
sI67
S"\tquestion = session['quiz'].get_question(question_number-1)"
p2589
sI68
S"\tutility.update_answer(question,question_number,session['answer_list'],"
p2590
sI69
S'\t request.vars)'
p2591
sI70
S"\tcode = question_HTML.generate_html(session['quiz'],question_number,"
p2592
sI71
S"\t session['answer_list'][question_number-1])"
p2593
sI62
S"\t\tlog_create.create_log(session['quiz'].log_dir,"
p2594
sI63
S"\t\t session['login'])"
p2595
ssg2540
S'()'
p2596
sg2542
S'quiz'
p2597
sa(dp2598
g2519
S'/home/jacobbl/SENG265/exercise2_jacob/codeAct_1.01/web2py/applications/codeAct/ca_quiz.py'
p2599
sg2521
(dp2600
S'self.question_list'
p2601
S'[<ca_question.liar_liar instance>]'
p2602
sS'self'
p2603
S'<ca_quiz.quiz instance>'
p2604
sS'index'
p2605
S'2'
ssg2527
I63
sg2528
(dp2606
I64
S'\t\t# if index is out of range, should we return the first question'
p2607
sI65
S'\t\t# instead of throw an exception'
p2608
sI56
S"\t'''"
p2609
sI57
S'\tPurpose'
p2610
sI58
S'\t\treturn the ith question'
p2611
sI59
S'\tPrecondition'
p2612
sI60
S'\t\tindex > 0 and index < len(self.question_list)'
p2613
sI61
S"\t'''"
p2614
sI62
S'\tdef get_question(self,index):'
p2615
sI63
S'\t\treturn self.question_list[index]'
p2616
ssg2540
S'(self=<ca_quiz.quiz instance>, index=2)'
p2617
sg2542
S'get_question'
p2618
sasS'pyver'
p2619
S'Python 2.6.5: /usr/bin/python'
p2620
sS'session'
p2621
g56
(g57
g58
NtRp2622
(dp2623
g61
(dp2624
sg63
(lp2625
g56
(g65
g58
NtRp2626
(dp2627
g61
(dp2628
g69
I5
ssg70
Nsg63
(lp2629
g56
(g72
g58
NtRp2630
(dp2631
g61
(dp2632
sg70
g2626
sg63
(lp2633
g56
(g77
g58
NtRp2634
(dp2635
g61
(dp2636
g81
g82
ssg70
g2630
sg63
(lp2637
S'answer_list'
p2638
asbag56
(g77
g58
NtRp2639
(dp2640
g61
(dp2641
g88
g89
ssg70
g2630
sg63
(lp2642
S':'
asbag56
(g77
g58
NtRp2643
(dp2644
g61
(dp2645
sg70
g2630
sg63
(lp2646
g56
(g57
g58
NtRp2647
(dp2648
g61
(dp2649
g69
I5
ssg70
g2643
sg63
(lp2650
g56
(g65
g58
NtRp2651
(dp2652
g61
(dp2653
g69
I4
ssg70
Nsg63
(lp2654
g56
(g72
g58
NtRp2655
(dp2656
g61
(dp2657
sg70
g2651
sg63
(lp2658
g56
(g77
g58
NtRp2659
(dp2660
g61
(dp2661
sg70
g2655
sg63
(lp2662
g56
(g57
g58
NtRp2663
(dp2664
g61
(dp2665
g69
I4
ssg70
g2659
sg63
(lp2666
g56
(g65
g58
NtRp2667
(dp2668
g61
(dp2669
g69
I3
ssg70
Nsg63
(lp2670
g56
(g72
g58
NtRp2671
(dp2672
g61
(dp2673
sg70
g2667
sg63
(lp2674
g56
(g77
g58
NtRp2675
(dp2676
g61
(dp2677
g81
g82
ssg70
g2671
sg63
(lp2678
S'argvs'
p2679
asbag56
(g77
g58
NtRp2680
(dp2681
g61
(dp2682
g88
g89
ssg70
g2671
sg63
(lp2683
S':'
asbag56
(g77
g58
NtRp2684
(dp2685
g61
(dp2686
sg70
g2671
sg63
(lp2687
g56
(g57
g58
NtRp2688
(dp2689
g61
(dp2690
g69
I3
ssg70
g2684
sg63
(lp2691
g56
(g65
g58
NtRp2692
(dp2693
g61
(dp2694
g69
I2
ssg70
Nsg63
(lp2695
sbasbasbasbag56
(g72
g58
NtRp2696
(dp2697
g61
(dp2698
sg70
g2667
sg63
(lp2699
g56
(g77
g58
NtRp2700
(dp2701
g61
(dp2702
g81
g82
ssg70
g2696
sg63
(lp2703
S'code'
p2704
asbag56
(g77
g58
NtRp2705
(dp2706
g61
(dp2707
g88
g89
ssg70
g2696
sg63
(lp2708
S':'
asbag56
(g77
g58
NtRp2709
(dp2710
g61
(dp2711
sg70
g2696
sg63
(lp2712
g56
(g57
g58
NtRp2713
(dp2714
g61
(dp2715
g69
I3
ssg70
g2709
sg63
(lp2716
g56
(g65
g58
NtRp2717
(dp2718
g61
(dp2719
g69
I2
ssg70
Nsg63
(lp2720
g56
(g72
g58
NtRp2721
(dp2722
g61
(dp2723
sg70
g2717
sg63
(lp2724
g56
(g77
g58
NtRp2725
(dp2726
g61
(dp2727
g81
g82
ssg70
g2721
sg63
(lp2728
S'$x1'
p2729
asbag56
(g77
g58
NtRp2730
(dp2731
g61
(dp2732
g88
g89
ssg70
g2721
sg63
(lp2733
S':'
asbag56
(g77
g58
NtRp2734
(dp2735
g61
(dp2736
sg70
g2721
sg63
(lp2737
g56
(g57
g58
NtRp2738
(dp2739
g61
(dp2740
g69
I2
ssg70
g2734
sg63
(lp2741
S'None'
p2742
asbasbasbag56
(g72
g58
NtRp2743
(dp2744
g61
(dp2745
sg70
g2717
sg63
(lp2746
g56
(g77
g58
NtRp2747
(dp2748
g61
(dp2749
g81
g82
ssg70
g2743
sg63
(lp2750
S'$x2'
p2751
asbag56
(g77
g58
NtRp2752
(dp2753
g61
(dp2754
g88
g89
ssg70
g2743
sg63
(lp2755
S':'
asbag56
(g77
g58
NtRp2756
(dp2757
g61
(dp2758
sg70
g2743
sg63
(lp2759
g56
(g57
g58
NtRp2760
(dp2761
g61
(dp2762
g69
I2
ssg70
g2756
sg63
(lp2763
S'None'
p2764
asbasbasbasbasbasbasbag56
(g72
g58
NtRp2765
(dp2766
g61
(dp2767
sg70
g2667
sg63
(lp2768
g56
(g77
g58
NtRp2769
(dp2770
g61
(dp2771
g81
g82
ssg70
g2765
sg63
(lp2772
S'stdin'
p2773
asbag56
(g77
g58
NtRp2774
(dp2775
g61
(dp2776
g88
g89
ssg70
g2765
sg63
(lp2777
S':'
asbag56
(g77
g58
NtRp2778
(dp2779
g61
(dp2780
sg70
g2765
sg63
(lp2781
g56
(g57
g58
NtRp2782
(dp2783
g61
(dp2784
g69
I3
ssg70
g2778
sg63
(lp2785
g56
(g65
g58
NtRp2786
(dp2787
g61
(dp2788
g69
I2
ssg70
Nsg63
(lp2789
sbasbasbasbag56
(g72
g58
NtRp2790
(dp2791
g61
(dp2792
sg70
g2667
sg63
(lp2793
g56
(g77
g58
NtRp2794
(dp2795
g61
(dp2796
g81
g82
ssg70
g2790
sg63
(lp2797
S'stdout'
p2798
asbag56
(g77
g58
NtRp2799
(dp2800
g61
(dp2801
g88
g89
ssg70
g2790
sg63
(lp2802
S':'
asbag56
(g77
g58
NtRp2803
(dp2804
g61
(dp2805
sg70
g2790
sg63
(lp2806
g56
(g57
g58
NtRp2807
(dp2808
g61
(dp2809
g69
I3
ssg70
g2803
sg63
(lp2810
g56
(g65
g58
NtRp2811
(dp2812
g61
(dp2813
g69
I2
ssg70
Nsg63
(lp2814
sbasbasbasbasbasbasbasbasbasbasbasbag56
(g72
g58
NtRp2815
(dp2816
g61
(dp2817
sg70
g2626
sg63
(lp2818
g56
(g77
g58
NtRp2819
(dp2820
g61
(dp2821
g81
g82
ssg70
g2815
sg63
(lp2822
S'login'
p2823
asbag56
(g77
g58
NtRp2824
(dp2825
g61
(dp2826
g88
g89
ssg70
g2815
sg63
(lp2827
S':'
asbag56
(g77
g58
NtRp2828
(dp2829
g61
(dp2830
sg70
g2815
sg63
(lp2831
g56
(g57
g58
NtRp2832
(dp2833
g61
(dp2834
g69
I5
ssg70
g2828
sg63
(lp2835
S''
asbasbasbag56
(g72
g58
NtRp2836
(dp2837
g61
(dp2838
sg70
g2626
sg63
(lp2839
g56
(g77
g58
NtRp2840
(dp2841
g61
(dp2842
g81
g82
ssg70
g2836
sg63
(lp2843
S'question_timer'
p2844
asbag56
(g77
g58
NtRp2845
(dp2846
g61
(dp2847
g88
g89
ssg70
g2836
sg63
(lp2848
S':'
asbag56
(g77
g58
NtRp2849
(dp2850
g61
(dp2851
sg70
g2836
sg63
(lp2852
g56
(g57
g58
NtRp2853
(dp2854
g61
(dp2855
g69
I5
ssg70
g2849
sg63
(lp2856
S'1309647606'
p2857
asbasbasbag56
(g72
g58
NtRp2858
(dp2859
g61
(dp2860
sg70
g2626
sg63
(lp2861
g56
(g77
g58
NtRp2862
(dp2863
g61
(dp2864
g81
g82
ssg70
g2858
sg63
(lp2865
S'quiz'
p2866
asbag56
(g77
g58
NtRp2867
(dp2868
g61
(dp2869
g88
g89
ssg70
g2858
sg63
(lp2870
S':'
asbag56
(g77
g58
NtRp2871
(dp2872
g61
(dp2873
sg70
g2858
sg63
(lp2874
g56
(g57
g58
NtRp2875
(dp2876
g61
(dp2877
g69
I5
ssg70
g2871
sg63
(lp2878
S'<ca_quiz.quiz instance at 0xab5580c>'
p2879
asbasbasbasbasbsS'etype'
p2880
S"<type 'exceptions.IndexError'>"
p2881
sS'date'
p2882
S'Sat Jul  2 16:04:28 2011'
p2883
sS'response'
p2884
g56
(g57
g58
NtRp2885
(dp2886
g61
(dp2887
sg63
(lp2888
g56
(g65
g58
NtRp2889
(dp2890
g61
(dp2891
g69
I5
ssg70
Nsg63
(lp2892
g56
(g72
g58
NtRp2893
(dp2894
g61
(dp2895
sg70
g2889
sg63
(lp2896
g56
(g77
g58
NtRp2897
(dp2898
g61
(dp2899
g81
g82
ssg70
g2893
sg63
(lp2900
g154
asbag56
(g77
g58
NtRp2901
(dp2902
g61
(dp2903
g88
g89
ssg70
g2893
sg63
(lp2904
S':'
asbag56
(g77
g58
NtRp2905
(dp2906
g61
(dp2907
sg70
g2893
sg63
(lp2908
g56
(g57
g58
NtRp2909
(dp2910
g61
(dp2911
g69
I5
ssg70
g2905
sg63
(lp2912
S'<cStringIO.StringO object at 0xa88d060>'
p2913
asbasbasbag56
(g72
g58
NtRp2914
(dp2915
g61
(dp2916
sg70
g2889
sg63
(lp2917
g56
(g77
g58
NtRp2918
(dp2919
g61
(dp2920
g81
g82
ssg70
g2914
sg63
(lp2921
g220
asbag56
(g77
g58
NtRp2922
(dp2923
g61
(dp2924
g88
g89
ssg70
g2914
sg63
(lp2925
S':'
asbag56
(g77
g58
NtRp2926
(dp2927
g61
(dp2928
sg70
g2914
sg63
(lp2929
g56
(g57
g58
NtRp2930
(dp2931
g61
(dp2932
g69
I5
ssg70
g2926
sg63
(lp2933
g56
(g65
g58
NtRp2934
(dp2935
g61
(dp2936
g69
I4
ssg70
Nsg63
(lp2937
g56
(g72
g58
NtRp2938
(dp2939
g61
(dp2940
sg70
g2934
sg63
(lp2941
g56
(g77
g58
NtRp2942
(dp2943
g61
(dp2944
g81
g82
ssg70
g2938
sg63
(lp2945
S'session_id_codeact'
p2946
asbag56
(g77
g58
NtRp2947
(dp2948
g61
(dp2949
g88
g89
ssg70
g2938
sg63
(lp2950
S':'
asbag56
(g77
g58
NtRp2951
(dp2952
g61
(dp2953
sg70
g2938
sg63
(lp2954
g56
(g57
g58
NtRp2955
(dp2956
g61
(dp2957
g69
I4
ssg70
g2951
sg63
(lp2958
g56
(g65
g58
NtRp2959
(dp2960
g61
(dp2961
g69
I3
ssg70
Nsg63
(lp2962
g56
(g72
g58
NtRp2963
(dp2964
g61
(dp2965
sg70
g2959
sg63
(lp2966
g56
(g77
g58
NtRp2967
(dp2968
g61
(dp2969
g81
g82
ssg70
g2963
sg63
(lp2970
g270
asbag56
(g77
g58
NtRp2971
(dp2972
g61
(dp2973
g88
g89
ssg70
g2963
sg63
(lp2974
S':'
asbag56
(g77
g58
NtRp2975
(dp2976
g61
(dp2977
sg70
g2963
sg63
(lp2978
g56
(g57
g58
NtRp2979
(dp2980
g61
(dp2981
g69
I3
ssg70
g2975
sg63
(lp2982
S''
asbasbasbag56
(g72
g58
NtRp2983
(dp2984
g61
(dp2985
sg70
g2959
sg63
(lp2986
g56
(g77
g58
NtRp2987
(dp2988
g61
(dp2989
g81
g82
ssg70
g2983
sg63
(lp2990
g291
asbag56
(g77
g58
NtRp2991
(dp2992
g61
(dp2993
g88
g89
ssg70
g2983
sg63
(lp2994
S':'
asbag56
(g77
g58
NtRp2995
(dp2996
g61
(dp2997
sg70
g2983
sg63
(lp2998
g56
(g57
g58
NtRp2999
(dp3000
g61
(dp3001
g69
I3
ssg70
g2995
sg63
(lp3002
S''
asbasbasbag56
(g72
g58
NtRp3003
(dp3004
g61
(dp3005
sg70
g2959
sg63
(lp3006
g56
(g77
g58
NtRp3007
(dp3008
g61
(dp3009
g81
g82
ssg70
g3003
sg63
(lp3010
g312
asbag56
(g77
g58
NtRp3011
(dp3012
g61
(dp3013
g88
g89
ssg70
g3003
sg63
(lp3014
S':'
asbag56
(g77
g58
NtRp3015
(dp3016
g61
(dp3017
sg70
g3003
sg63
(lp3018
g56
(g57
g58
NtRp3019
(dp3020
g61
(dp3021
g69
I3
ssg70
g3015
sg63
(lp3022
S''
asbasbasbag56
(g72
g58
NtRp3023
(dp3024
g61
(dp3025
sg70
g2959
sg63
(lp3026
g56
(g77
g58
NtRp3027
(dp3028
g61
(dp3029
g81
g82
ssg70
g3023
sg63
(lp3030
g333
asbag56
(g77
g58
NtRp3031
(dp3032
g61
(dp3033
g88
g89
ssg70
g3023
sg63
(lp3034
S':'
asbag56
(g77
g58
NtRp3035
(dp3036
g61
(dp3037
sg70
g3023
sg63
(lp3038
g56
(g57
g58
NtRp3039
(dp3040
g61
(dp3041
g69
I3
ssg70
g3035
sg63
(lp3042
S''
asbasbasbag56
(g72
g58
NtRp3043
(dp3044
g61
(dp3045
sg70
g2959
sg63
(lp3046
g56
(g77
g58
NtRp3047
(dp3048
g61
(dp3049
g81
g82
ssg70
g3043
sg63
(lp3050
g354
asbag56
(g77
g58
NtRp3051
(dp3052
g61
(dp3053
g88
g89
ssg70
g3043
sg63
(lp3054
S':'
asbag56
(g77
g58
NtRp3055
(dp3056
g61
(dp3057
sg70
g3043
sg63
(lp3058
g56
(g57
g58
NtRp3059
(dp3060
g61
(dp3061
g69
I3
ssg70
g3055
sg63
(lp3062
S''
asbasbasbag56
(g72
g58
NtRp3063
(dp3064
g61
(dp3065
sg70
g2959
sg63
(lp3066
g56
(g77
g58
NtRp3067
(dp3068
g61
(dp3069
g81
g82
ssg70
g3063
sg63
(lp3070
g375
asbag56
(g77
g58
NtRp3071
(dp3072
g61
(dp3073
g88
g89
ssg70
g3063
sg63
(lp3074
S':'
asbag56
(g77
g58
NtRp3075
(dp3076
g61
(dp3077
sg70
g3063
sg63
(lp3078
g56
(g57
g58
NtRp3079
(dp3080
g61
(dp3081
g69
I3
ssg70
g3075
sg63
(lp3082
S'/'
asbasbasbag56
(g72
g58
NtRp3083
(dp3084
g61
(dp3085
sg70
g2959
sg63
(lp3086
g56
(g77
g58
NtRp3087
(dp3088
g61
(dp3089
g81
g82
ssg70
g3083
sg63
(lp3090
g396
asbag56
(g77
g58
NtRp3091
(dp3092
g61
(dp3093
g88
g89
ssg70
g3083
sg63
(lp3094
S':'
asbag56
(g77
g58
NtRp3095
(dp3096
g61
(dp3097
sg70
g3083
sg63
(lp3098
g56
(g57
g58
NtRp3099
(dp3100
g61
(dp3101
g69
I3
ssg70
g3095
sg63
(lp3102
S''
asbasbasbag56
(g72
g58
NtRp3103
(dp3104
g61
(dp3105
sg70
g2959
sg63
(lp3106
g56
(g77
g58
NtRp3107
(dp3108
g61
(dp3109
g81
g82
ssg70
g3103
sg63
(lp3110
g417
asbag56
(g77
g58
NtRp3111
(dp3112
g61
(dp3113
g88
g89
ssg70
g3103
sg63
(lp3114
S':'
asbag56
(g77
g58
NtRp3115
(dp3116
g61
(dp3117
sg70
g3103
sg63
(lp3118
g56
(g57
g58
NtRp3119
(dp3120
g61
(dp3121
g69
I3
ssg70
g3115
sg63
(lp3122
S''
asbasbasbasbasbasbasbasbasbasbasbag56
(g72
g58
NtRp3123
(dp3124
g61
(dp3125
sg70
g2889
sg63
(lp3126
g56
(g77
g58
NtRp3127
(dp3128
g61
(dp3129
g81
g82
ssg70
g3123
sg63
(lp3130
S'files'
p3131
asbag56
(g77
g58
NtRp3132
(dp3133
g61
(dp3134
g88
g89
ssg70
g3123
sg63
(lp3135
S':'
asbag56
(g77
g58
NtRp3136
(dp3137
g61
(dp3138
sg70
g3123
sg63
(lp3139
g56
(g57
g58
NtRp3140
(dp3141
g61
(dp3142
g69
I5
ssg70
g3136
sg63
(lp3143
g56
(g65
g58
NtRp3144
(dp3145
g61
(dp3146
g69
I4
ssg70
Nsg63
(lp3147
sbasbasbasbag56
(g72
g58
NtRp3148
(dp3149
g61
(dp3150
sg70
g2889
sg63
(lp3151
g56
(g77
g58
NtRp3152
(dp3153
g61
(dp3154
g81
g82
ssg70
g3148
sg63
(lp3155
S'flash'
p3156
asbag56
(g77
g58
NtRp3157
(dp3158
g61
(dp3159
g88
g89
ssg70
g3148
sg63
(lp3160
S':'
asbag56
(g77
g58
NtRp3161
(dp3162
g61
(dp3163
sg70
g3148
sg63
(lp3164
g56
(g57
g58
NtRp3165
(dp3166
g61
(dp3167
g69
I5
ssg70
g3161
sg63
(lp3168
S''
asbasbasbag56
(g72
g58
NtRp3169
(dp3170
g61
(dp3171
sg70
g2889
sg63
(lp3172
g56
(g77
g58
NtRp3173
(dp3174
g61
(dp3175
g81
g82
ssg70
g3169
sg63
(lp3176
S'headers'
p3177
asbag56
(g77
g58
NtRp3178
(dp3179
g61
(dp3180
g88
g89
ssg70
g3169
sg63
(lp3181
S':'
asbag56
(g77
g58
NtRp3182
(dp3183
g61
(dp3184
sg70
g3169
sg63
(lp3185
g56
(g57
g58
NtRp3186
(dp3187
g61
(dp3188
g69
I5
ssg70
g3182
sg63
(lp3189
g56
(g65
g58
NtRp3190
(dp3191
g61
(dp3192
g69
I4
ssg70
Nsg63
(lp3193
g56
(g72
g58
NtRp3194
(dp3195
g61
(dp3196
sg70
g3190
sg63
(lp3197
g56
(g77
g58
NtRp3198
(dp3199
g61
(dp3200
g81
g82
ssg70
g3194
sg63
(lp3201
S'Cache-Control'
p3202
asbag56
(g77
g58
NtRp3203
(dp3204
g61
(dp3205
g88
g89
ssg70
g3194
sg63
(lp3206
S':'
asbag56
(g77
g58
NtRp3207
(dp3208
g61
(dp3209
sg70
g3194
sg63
(lp3210
g56
(g57
g58
NtRp3211
(dp3212
g61
(dp3213
g69
I4
ssg70
g3207
sg63
(lp3214
S'no-store, no-cache, must-revalidate, post-check=0, pre-check=0'
p3215
asbasbasbag56
(g72
g58
NtRp3216
(dp3217
g61
(dp3218
sg70
g3190
sg63
(lp3219
g56
(g77
g58
NtRp3220
(dp3221
g61
(dp3222
g81
g82
ssg70
g3216
sg63
(lp3223
S'Content-Type'
p3224
asbag56
(g77
g58
NtRp3225
(dp3226
g61
(dp3227
g88
g89
ssg70
g3216
sg63
(lp3228
S':'
asbag56
(g77
g58
NtRp3229
(dp3230
g61
(dp3231
sg70
g3216
sg63
(lp3232
g56
(g57
g58
NtRp3233
(dp3234
g61
(dp3235
g69
I4
ssg70
g3229
sg63
(lp3236
S'text/html; charset=utf-8'
p3237
asbasbasbag56
(g72
g58
NtRp3238
(dp3239
g61
(dp3240
sg70
g3190
sg63
(lp3241
g56
(g77
g58
NtRp3242
(dp3243
g61
(dp3244
g81
g82
ssg70
g3238
sg63
(lp3245
S'Expires'
p3246
asbag56
(g77
g58
NtRp3247
(dp3248
g61
(dp3249
g88
g89
ssg70
g3238
sg63
(lp3250
S':'
asbag56
(g77
g58
NtRp3251
(dp3252
g61
(dp3253
sg70
g3238
sg63
(lp3254
g56
(g57
g58
NtRp3255
(dp3256
g61
(dp3257
g69
I4
ssg70
g3251
sg63
(lp3258
S'Sat, 02 Jul 2011 23:04:28 GMT'
p3259
asbasbasbag56
(g72
g58
NtRp3260
(dp3261
g61
(dp3262
sg70
g3190
sg63
(lp3263
g56
(g77
g58
NtRp3264
(dp3265
g61
(dp3266
g81
g82
ssg70
g3260
sg63
(lp3267
S'Pragma'
p3268
asbag56
(g77
g58
NtRp3269
(dp3270
g61
(dp3271
g88
g89
ssg70
g3260
sg63
(lp3272
S':'
asbag56
(g77
g58
NtRp3273
(dp3274
g61
(dp3275
sg70
g3260
sg63
(lp3276
g56
(g57
g58
NtRp3277
(dp3278
g61
(dp3279
g69
I4
ssg70
g3273
sg63
(lp3280
S'no-cache'
p3281
asbasbasbasbasbasbasbag56
(g72
g58
NtRp3282
(dp3283
g61
(dp3284
sg70
g2889
sg63
(lp3285
g56
(g77
g58
NtRp3286
(dp3287
g61
(dp3288
g81
g82
ssg70
g3282
sg63
(lp3289
S'menu'
p3290
asbag56
(g77
g58
NtRp3291
(dp3292
g61
(dp3293
g88
g89
ssg70
g3282
sg63
(lp3294
S':'
asbag56
(g77
g58
NtRp3295
(dp3296
g61
(dp3297
sg70
g3282
sg63
(lp3298
g56
(g57
g58
NtRp3299
(dp3300
g61
(dp3301
g69
I5
ssg70
g3295
sg63
(lp3302
g56
(g65
g58
NtRp3303
(dp3304
g61
(dp3305
g69
I4
ssg70
Nsg63
(lp3306
sbasbasbasbag56
(g72
g58
NtRp3307
(dp3308
g61
(dp3309
sg70
g2889
sg63
(lp3310
g56
(g77
g58
NtRp3311
(dp3312
g61
(dp3313
g81
g82
ssg70
g3307
sg63
(lp3314
S'meta'
p3315
asbag56
(g77
g58
NtRp3316
(dp3317
g61
(dp3318
g88
g89
ssg70
g3307
sg63
(lp3319
S':'
asbag56
(g77
g58
NtRp3320
(dp3321
g61
(dp3322
sg70
g3307
sg63
(lp3323
g56
(g57
g58
NtRp3324
(dp3325
g61
(dp3326
g69
I5
ssg70
g3320
sg63
(lp3327
g56
(g65
g58
NtRp3328
(dp3329
g61
(dp3330
g69
I4
ssg70
Nsg63
(lp3331
sbasbasbasbag56
(g72
g58
NtRp3332
(dp3333
g61
(dp3334
sg70
g2889
sg63
(lp3335
g56
(g77
g58
NtRp3336
(dp3337
g61
(dp3338
g81
g82
ssg70
g3332
sg63
(lp3339
S'postprocessing'
p3340
asbag56
(g77
g58
NtRp3341
(dp3342
g61
(dp3343
g88
g89
ssg70
g3332
sg63
(lp3344
S':'
asbag56
(g77
g58
NtRp3345
(dp3346
g61
(dp3347
sg70
g3332
sg63
(lp3348
g56
(g57
g58
NtRp3349
(dp3350
g61
(dp3351
g69
I5
ssg70
g3345
sg63
(lp3352
g56
(g65
g58
NtRp3353
(dp3354
g61
(dp3355
g69
I4
ssg70
Nsg63
(lp3356
sbasbasbasbag56
(g72
g58
NtRp3357
(dp3358
g61
(dp3359
sg70
g2889
sg63
(lp3360
g56
(g77
g58
NtRp3361
(dp3362
g61
(dp3363
g81
g82
ssg70
g3357
sg63
(lp3364
S'session_file'
p3365
asbag56
(g77
g58
NtRp3366
(dp3367
g61
(dp3368
g88
g89
ssg70
g3357
sg63
(lp3369
S':'
asbag56
(g77
g58
NtRp3370
(dp3371
g61
(dp3372
sg70
g3357
sg63
(lp3373
g56
(g57
g58
NtRp3374
(dp3375
g61
(dp3376
g69
I5
ssg70
g3370
sg63
(lp3377
S"<open file '/home/jacobbl/SENG265/exercise2_jacob/codeAct_1.01/web2py/applications/codeAct/sessions/127.0.0.1-919396c9-dffc-4b6e-bb96-f08da977b37b', mode 'rb+' at 0xa851338>"
p3378
asbasbasbag56
(g72
g58
NtRp3379
(dp3380
g61
(dp3381
sg70
g2889
sg63
(lp3382
g56
(g77
g58
NtRp3383
(dp3384
g61
(dp3385
g81
g82
ssg70
g3379
sg63
(lp3386
S'session_filename'
p3387
asbag56
(g77
g58
NtRp3388
(dp3389
g61
(dp3390
g88
g89
ssg70
g3379
sg63
(lp3391
S':'
asbag56
(g77
g58
NtRp3392
(dp3393
g61
(dp3394
sg70
g3379
sg63
(lp3395
g56
(g57
g58
NtRp3396
(dp3397
g61
(dp3398
g69
I5
ssg70
g3392
sg63
(lp3399
S'/home/jacobbl/SENG265/exercise2_jacob/codeAct_1.01/web2py/applications/codeAct/sessions/127.0.0.1-919396c9-dffc-4b6e-bb96-f08da977b37b'
p3400
asbasbasbag56
(g72
g58
NtRp3401
(dp3402
g61
(dp3403
sg70
g2889
sg63
(lp3404
g56
(g77
g58
NtRp3405
(dp3406
g61
(dp3407
g81
g82
ssg70
g3401
sg63
(lp3408
S'session_id'
p3409
asbag56
(g77
g58
NtRp3410
(dp3411
g61
(dp3412
g88
g89
ssg70
g3401
sg63
(lp3413
S':'
asbag56
(g77
g58
NtRp3414
(dp3415
g61
(dp3416
sg70
g3401
sg63
(lp3417
g56
(g57
g58
NtRp3418
(dp3419
g61
(dp3420
g69
I5
ssg70
g3414
sg63
(lp3421
S'127.0.0.1-919396c9-dffc-4b6e-bb96-f08da977b37b'
p3422
asbasbasbag56
(g72
g58
NtRp3423
(dp3424
g61
(dp3425
sg70
g2889
sg63
(lp3426
g56
(g77
g58
NtRp3427
(dp3428
g61
(dp3429
g81
g82
ssg70
g3423
sg63
(lp3430
S'session_id_name'
p3431
asbag56
(g77
g58
NtRp3432
(dp3433
g61
(dp3434
g88
g89
ssg70
g3423
sg63
(lp3435
S':'
asbag56
(g77
g58
NtRp3436
(dp3437
g61
(dp3438
sg70
g3423
sg63
(lp3439
g56
(g57
g58
NtRp3440
(dp3441
g61
(dp3442
g69
I5
ssg70
g3436
sg63
(lp3443
g2946
asbasbasbag56
(g72
g58
NtRp3444
(dp3445
g61
(dp3446
sg70
g2889
sg63
(lp3447
g56
(g77
g58
NtRp3448
(dp3449
g61
(dp3450
g81
g82
ssg70
g3444
sg63
(lp3451
S'session_locked'
p3452
asbag56
(g77
g58
NtRp3453
(dp3454
g61
(dp3455
g88
g89
ssg70
g3444
sg63
(lp3456
S':'
asbag56
(g77
g58
NtRp3457
(dp3458
g61
(dp3459
sg70
g3444
sg63
(lp3460
g56
(g57
g58
NtRp3461
(dp3462
g61
(dp3463
g69
I5
ssg70
g3457
sg63
(lp3464
g1429
asbasbasbag56
(g72
g58
NtRp3465
(dp3466
g61
(dp3467
sg70
g2889
sg63
(lp3468
g56
(g77
g58
NtRp3469
(dp3470
g61
(dp3471
g81
g82
ssg70
g3465
sg63
(lp3472
S'session_new'
p3473
asbag56
(g77
g58
NtRp3474
(dp3475
g61
(dp3476
g88
g89
ssg70
g3465
sg63
(lp3477
S':'
asbag56
(g77
g58
NtRp3478
(dp3479
g61
(dp3480
sg70
g3465
sg63
(lp3481
g56
(g57
g58
NtRp3482
(dp3483
g61
(dp3484
g69
I5
ssg70
g3478
sg63
(lp3485
g99
asbasbasbag56
(g72
g58
NtRp3486
(dp3487
g61
(dp3488
sg70
g2889
sg63
(lp3489
g56
(g77
g58
NtRp3490
(dp3491
g61
(dp3492
g81
g82
ssg70
g3486
sg63
(lp3493
S'status'
p3494
asbag56
(g77
g58
NtRp3495
(dp3496
g61
(dp3497
g88
g89
ssg70
g3486
sg63
(lp3498
S':'
asbag56
(g77
g58
NtRp3499
(dp3500
g61
(dp3501
sg70
g3486
sg63
(lp3502
g56
(g57
g58
NtRp3503
(dp3504
g61
(dp3505
g69
I5
ssg70
g3499
sg63
(lp3506
S'200'
p3507
asbasbasbag56
(g72
g58
NtRp3508
(dp3509
g61
(dp3510
sg70
g2889
sg63
(lp3511
g56
(g77
g58
NtRp3512
(dp3513
g61
(dp3514
g81
g82
ssg70
g3508
sg63
(lp3515
g1775
asbag56
(g77
g58
NtRp3516
(dp3517
g61
(dp3518
g88
g89
ssg70
g3508
sg63
(lp3519
S':'
asbag56
(g77
g58
NtRp3520
(dp3521
g61
(dp3522
sg70
g3508
sg63
(lp3523
g56
(g57
g58
NtRp3524
(dp3525
g61
(dp3526
g69
I5
ssg70
g3520
sg63
(lp3527
g1788
asbasbasbag56
(g72
g58
NtRp3528
(dp3529
g61
(dp3530
sg70
g2889
sg63
(lp3531
g56
(g77
g58
NtRp3532
(dp3533
g61
(dp3534
g81
g82
ssg70
g3528
sg63
(lp3535
S'view'
p3536
asbag56
(g77
g58
NtRp3537
(dp3538
g61
(dp3539
g88
g89
ssg70
g3528
sg63
(lp3540
S':'
asbag56
(g77
g58
NtRp3541
(dp3542
g61
(dp3543
sg70
g3528
sg63
(lp3544
g56
(g57
g58
NtRp3545
(dp3546
g61
(dp3547
g69
I5
ssg70
g3541
sg63
(lp3548
S'ca_controller/quiz.html'
p3549
asbasbasbasbasbsS'locals'
p3550
(dp3551
S'index'
p3552
S'2'
sS'self'
p3553
S'<ca_quiz.quiz instance>'
p3554
sssS'traceback'
p3555
S'Traceback (most recent call last):\n  File "/home/jacobbl/SENG265/exercise2_jacob/codeAct_1.01/web2py/gluon/restricted.py", line 181, in restricted\n    exec ccode in environment\n  File "/home/jacobbl/SENG265/exercise2_jacob/codeAct_1.01/web2py/applications/codeAct/controllers/ca_controller.py", line 85, in <module>\n  File "/home/jacobbl/SENG265/exercise2_jacob/codeAct_1.01/web2py/gluon/globals.py", line 133, in <lambda>\n    self._caller = lambda f: f()\n  File "/home/jacobbl/SENG265/exercise2_jacob/codeAct_1.01/web2py/applications/codeAct/controllers/ca_controller.py", line 67, in quiz\n    question = session[\'quiz\'].get_question(question_number-1)\n  File "/home/jacobbl/SENG265/exercise2_jacob/codeAct_1.01/web2py/applications/codeAct/ca_quiz.py", line 63, in get_question\n    return self.question_list[index]\nIndexError: list index out of range\n'
p3556
s.