(dp1
S'output'
p2
S''
sS'layer'
p3
S'/home/jacobbl/SENG265/exercise2_jacob/codeAct_1.01/web2py/applications/codeAct/controllers/ca_controller.py'
p4
sS'code'
p5
S"import sys\nimport time\nimport os\n\nimport ca_quiz as Quiz\nimport ca_log_create as log_create\n\nsys.path.append('applications/codeAct/controllers')\nimport ca_utility as utility\n\nsys.path.append('applications/codeAct/views/ca_controller')\nimport ca_question_HTML as question_HTML\n\nSERVERNAME = 'cdoku'\n\ndef ca_login():\n\tif not 'username' in request.vars.keys(): # not a submission\n\t\treturn dict(msg='')\n\telse: # request is a submission\n\t\t# get user list\n\t\tuser_list = 'allowed_users.txt'\n\t\t# check if student is registered in SENG265\n\t\tusers = open(os.path.join('../users/',user_list),\n\t\t 'r').read().split('\\n')\n\t\tif not request.vars['username'] in users:\n\t\t\treturn dict(\n\t\t\t msg = 'Not registered in the current session.')\n\t\t# authenticate username and password\n\t\tif os.uname()[1] == SERVERNAME:\n\t\t\tseng_auth = __import__('ca_seng_auth')\n\t\t\tif seng_auth.authenticate(request.vars['username'],\n\t\t\t request.vars['password']) != 0:\n\t\t\t\treturn dict(msg='Wrong username or password.')\n\t\tsession.login = request.vars['username']\n\t\tredirect(URL(r=request, f='quiz'))\n\ndef quiz():\n\t# the beginning of the quiz, create quiz and init answer_list\n\tif 'quiz_spec' in request.vars.keys():\n\t\tsession['quiz'] = Quiz.quiz(request.vars['quiz_spec'])\n\t\tsession['answer_list'] = utility.init_answer_list(\n\t\t session['quiz'])\n\t\t# initialize question_timer\n\t\tsession['question_timer'] = int(time.time())\n\t\t# reset the login\n\t\tif 'login' in session.keys():\n\t\t\tdel session['login']\n\n\t# if quiz does not exist, redirect to home page\n\tif not 'quiz' in session.keys():\n\t\tredirect(URL(r=request, f='ca_index'))\n\n\t# check login in marked mode\n\tif not 'login' in session.keys():\n\t\tif not session['quiz'].practice_mode: \n\t\t\tredirect(URL(r=request, f='ca_login'))\n\t\telse:\n\t\t\tsession['login'] = ''\n\n\t# init log_dir and log\n\tif session['quiz'].logged:\n\t\tlog_create.create_log(session['quiz'].log_dir,\n\t\t session['login'])\n\n\t# generate HTML code\n\tquestion_number = utility.get_question_number(request.vars)\n\tquestion = session['quiz'].get_question(question_number-1)\n\tutility.update_answer(question,question_number,session['answer_list'],\n\t request.vars)\n\tcode = question_HTML.generate_html(session['quiz'],question_number,\n\t session['answer_list'][question_number-1])\n\tcode = utility.get_result(code,question,question_number,\n\t session['quiz'].logged,session['quiz'].log_dir,\n\t session['quiz'].practice_mode,session['login'],\n\t session['answer_list'][question_number-1],\n\t request.vars,session['question_timer'])\n\tcode = utility.add_submit_label(code,session['quiz'].practice_mode)\n\tcode = utility.disable_navi_buttons(code,question_number,\n\t session['quiz'])\n\n\t# update question timer\n\tsession['question_timer'] = int(time.time())\n\treturn code\n\nresponse._vars=response._caller(quiz)\n"
p6
sS'snapshot'
p7
(dp8
S'exception'
p9
(dp10
S'__hash__'
p11
S"<method-wrapper '__hash__' of exceptions.IndexError object>"
p12
sS'__setattr__'
p13
S"<method-wrapper '__setattr__' of exceptions.IndexError object>"
p14
sS'__reduce_ex__'
p15
S'<built-in method __reduce_ex__ of exceptions.IndexError object>'
p16
sS'__getslice__'
p17
S"<method-wrapper '__getslice__' of exceptions.IndexError object>"
p18
sS'__getitem__'
p19
S"<method-wrapper '__getitem__' of exceptions.IndexError object>"
p20
sS'__setstate__'
p21
S'<built-in method __setstate__ of exceptions.IndexError object>'
p22
sS'__reduce__'
p23
S'<built-in method __reduce__ of exceptions.IndexError object>'
p24
sS'__str__'
p25
S"<method-wrapper '__str__' of exceptions.IndexError object>"
p26
sS'__format__'
p27
S'<built-in method __format__ of exceptions.IndexError object>'
p28
sS'__getattribute__'
p29
S"<method-wrapper '__getattribute__' of exceptions.IndexError object>"
p30
sS'__class__'
p31
S"<type 'exceptions.IndexError'>"
p32
sS'__unicode__'
p33
S'<built-in method __unicode__ of exceptions.IndexError object>'
p34
sS'__delattr__'
p35
S"<method-wrapper '__delattr__' of exceptions.IndexError object>"
p36
sS'__subclasshook__'
p37
S'<built-in method __subclasshook__ of type object>'
p38
sS'__repr__'
p39
S"<method-wrapper '__repr__' of exceptions.IndexError object>"
p40
sS'args'
p41
S"('list index out of range',)"
p42
sS'__dict__'
p43
S'{}'
p44
sS'__sizeof__'
p45
S'<built-in method __sizeof__ of exceptions.IndexError object>'
p46
sS'__doc__'
p47
S"'Sequence index out of range.'"
p48
sS'__init__'
p49
S"<method-wrapper '__init__' of exceptions.IndexError object>"
p50
sS'__new__'
p51
S'<built-in method __new__ of type object>'
p52
ssS'evalue'
p53
S'list index out of range'
p54
sS'request'
p55
ccopy_reg
_reconstructor
p56
(cgluon.html
BEAUTIFY
p57
c__builtin__
object
p58
NtRp59
(dp60
S'attributes'
p61
(dp62
sS'components'
p63
(lp64
g56
(cgluon.html
TABLE
p65
g58
NtRp66
(dp67
g61
(dp68
S'level'
p69
I5
ssS'parent'
p70
Nsg63
(lp71
g56
(cgluon.html
TR
p72
g58
NtRp73
(dp74
g61
(dp75
sg70
g66
sg63
(lp76
g56
(cgluon.html
TD
p77
g58
NtRp78
(dp79
g61
(dp80
S'_style'
p81
S'font-weight:bold;'
p82
ssg70
g73
sg63
(lp83
S'ajax'
p84
asbag56
(g77
g58
NtRp85
(dp86
g61
(dp87
S'_valign'
p88
S'top'
p89
ssg70
g73
sg63
(lp90
S':'
asbag56
(g77
g58
NtRp91
(dp92
g61
(dp93
sg70
g73
sg63
(lp94
g56
(g57
g58
NtRp95
(dp96
g61
(dp97
g69
I5
ssg70
g91
sg63
(lp98
S'False'
p99
asbasbasbag56
(g72
g58
NtRp100
(dp101
g61
(dp102
sg70
g66
sg63
(lp103
g56
(g77
g58
NtRp104
(dp105
g61
(dp106
g81
g82
ssg70
g100
sg63
(lp107
S'application'
p108
asbag56
(g77
g58
NtRp109
(dp110
g61
(dp111
g88
g89
ssg70
g100
sg63
(lp112
S':'
asbag56
(g77
g58
NtRp113
(dp114
g61
(dp115
sg70
g100
sg63
(lp116
g56
(g57
g58
NtRp117
(dp118
g61
(dp119
g69
I5
ssg70
g113
sg63
(lp120
S'codeAct'
p121
asbasbasbag56
(g72
g58
NtRp122
(dp123
g61
(dp124
sg70
g66
sg63
(lp125
g56
(g77
g58
NtRp126
(dp127
g61
(dp128
g81
g82
ssg70
g122
sg63
(lp129
g41
asbag56
(g77
g58
NtRp130
(dp131
g61
(dp132
g88
g89
ssg70
g122
sg63
(lp133
S':'
asbag56
(g77
g58
NtRp134
(dp135
g61
(dp136
sg70
g122
sg63
(lp137
g56
(g57
g58
NtRp138
(dp139
g61
(dp140
g69
I5
ssg70
g134
sg63
(lp141
g56
(g65
g58
NtRp142
(dp143
g61
(dp144
g69
I4
ssg70
Nsg63
(lp145
sbasbasbasbag56
(g72
g58
NtRp146
(dp147
g61
(dp148
sg70
g66
sg63
(lp149
g56
(g77
g58
NtRp150
(dp151
g61
(dp152
g81
g82
ssg70
g146
sg63
(lp153
S'body'
p154
asbag56
(g77
g58
NtRp155
(dp156
g61
(dp157
g88
g89
ssg70
g146
sg63
(lp158
S':'
asbag56
(g77
g58
NtRp159
(dp160
g61
(dp161
sg70
g146
sg63
(lp162
g56
(g57
g58
NtRp163
(dp164
g61
(dp165
g69
I5
ssg70
g159
sg63
(lp166
S'<cStringIO.StringO object at 0xa892040>'
p167
asbasbasbag56
(g72
g58
NtRp168
(dp169
g61
(dp170
sg70
g66
sg63
(lp171
g56
(g77
g58
NtRp172
(dp173
g61
(dp174
g81
g82
ssg70
g168
sg63
(lp175
S'client'
p176
asbag56
(g77
g58
NtRp177
(dp178
g61
(dp179
g88
g89
ssg70
g168
sg63
(lp180
S':'
asbag56
(g77
g58
NtRp181
(dp182
g61
(dp183
sg70
g168
sg63
(lp184
g56
(g57
g58
NtRp185
(dp186
g61
(dp187
g69
I5
ssg70
g181
sg63
(lp188
S'127.0.0.1'
p189
asbasbasbag56
(g72
g58
NtRp190
(dp191
g61
(dp192
sg70
g66
sg63
(lp193
g56
(g77
g58
NtRp194
(dp195
g61
(dp196
g81
g82
ssg70
g190
sg63
(lp197
S'controller'
p198
asbag56
(g77
g58
NtRp199
(dp200
g61
(dp201
g88
g89
ssg70
g190
sg63
(lp202
S':'
asbag56
(g77
g58
NtRp203
(dp204
g61
(dp205
sg70
g190
sg63
(lp206
g56
(g57
g58
NtRp207
(dp208
g61
(dp209
g69
I5
ssg70
g203
sg63
(lp210
S'ca_controller'
p211
asbasbasbag56
(g72
g58
NtRp212
(dp213
g61
(dp214
sg70
g66
sg63
(lp215
g56
(g77
g58
NtRp216
(dp217
g61
(dp218
g81
g82
ssg70
g212
sg63
(lp219
S'cookies'
p220
asbag56
(g77
g58
NtRp221
(dp222
g61
(dp223
g88
g89
ssg70
g212
sg63
(lp224
S':'
asbag56
(g77
g58
NtRp225
(dp226
g61
(dp227
sg70
g212
sg63
(lp228
g56
(g57
g58
NtRp229
(dp230
g61
(dp231
g69
I5
ssg70
g225
sg63
(lp232
g56
(g65
g58
NtRp233
(dp234
g61
(dp235
g69
I4
ssg70
Nsg63
(lp236
g56
(g72
g58
NtRp237
(dp238
g61
(dp239
sg70
g233
sg63
(lp240
g56
(g77
g58
NtRp241
(dp242
g61
(dp243
g81
g82
ssg70
g237
sg63
(lp244
S'session_id_codeact'
p245
asbag56
(g77
g58
NtRp246
(dp247
g61
(dp248
g88
g89
ssg70
g237
sg63
(lp249
S':'
asbag56
(g77
g58
NtRp250
(dp251
g61
(dp252
sg70
g237
sg63
(lp253
g56
(g57
g58
NtRp254
(dp255
g61
(dp256
g69
I4
ssg70
g250
sg63
(lp257
g56
(g65
g58
NtRp258
(dp259
g61
(dp260
g69
I3
ssg70
Nsg63
(lp261
g56
(g72
g58
NtRp262
(dp263
g61
(dp264
sg70
g258
sg63
(lp265
g56
(g77
g58
NtRp266
(dp267
g61
(dp268
g81
g82
ssg70
g262
sg63
(lp269
S'comment'
p270
asbag56
(g77
g58
NtRp271
(dp272
g61
(dp273
g88
g89
ssg70
g262
sg63
(lp274
S':'
asbag56
(g77
g58
NtRp275
(dp276
g61
(dp277
sg70
g262
sg63
(lp278
g56
(g57
g58
NtRp279
(dp280
g61
(dp281
g69
I3
ssg70
g275
sg63
(lp282
S''
asbasbasbag56
(g72
g58
NtRp283
(dp284
g61
(dp285
sg70
g258
sg63
(lp286
g56
(g77
g58
NtRp287
(dp288
g61
(dp289
g81
g82
ssg70
g283
sg63
(lp290
S'domain'
p291
asbag56
(g77
g58
NtRp292
(dp293
g61
(dp294
g88
g89
ssg70
g283
sg63
(lp295
S':'
asbag56
(g77
g58
NtRp296
(dp297
g61
(dp298
sg70
g283
sg63
(lp299
g56
(g57
g58
NtRp300
(dp301
g61
(dp302
g69
I3
ssg70
g296
sg63
(lp303
S''
asbasbasbag56
(g72
g58
NtRp304
(dp305
g61
(dp306
sg70
g258
sg63
(lp307
g56
(g77
g58
NtRp308
(dp309
g61
(dp310
g81
g82
ssg70
g304
sg63
(lp311
S'expires'
p312
asbag56
(g77
g58
NtRp313
(dp314
g61
(dp315
g88
g89
ssg70
g304
sg63
(lp316
S':'
asbag56
(g77
g58
NtRp317
(dp318
g61
(dp319
sg70
g304
sg63
(lp320
g56
(g57
g58
NtRp321
(dp322
g61
(dp323
g69
I3
ssg70
g317
sg63
(lp324
S''
asbasbasbag56
(g72
g58
NtRp325
(dp326
g61
(dp327
sg70
g258
sg63
(lp328
g56
(g77
g58
NtRp329
(dp330
g61
(dp331
g81
g82
ssg70
g325
sg63
(lp332
S'httponly'
p333
asbag56
(g77
g58
NtRp334
(dp335
g61
(dp336
g88
g89
ssg70
g325
sg63
(lp337
S':'
asbag56
(g77
g58
NtRp338
(dp339
g61
(dp340
sg70
g325
sg63
(lp341
g56
(g57
g58
NtRp342
(dp343
g61
(dp344
g69
I3
ssg70
g338
sg63
(lp345
S''
asbasbasbag56
(g72
g58
NtRp346
(dp347
g61
(dp348
sg70
g258
sg63
(lp349
g56
(g77
g58
NtRp350
(dp351
g61
(dp352
g81
g82
ssg70
g346
sg63
(lp353
S'max-age'
p354
asbag56
(g77
g58
NtRp355
(dp356
g61
(dp357
g88
g89
ssg70
g346
sg63
(lp358
S':'
asbag56
(g77
g58
NtRp359
(dp360
g61
(dp361
sg70
g346
sg63
(lp362
g56
(g57
g58
NtRp363
(dp364
g61
(dp365
g69
I3
ssg70
g359
sg63
(lp366
S''
asbasbasbag56
(g72
g58
NtRp367
(dp368
g61
(dp369
sg70
g258
sg63
(lp370
g56
(g77
g58
NtRp371
(dp372
g61
(dp373
g81
g82
ssg70
g367
sg63
(lp374
S'path'
p375
asbag56
(g77
g58
NtRp376
(dp377
g61
(dp378
g88
g89
ssg70
g367
sg63
(lp379
S':'
asbag56
(g77
g58
NtRp380
(dp381
g61
(dp382
sg70
g367
sg63
(lp383
g56
(g57
g58
NtRp384
(dp385
g61
(dp386
g69
I3
ssg70
g380
sg63
(lp387
S''
asbasbasbag56
(g72
g58
NtRp388
(dp389
g61
(dp390
sg70
g258
sg63
(lp391
g56
(g77
g58
NtRp392
(dp393
g61
(dp394
g81
g82
ssg70
g388
sg63
(lp395
S'secure'
p396
asbag56
(g77
g58
NtRp397
(dp398
g61
(dp399
g88
g89
ssg70
g388
sg63
(lp400
S':'
asbag56
(g77
g58
NtRp401
(dp402
g61
(dp403
sg70
g388
sg63
(lp404
g56
(g57
g58
NtRp405
(dp406
g61
(dp407
g69
I3
ssg70
g401
sg63
(lp408
S''
asbasbasbag56
(g72
g58
NtRp409
(dp410
g61
(dp411
sg70
g258
sg63
(lp412
g56
(g77
g58
NtRp413
(dp414
g61
(dp415
g81
g82
ssg70
g409
sg63
(lp416
S'version'
p417
asbag56
(g77
g58
NtRp418
(dp419
g61
(dp420
g88
g89
ssg70
g409
sg63
(lp421
S':'
asbag56
(g77
g58
NtRp422
(dp423
g61
(dp424
sg70
g409
sg63
(lp425
g56
(g57
g58
NtRp426
(dp427
g61
(dp428
g69
I3
ssg70
g422
sg63
(lp429
S''
asbasbasbasbasbasbasbasbasbasbasbag56
(g72
g58
NtRp430
(dp431
g61
(dp432
sg70
g66
sg63
(lp433
g56
(g77
g58
NtRp434
(dp435
g61
(dp436
g81
g82
ssg70
g430
sg63
(lp437
S'env'
p438
asbag56
(g77
g58
NtRp439
(dp440
g61
(dp441
g88
g89
ssg70
g430
sg63
(lp442
S':'
asbag56
(g77
g58
NtRp443
(dp444
g61
(dp445
sg70
g430
sg63
(lp446
g56
(g57
g58
NtRp447
(dp448
g61
(dp449
g69
I5
ssg70
g443
sg63
(lp450
g56
(g65
g58
NtRp451
(dp452
g61
(dp453
g69
I4
ssg70
Nsg63
(lp454
g56
(g72
g58
NtRp455
(dp456
g61
(dp457
sg70
g451
sg63
(lp458
g56
(g77
g58
NtRp459
(dp460
g61
(dp461
g81
g82
ssg70
g455
sg63
(lp462
S'app_folders'
p463
asbag56
(g77
g58
NtRp464
(dp465
g61
(dp466
g88
g89
ssg70
g455
sg63
(lp467
S':'
asbag56
(g77
g58
NtRp468
(dp469
g61
(dp470
sg70
g455
sg63
(lp471
g56
(g57
g58
NtRp472
(dp473
g61
(dp474
g69
I4
ssg70
g468
sg63
(lp475
S"set(['/home/jacobbl/SENG265/exercise2_jacob/codeAct_1.01/web2py/applications/codeAct/'])"
p476
asbasbasbag56
(g72
g58
NtRp477
(dp478
g61
(dp479
sg70
g451
sg63
(lp480
g56
(g77
g58
NtRp481
(dp482
g61
(dp483
g81
g82
ssg70
g477
sg63
(lp484
S'applications_parent'
p485
asbag56
(g77
g58
NtRp486
(dp487
g61
(dp488
g88
g89
ssg70
g477
sg63
(lp489
S':'
asbag56
(g77
g58
NtRp490
(dp491
g61
(dp492
sg70
g477
sg63
(lp493
g56
(g57
g58
NtRp494
(dp495
g61
(dp496
g69
I4
ssg70
g490
sg63
(lp497
S'/home/jacobbl/SENG265/exercise2_jacob/codeAct_1.01/web2py'
p498
asbasbasbag56
(g72
g58
NtRp499
(dp500
g61
(dp501
sg70
g451
sg63
(lp502
g56
(g77
g58
NtRp503
(dp504
g61
(dp505
g81
g82
ssg70
g499
sg63
(lp506
S'cmd_args'
p507
asbag56
(g77
g58
NtRp508
(dp509
g61
(dp510
g88
g89
ssg70
g499
sg63
(lp511
S':'
asbag56
(g77
g58
NtRp512
(dp513
g61
(dp514
sg70
g499
sg63
(lp515
g56
(g57
g58
NtRp516
(dp517
g61
(dp518
g69
I4
ssg70
g512
sg63
(lp519
g56
(g65
g58
NtRp520
(dp521
g61
(dp522
g69
I3
ssg70
Nsg63
(lp523
sbasbasbasbag56
(g72
g58
NtRp524
(dp525
g61
(dp526
sg70
g451
sg63
(lp527
g56
(g77
g58
NtRp528
(dp529
g61
(dp530
g81
g82
ssg70
g524
sg63
(lp531
S'cmd_options'
p532
asbag56
(g77
g58
NtRp533
(dp534
g61
(dp535
g88
g89
ssg70
g524
sg63
(lp536
S':'
asbag56
(g77
g58
NtRp537
(dp538
g61
(dp539
sg70
g524
sg63
(lp540
g56
(g57
g58
NtRp541
(dp542
g61
(dp543
g69
I4
ssg70
g537
sg63
(lp544
S"<Values at 0xa77024c: {'verbose': False, 'ip': '127.0.0.1', 'shutdown_timeout': 5, 'taskbar': False, 'port': 8080, 'maxthreads': None, 'softcron': False, 'server_name': 'c74', 'bpython': False, 'nogui': False, 'nocron': False, 'extcron': False, 'debuglevel': 30, 'test': None, 'folder': '/home/jacobbl/SENG265/exercise2_jacob/codeAct_1.01/web2py', 'config': '', 'import_models': False, 'winservice': '', 'shell': None, 'run': '', 'log_filename': 'httpserver.log', 'args': [''], 'profiler_filename': None, 'ssl_private_key': '', 'password': 'password', 'request_queue_size': 5, 'ssl_certificate': '', 'cronjob': False, 'plain': False, 'quiet': False, 'interfaces': None, 'minthreads': None, 'timeout': 10, 'numthreads': None, 'pid_filename': 'httpserver.pid'}>"
p545
asbasbasbag56
(g72
g58
NtRp546
(dp547
g61
(dp548
sg70
g451
sg63
(lp549
g56
(g77
g58
NtRp550
(dp551
g61
(dp552
g81
g82
ssg70
g546
sg63
(lp553
S'db_sessions'
p554
asbag56
(g77
g58
NtRp555
(dp556
g61
(dp557
g88
g89
ssg70
g546
sg63
(lp558
S':'
asbag56
(g77
g58
NtRp559
(dp560
g61
(dp561
sg70
g546
sg63
(lp562
g56
(g57
g58
NtRp563
(dp564
g61
(dp565
g69
I4
ssg70
g559
sg63
(lp566
S'set([])'
p567
asbasbasbag56
(g72
g58
NtRp568
(dp569
g61
(dp570
sg70
g451
sg63
(lp571
g56
(g77
g58
NtRp572
(dp573
g61
(dp574
g81
g82
ssg70
g568
sg63
(lp575
S'debugging'
p576
asbag56
(g77
g58
NtRp577
(dp578
g61
(dp579
g88
g89
ssg70
g568
sg63
(lp580
S':'
asbag56
(g77
g58
NtRp581
(dp582
g61
(dp583
sg70
g568
sg63
(lp584
g56
(g57
g58
NtRp585
(dp586
g61
(dp587
g69
I4
ssg70
g581
sg63
(lp588
g99
asbasbasbag56
(g72
g58
NtRp589
(dp590
g61
(dp591
sg70
g451
sg63
(lp592
g56
(g77
g58
NtRp593
(dp594
g61
(dp595
g81
g82
ssg70
g589
sg63
(lp596
S'gluon_parent'
p597
asbag56
(g77
g58
NtRp598
(dp599
g61
(dp600
g88
g89
ssg70
g589
sg63
(lp601
S':'
asbag56
(g77
g58
NtRp602
(dp603
g61
(dp604
sg70
g589
sg63
(lp605
g56
(g57
g58
NtRp606
(dp607
g61
(dp608
g69
I4
ssg70
g602
sg63
(lp609
S'/home/jacobbl/SENG265/exercise2_jacob/codeAct_1.01/web2py'
p610
asbasbasbag56
(g72
g58
NtRp611
(dp612
g61
(dp613
sg70
g451
sg63
(lp614
g56
(g77
g58
NtRp615
(dp616
g61
(dp617
g81
g82
ssg70
g611
sg63
(lp618
S'http_accept'
p619
asbag56
(g77
g58
NtRp620
(dp621
g61
(dp622
g88
g89
ssg70
g611
sg63
(lp623
S':'
asbag56
(g77
g58
NtRp624
(dp625
g61
(dp626
sg70
g611
sg63
(lp627
g56
(g57
g58
NtRp628
(dp629
g61
(dp630
g69
I4
ssg70
g624
sg63
(lp631
S'text/html,application/xhtml+xml,application/xml;q=0.9,*/*;q=0.8'
p632
asbasbasbag56
(g72
g58
NtRp633
(dp634
g61
(dp635
sg70
g451
sg63
(lp636
g56
(g77
g58
NtRp637
(dp638
g61
(dp639
g81
g82
ssg70
g633
sg63
(lp640
S'http_accept_charset'
p641
asbag56
(g77
g58
NtRp642
(dp643
g61
(dp644
g88
g89
ssg70
g633
sg63
(lp645
S':'
asbag56
(g77
g58
NtRp646
(dp647
g61
(dp648
sg70
g633
sg63
(lp649
g56
(g57
g58
NtRp650
(dp651
g61
(dp652
g69
I4
ssg70
g646
sg63
(lp653
S'ISO-8859-1,utf-8;q=0.7,*;q=0.7'
p654
asbasbasbag56
(g72
g58
NtRp655
(dp656
g61
(dp657
sg70
g451
sg63
(lp658
g56
(g77
g58
NtRp659
(dp660
g61
(dp661
g81
g82
ssg70
g655
sg63
(lp662
S'http_accept_encoding'
p663
asbag56
(g77
g58
NtRp664
(dp665
g61
(dp666
g88
g89
ssg70
g655
sg63
(lp667
S':'
asbag56
(g77
g58
NtRp668
(dp669
g61
(dp670
sg70
g655
sg63
(lp671
g56
(g57
g58
NtRp672
(dp673
g61
(dp674
g69
I4
ssg70
g668
sg63
(lp675
S'gzip,deflate'
p676
asbasbasbag56
(g72
g58
NtRp677
(dp678
g61
(dp679
sg70
g451
sg63
(lp680
g56
(g77
g58
NtRp681
(dp682
g61
(dp683
g81
g82
ssg70
g677
sg63
(lp684
S'http_accept_language'
p685
asbag56
(g77
g58
NtRp686
(dp687
g61
(dp688
g88
g89
ssg70
g677
sg63
(lp689
S':'
asbag56
(g77
g58
NtRp690
(dp691
g61
(dp692
sg70
g677
sg63
(lp693
g56
(g57
g58
NtRp694
(dp695
g61
(dp696
g69
I4
ssg70
g690
sg63
(lp697
S'en-us,en;q=0.5'
p698
asbasbasbag56
(g72
g58
NtRp699
(dp700
g61
(dp701
sg70
g451
sg63
(lp702
g56
(g77
g58
NtRp703
(dp704
g61
(dp705
g81
g82
ssg70
g699
sg63
(lp706
S'http_connection'
p707
asbag56
(g77
g58
NtRp708
(dp709
g61
(dp710
g88
g89
ssg70
g699
sg63
(lp711
S':'
asbag56
(g77
g58
NtRp712
(dp713
g61
(dp714
sg70
g699
sg63
(lp715
g56
(g57
g58
NtRp716
(dp717
g61
(dp718
g69
I4
ssg70
g712
sg63
(lp719
S'keep-alive'
p720
asbasbasbag56
(g72
g58
NtRp721
(dp722
g61
(dp723
sg70
g451
sg63
(lp724
g56
(g77
g58
NtRp725
(dp726
g61
(dp727
g81
g82
ssg70
g721
sg63
(lp728
S'http_cookie'
p729
asbag56
(g77
g58
NtRp730
(dp731
g61
(dp732
g88
g89
ssg70
g721
sg63
(lp733
S':'
asbag56
(g77
g58
NtRp734
(dp735
g61
(dp736
sg70
g721
sg63
(lp737
g56
(g57
g58
NtRp738
(dp739
g61
(dp740
g69
I4
ssg70
g734
sg63
(lp741
S'session_id_codeact=127.0.0.1-919396c9-dffc-4b6e-bb96-f08da977b37b'
p742
asbasbasbag56
(g72
g58
NtRp743
(dp744
g61
(dp745
sg70
g451
sg63
(lp746
g56
(g77
g58
NtRp747
(dp748
g61
(dp749
g81
g82
ssg70
g743
sg63
(lp750
S'http_host'
p751
asbag56
(g77
g58
NtRp752
(dp753
g61
(dp754
g88
g89
ssg70
g743
sg63
(lp755
S':'
asbag56
(g77
g58
NtRp756
(dp757
g61
(dp758
sg70
g743
sg63
(lp759
g56
(g57
g58
NtRp760
(dp761
g61
(dp762
g69
I4
ssg70
g756
sg63
(lp763
S'localhost:8080'
p764
asbasbasbag56
(g72
g58
NtRp765
(dp766
g61
(dp767
sg70
g451
sg63
(lp768
g56
(g77
g58
NtRp769
(dp770
g61
(dp771
g81
g82
ssg70
g765
sg63
(lp772
S'http_keep_alive'
p773
asbag56
(g77
g58
NtRp774
(dp775
g61
(dp776
g88
g89
ssg70
g765
sg63
(lp777
S':'
asbag56
(g77
g58
NtRp778
(dp779
g61
(dp780
sg70
g765
sg63
(lp781
g56
(g57
g58
NtRp782
(dp783
g61
(dp784
g69
I4
ssg70
g778
sg63
(lp785
S'115'
p786
asbasbasbag56
(g72
g58
NtRp787
(dp788
g61
(dp789
sg70
g451
sg63
(lp790
g56
(g77
g58
NtRp791
(dp792
g61
(dp793
g81
g82
ssg70
g787
sg63
(lp794
S'http_referer'
p795
asbag56
(g77
g58
NtRp796
(dp797
g61
(dp798
g88
g89
ssg70
g787
sg63
(lp799
S':'
asbag56
(g77
g58
NtRp800
(dp801
g61
(dp802
sg70
g787
sg63
(lp803
g56
(g57
g58
NtRp804
(dp805
g61
(dp806
g69
I4
ssg70
g800
sg63
(lp807
S'http://localhost:8080/codeAct/ca_controller/quiz.html?but=Check+answer&currqn=6'
p808
asbasbasbag56
(g72
g58
NtRp809
(dp810
g61
(dp811
sg70
g451
sg63
(lp812
g56
(g77
g58
NtRp813
(dp814
g61
(dp815
g81
g82
ssg70
g809
sg63
(lp816
S'http_user_agent'
p817
asbag56
(g77
g58
NtRp818
(dp819
g61
(dp820
g88
g89
ssg70
g809
sg63
(lp821
S':'
asbag56
(g77
g58
NtRp822
(dp823
g61
(dp824
sg70
g809
sg63
(lp825
g56
(g57
g58
NtRp826
(dp827
g61
(dp828
g69
I4
ssg70
g822
sg63
(lp829
S'Mozilla/5.0 (X11; U; Linux i686; en-US; rv:1.9.2.17) Gecko/20110422 Ubuntu/10.04 (lucid) Firefox/3.6.17'
p830
asbasbasbag56
(g72
g58
NtRp831
(dp832
g61
(dp833
sg70
g451
sg63
(lp834
g56
(g77
g58
NtRp835
(dp836
g61
(dp837
g81
g82
ssg70
g831
sg63
(lp838
S'path_info'
p839
asbag56
(g77
g58
NtRp840
(dp841
g61
(dp842
g88
g89
ssg70
g831
sg63
(lp843
S':'
asbag56
(g77
g58
NtRp844
(dp845
g61
(dp846
sg70
g831
sg63
(lp847
g56
(g57
g58
NtRp848
(dp849
g61
(dp850
g69
I4
ssg70
g844
sg63
(lp851
S'/codeAct/ca_controller/quiz.html'
p852
asbasbasbag56
(g72
g58
NtRp853
(dp854
g61
(dp855
sg70
g451
sg63
(lp856
g56
(g77
g58
NtRp857
(dp858
g61
(dp859
g81
g82
ssg70
g853
sg63
(lp860
S'query_string'
p861
asbag56
(g77
g58
NtRp862
(dp863
g61
(dp864
g88
g89
ssg70
g853
sg63
(lp865
S':'
asbag56
(g77
g58
NtRp866
(dp867
g61
(dp868
sg70
g853
sg63
(lp869
g56
(g57
g58
NtRp870
(dp871
g61
(dp872
g69
I4
ssg70
g866
sg63
(lp873
S'previousq=Previous&currqn=6'
p874
asbasbasbag56
(g72
g58
NtRp875
(dp876
g61
(dp877
sg70
g451
sg63
(lp878
g56
(g77
g58
NtRp879
(dp880
g61
(dp881
g81
g82
ssg70
g875
sg63
(lp882
S'remote_addr'
p883
asbag56
(g77
g58
NtRp884
(dp885
g61
(dp886
g88
g89
ssg70
g875
sg63
(lp887
S':'
asbag56
(g77
g58
NtRp888
(dp889
g61
(dp890
sg70
g875
sg63
(lp891
g56
(g57
g58
NtRp892
(dp893
g61
(dp894
g69
I4
ssg70
g888
sg63
(lp895
g189
asbasbasbag56
(g72
g58
NtRp896
(dp897
g61
(dp898
sg70
g451
sg63
(lp899
g56
(g77
g58
NtRp900
(dp901
g61
(dp902
g81
g82
ssg70
g896
sg63
(lp903
S'remote_port'
p904
asbag56
(g77
g58
NtRp905
(dp906
g61
(dp907
g88
g89
ssg70
g896
sg63
(lp908
S':'
asbag56
(g77
g58
NtRp909
(dp910
g61
(dp911
sg70
g896
sg63
(lp912
g56
(g57
g58
NtRp913
(dp914
g61
(dp915
g69
I4
ssg70
g909
sg63
(lp916
S'50963'
p917
asbasbasbag56
(g72
g58
NtRp918
(dp919
g61
(dp920
sg70
g451
sg63
(lp921
g56
(g77
g58
NtRp922
(dp923
g61
(dp924
g81
g82
ssg70
g918
sg63
(lp925
S'request_method'
p926
asbag56
(g77
g58
NtRp927
(dp928
g61
(dp929
g88
g89
ssg70
g918
sg63
(lp930
S':'
asbag56
(g77
g58
NtRp931
(dp932
g61
(dp933
sg70
g918
sg63
(lp934
g56
(g57
g58
NtRp935
(dp936
g61
(dp937
g69
I4
ssg70
g931
sg63
(lp938
S'GET'
p939
asbasbasbag56
(g72
g58
NtRp940
(dp941
g61
(dp942
sg70
g451
sg63
(lp943
g56
(g77
g58
NtRp944
(dp945
g61
(dp946
g81
g82
ssg70
g940
sg63
(lp947
S'script_name'
p948
asbag56
(g77
g58
NtRp949
(dp950
g61
(dp951
g88
g89
ssg70
g940
sg63
(lp952
S':'
asbag56
(g77
g58
NtRp953
(dp954
g61
(dp955
sg70
g940
sg63
(lp956
g56
(g57
g58
NtRp957
(dp958
g61
(dp959
g69
I4
ssg70
g953
sg63
(lp960
S''
asbasbasbag56
(g72
g58
NtRp961
(dp962
g61
(dp963
sg70
g451
sg63
(lp964
g56
(g77
g58
NtRp965
(dp966
g61
(dp967
g81
g82
ssg70
g961
sg63
(lp968
S'server_name'
p969
asbag56
(g77
g58
NtRp970
(dp971
g61
(dp972
g88
g89
ssg70
g961
sg63
(lp973
S':'
asbag56
(g77
g58
NtRp974
(dp975
g61
(dp976
sg70
g961
sg63
(lp977
g56
(g57
g58
NtRp978
(dp979
g61
(dp980
g69
I4
ssg70
g974
sg63
(lp981
S'c74'
p982
asbasbasbag56
(g72
g58
NtRp983
(dp984
g61
(dp985
sg70
g451
sg63
(lp986
g56
(g77
g58
NtRp987
(dp988
g61
(dp989
g81
g82
ssg70
g983
sg63
(lp990
S'server_port'
p991
asbag56
(g77
g58
NtRp992
(dp993
g61
(dp994
g88
g89
ssg70
g983
sg63
(lp995
S':'
asbag56
(g77
g58
NtRp996
(dp997
g61
(dp998
sg70
g983
sg63
(lp999
g56
(g57
g58
NtRp1000
(dp1001
g61
(dp1002
g69
I4
ssg70
g996
sg63
(lp1003
S'8080'
p1004
asbasbasbag56
(g72
g58
NtRp1005
(dp1006
g61
(dp1007
sg70
g451
sg63
(lp1008
g56
(g77
g58
NtRp1009
(dp1010
g61
(dp1011
g81
g82
ssg70
g1005
sg63
(lp1012
S'server_protocol'
p1013
asbag56
(g77
g58
NtRp1014
(dp1015
g61
(dp1016
g88
g89
ssg70
g1005
sg63
(lp1017
S':'
asbag56
(g77
g58
NtRp1018
(dp1019
g61
(dp1020
sg70
g1005
sg63
(lp1021
g56
(g57
g58
NtRp1022
(dp1023
g61
(dp1024
g69
I4
ssg70
g1018
sg63
(lp1025
S'HTTP/1.1'
p1026
asbasbasbag56
(g72
g58
NtRp1027
(dp1028
g61
(dp1029
sg70
g451
sg63
(lp1030
g56
(g77
g58
NtRp1031
(dp1032
g61
(dp1033
g81
g82
ssg70
g1027
sg63
(lp1034
S'server_software'
p1035
asbag56
(g77
g58
NtRp1036
(dp1037
g61
(dp1038
g88
g89
ssg70
g1027
sg63
(lp1039
S':'
asbag56
(g77
g58
NtRp1040
(dp1041
g61
(dp1042
sg70
g1027
sg63
(lp1043
g56
(g57
g58
NtRp1044
(dp1045
g61
(dp1046
g69
I4
ssg70
g1040
sg63
(lp1047
S'Rocket 1.2.2'
p1048
asbasbasbag56
(g72
g58
NtRp1049
(dp1050
g61
(dp1051
sg70
g451
sg63
(lp1052
g56
(g77
g58
NtRp1053
(dp1054
g61
(dp1055
g81
g82
ssg70
g1049
sg63
(lp1056
S'web2py_crontype'
p1057
asbag56
(g77
g58
NtRp1058
(dp1059
g61
(dp1060
g88
g89
ssg70
g1049
sg63
(lp1061
S':'
asbag56
(g77
g58
NtRp1062
(dp1063
g61
(dp1064
sg70
g1049
sg63
(lp1065
g56
(g57
g58
NtRp1066
(dp1067
g61
(dp1068
g69
I4
ssg70
g1062
sg63
(lp1069
S'hard'
p1070
asbasbasbag56
(g72
g58
NtRp1071
(dp1072
g61
(dp1073
sg70
g451
sg63
(lp1074
g56
(g77
g58
NtRp1075
(dp1076
g61
(dp1077
g81
g82
ssg70
g1071
sg63
(lp1078
S'web2py_path'
p1079
asbag56
(g77
g58
NtRp1080
(dp1081
g61
(dp1082
g88
g89
ssg70
g1071
sg63
(lp1083
S':'
asbag56
(g77
g58
NtRp1084
(dp1085
g61
(dp1086
sg70
g1071
sg63
(lp1087
g56
(g57
g58
NtRp1088
(dp1089
g61
(dp1090
g69
I4
ssg70
g1084
sg63
(lp1091
g498
asbasbasbag56
(g72
g58
NtRp1092
(dp1093
g61
(dp1094
sg70
g451
sg63
(lp1095
g56
(g77
g58
NtRp1096
(dp1097
g61
(dp1098
g81
g82
ssg70
g1092
sg63
(lp1099
S'web2py_version'
p1100
asbag56
(g77
g58
NtRp1101
(dp1102
g61
(dp1103
g88
g89
ssg70
g1092
sg63
(lp1104
S':'
asbag56
(g77
g58
NtRp1105
(dp1106
g61
(dp1107
sg70
g1092
sg63
(lp1108
g56
(g57
g58
NtRp1109
(dp1110
g61
(dp1111
g69
I4
ssg70
g1105
sg63
(lp1112
S'Version 1.95.1 (2011-04-25 15:04:14)\n'
p1113
asbasbasbag56
(g72
g58
NtRp1114
(dp1115
g61
(dp1116
sg70
g451
sg63
(lp1117
g56
(g77
g58
NtRp1118
(dp1119
g61
(dp1120
g81
g82
ssg70
g1114
sg63
(lp1121
S'wsgi_errors'
p1122
asbag56
(g77
g58
NtRp1123
(dp1124
g61
(dp1125
g88
g89
ssg70
g1114
sg63
(lp1126
S':'
asbag56
(g77
g58
NtRp1127
(dp1128
g61
(dp1129
sg70
g1114
sg63
(lp1130
g56
(g57
g58
NtRp1131
(dp1132
g61
(dp1133
g69
I4
ssg70
g1127
sg63
(lp1134
S"<open file '<stderr>', mode 'w' at 0xb784a0d0>"
p1135
asbasbasbag56
(g72
g58
NtRp1136
(dp1137
g61
(dp1138
sg70
g451
sg63
(lp1139
g56
(g77
g58
NtRp1140
(dp1141
g61
(dp1142
g81
g82
ssg70
g1136
sg63
(lp1143
S'wsgi_file_wrapper'
p1144
asbag56
(g77
g58
NtRp1145
(dp1146
g61
(dp1147
g88
g89
ssg70
g1136
sg63
(lp1148
S':'
asbag56
(g77
g58
NtRp1149
(dp1150
g61
(dp1151
sg70
g1136
sg63
(lp1152
g56
(g57
g58
NtRp1153
(dp1154
g61
(dp1155
g69
I4
ssg70
g1149
sg63
(lp1156
S'<class gluon.rocket.FileWrapper at 0xa73744c>'
p1157
asbasbasbag56
(g72
g58
NtRp1158
(dp1159
g61
(dp1160
sg70
g451
sg63
(lp1161
g56
(g77
g58
NtRp1162
(dp1163
g61
(dp1164
g81
g82
ssg70
g1158
sg63
(lp1165
S'wsgi_input'
p1166
asbag56
(g77
g58
NtRp1167
(dp1168
g61
(dp1169
g88
g89
ssg70
g1158
sg63
(lp1170
S':'
asbag56
(g77
g58
NtRp1171
(dp1172
g61
(dp1173
sg70
g1158
sg63
(lp1174
g56
(g57
g58
NtRp1175
(dp1176
g61
(dp1177
g69
I4
ssg70
g1171
sg63
(lp1178
S'<socket._fileobject object at 0xa8b8e2c>'
p1179
asbasbasbag56
(g72
g58
NtRp1180
(dp1181
g61
(dp1182
sg70
g451
sg63
(lp1183
g56
(g77
g58
NtRp1184
(dp1185
g61
(dp1186
g81
g82
ssg70
g1180
sg63
(lp1187
S'wsgi_multiprocess'
p1188
asbag56
(g77
g58
NtRp1189
(dp1190
g61
(dp1191
g88
g89
ssg70
g1180
sg63
(lp1192
S':'
asbag56
(g77
g58
NtRp1193
(dp1194
g61
(dp1195
sg70
g1180
sg63
(lp1196
g56
(g57
g58
NtRp1197
(dp1198
g61
(dp1199
g69
I4
ssg70
g1193
sg63
(lp1200
g99
asbasbasbag56
(g72
g58
NtRp1201
(dp1202
g61
(dp1203
sg70
g451
sg63
(lp1204
g56
(g77
g58
NtRp1205
(dp1206
g61
(dp1207
g81
g82
ssg70
g1201
sg63
(lp1208
S'wsgi_multithread'
p1209
asbag56
(g77
g58
NtRp1210
(dp1211
g61
(dp1212
g88
g89
ssg70
g1201
sg63
(lp1213
S':'
asbag56
(g77
g58
NtRp1214
(dp1215
g61
(dp1216
sg70
g1201
sg63
(lp1217
g56
(g57
g58
NtRp1218
(dp1219
g61
(dp1220
g69
I4
ssg70
g1214
sg63
(lp1221
S'True'
p1222
asbasbasbag56
(g72
g58
NtRp1223
(dp1224
g61
(dp1225
sg70
g451
sg63
(lp1226
g56
(g77
g58
NtRp1227
(dp1228
g61
(dp1229
g81
g82
ssg70
g1223
sg63
(lp1230
S'wsgi_run_once'
p1231
asbag56
(g77
g58
NtRp1232
(dp1233
g61
(dp1234
g88
g89
ssg70
g1223
sg63
(lp1235
S':'
asbag56
(g77
g58
NtRp1236
(dp1237
g61
(dp1238
sg70
g1223
sg63
(lp1239
g56
(g57
g58
NtRp1240
(dp1241
g61
(dp1242
g69
I4
ssg70
g1236
sg63
(lp1243
g99
asbasbasbag56
(g72
g58
NtRp1244
(dp1245
g61
(dp1246
sg70
g451
sg63
(lp1247
g56
(g77
g58
NtRp1248
(dp1249
g61
(dp1250
g81
g82
ssg70
g1244
sg63
(lp1251
S'wsgi_url_scheme'
p1252
asbag56
(g77
g58
NtRp1253
(dp1254
g61
(dp1255
g88
g89
ssg70
g1244
sg63
(lp1256
S':'
asbag56
(g77
g58
NtRp1257
(dp1258
g61
(dp1259
sg70
g1244
sg63
(lp1260
g56
(g57
g58
NtRp1261
(dp1262
g61
(dp1263
g69
I4
ssg70
g1257
sg63
(lp1264
S'http'
p1265
asbasbasbag56
(g72
g58
NtRp1266
(dp1267
g61
(dp1268
sg70
g451
sg63
(lp1269
g56
(g77
g58
NtRp1270
(dp1271
g61
(dp1272
g81
g82
ssg70
g1266
sg63
(lp1273
S'wsgi_version'
p1274
asbag56
(g77
g58
NtRp1275
(dp1276
g61
(dp1277
g88
g89
ssg70
g1266
sg63
(lp1278
S':'
asbag56
(g77
g58
NtRp1279
(dp1280
g61
(dp1281
sg70
g1266
sg63
(lp1282
g56
(g57
g58
NtRp1283
(dp1284
g61
(dp1285
g69
I4
ssg70
g1279
sg63
(lp1286
g56
(g65
g58
NtRp1287
(dp1288
g61
(dp1289
g69
I3
ssg70
Nsg63
(lp1290
g56
(g72
g58
NtRp1291
(dp1292
g61
(dp1293
sg70
g1287
sg63
(lp1294
g56
(g77
g58
NtRp1295
(dp1296
g61
(dp1297
sg70
g1291
sg63
(lp1298
g56
(g57
g58
NtRp1299
(dp1300
g61
(dp1301
g69
I3
ssg70
g1295
sg63
(lp1302
S'1'
asbasbasbag56
(g72
g58
NtRp1303
(dp1304
g61
(dp1305
sg70
g1287
sg63
(lp1306
g56
(g77
g58
NtRp1307
(dp1308
g61
(dp1309
sg70
g1303
sg63
(lp1310
g56
(g57
g58
NtRp1311
(dp1312
g61
(dp1313
g69
I3
ssg70
g1307
sg63
(lp1314
S'0'
asbasbasbasbasbasbasbasbasbasbasbag56
(g72
g58
NtRp1315
(dp1316
g61
(dp1317
sg70
g66
sg63
(lp1318
g56
(g77
g58
NtRp1319
(dp1320
g61
(dp1321
g81
g82
ssg70
g1315
sg63
(lp1322
S'extension'
p1323
asbag56
(g77
g58
NtRp1324
(dp1325
g61
(dp1326
g88
g89
ssg70
g1315
sg63
(lp1327
S':'
asbag56
(g77
g58
NtRp1328
(dp1329
g61
(dp1330
sg70
g1315
sg63
(lp1331
g56
(g57
g58
NtRp1332
(dp1333
g61
(dp1334
g69
I5
ssg70
g1328
sg63
(lp1335
S'html'
p1336
asbasbasbag56
(g72
g58
NtRp1337
(dp1338
g61
(dp1339
sg70
g66
sg63
(lp1340
g56
(g77
g58
NtRp1341
(dp1342
g61
(dp1343
g81
g82
ssg70
g1337
sg63
(lp1344
S'folder'
p1345
asbag56
(g77
g58
NtRp1346
(dp1347
g61
(dp1348
g88
g89
ssg70
g1337
sg63
(lp1349
S':'
asbag56
(g77
g58
NtRp1350
(dp1351
g61
(dp1352
sg70
g1337
sg63
(lp1353
g56
(g57
g58
NtRp1354
(dp1355
g61
(dp1356
g69
I5
ssg70
g1350
sg63
(lp1357
S'/home/jacobbl/SENG265/exercise2_jacob/codeAct_1.01/web2py/applications/codeAct/'
p1358
asbasbasbag56
(g72
g58
NtRp1359
(dp1360
g61
(dp1361
sg70
g66
sg63
(lp1362
g56
(g77
g58
NtRp1363
(dp1364
g61
(dp1365
g81
g82
ssg70
g1359
sg63
(lp1366
S'function'
p1367
asbag56
(g77
g58
NtRp1368
(dp1369
g61
(dp1370
g88
g89
ssg70
g1359
sg63
(lp1371
S':'
asbag56
(g77
g58
NtRp1372
(dp1373
g61
(dp1374
sg70
g1359
sg63
(lp1375
g56
(g57
g58
NtRp1376
(dp1377
g61
(dp1378
g69
I5
ssg70
g1372
sg63
(lp1379
S'quiz'
p1380
asbasbasbag56
(g72
g58
NtRp1381
(dp1382
g61
(dp1383
sg70
g66
sg63
(lp1384
g56
(g77
g58
NtRp1385
(dp1386
g61
(dp1387
g81
g82
ssg70
g1381
sg63
(lp1388
S'get_vars'
p1389
asbag56
(g77
g58
NtRp1390
(dp1391
g61
(dp1392
g88
g89
ssg70
g1381
sg63
(lp1393
S':'
asbag56
(g77
g58
NtRp1394
(dp1395
g61
(dp1396
sg70
g1381
sg63
(lp1397
g56
(g57
g58
NtRp1398
(dp1399
g61
(dp1400
g69
I5
ssg70
g1394
sg63
(lp1401
g56
(g65
g58
NtRp1402
(dp1403
g61
(dp1404
g69
I4
ssg70
Nsg63
(lp1405
g56
(g72
g58
NtRp1406
(dp1407
g61
(dp1408
sg70
g1402
sg63
(lp1409
g56
(g77
g58
NtRp1410
(dp1411
g61
(dp1412
g81
g82
ssg70
g1406
sg63
(lp1413
S'currqn'
p1414
asbag56
(g77
g58
NtRp1415
(dp1416
g61
(dp1417
g88
g89
ssg70
g1406
sg63
(lp1418
S':'
asbag56
(g77
g58
NtRp1419
(dp1420
g61
(dp1421
sg70
g1406
sg63
(lp1422
g56
(g57
g58
NtRp1423
(dp1424
g61
(dp1425
g69
I4
ssg70
g1419
sg63
(lp1426
S'6'
asbasbasbag56
(g72
g58
NtRp1427
(dp1428
g61
(dp1429
sg70
g1402
sg63
(lp1430
g56
(g77
g58
NtRp1431
(dp1432
g61
(dp1433
g81
g82
ssg70
g1427
sg63
(lp1434
S'previousq'
p1435
asbag56
(g77
g58
NtRp1436
(dp1437
g61
(dp1438
g88
g89
ssg70
g1427
sg63
(lp1439
S':'
asbag56
(g77
g58
NtRp1440
(dp1441
g61
(dp1442
sg70
g1427
sg63
(lp1443
g56
(g57
g58
NtRp1444
(dp1445
g61
(dp1446
g69
I4
ssg70
g1440
sg63
(lp1447
S'Previous'
p1448
asbasbasbasbasbasbasbag56
(g72
g58
NtRp1449
(dp1450
g61
(dp1451
sg70
g66
sg63
(lp1452
g56
(g77
g58
NtRp1453
(dp1454
g61
(dp1455
g81
g82
ssg70
g1449
sg63
(lp1456
S'is_restful'
p1457
asbag56
(g77
g58
NtRp1458
(dp1459
g61
(dp1460
g88
g89
ssg70
g1449
sg63
(lp1461
S':'
asbag56
(g77
g58
NtRp1462
(dp1463
g61
(dp1464
sg70
g1449
sg63
(lp1465
g56
(g57
g58
NtRp1466
(dp1467
g61
(dp1468
g69
I5
ssg70
g1462
sg63
(lp1469
g99
asbasbasbag56
(g72
g58
NtRp1470
(dp1471
g61
(dp1472
sg70
g66
sg63
(lp1473
g56
(g77
g58
NtRp1474
(dp1475
g61
(dp1476
g81
g82
ssg70
g1470
sg63
(lp1477
S'now'
p1478
asbag56
(g77
g58
NtRp1479
(dp1480
g61
(dp1481
g88
g89
ssg70
g1470
sg63
(lp1482
S':'
asbag56
(g77
g58
NtRp1483
(dp1484
g61
(dp1485
sg70
g1470
sg63
(lp1486
g56
(g57
g58
NtRp1487
(dp1488
g61
(dp1489
g69
I5
ssg70
g1483
sg63
(lp1490
S'datetime.datetime(2011, 7, 2, 15, 57, 15, 372000)'
p1491
asbasbasbag56
(g72
g58
NtRp1492
(dp1493
g61
(dp1494
sg70
g66
sg63
(lp1495
g56
(g77
g58
NtRp1496
(dp1497
g61
(dp1498
g81
g82
ssg70
g1492
sg63
(lp1499
S'post_vars'
p1500
asbag56
(g77
g58
NtRp1501
(dp1502
g61
(dp1503
g88
g89
ssg70
g1492
sg63
(lp1504
S':'
asbag56
(g77
g58
NtRp1505
(dp1506
g61
(dp1507
sg70
g1492
sg63
(lp1508
g56
(g57
g58
NtRp1509
(dp1510
g61
(dp1511
g69
I5
ssg70
g1505
sg63
(lp1512
g56
(g65
g58
NtRp1513
(dp1514
g61
(dp1515
g69
I4
ssg70
Nsg63
(lp1516
sbasbasbasbag56
(g72
g58
NtRp1517
(dp1518
g61
(dp1519
sg70
g66
sg63
(lp1520
g56
(g77
g58
NtRp1521
(dp1522
g61
(dp1523
g81
g82
ssg70
g1517
sg63
(lp1524
S'raw_extension'
p1525
asbag56
(g77
g58
NtRp1526
(dp1527
g61
(dp1528
g88
g89
ssg70
g1517
sg63
(lp1529
S':'
asbag56
(g77
g58
NtRp1530
(dp1531
g61
(dp1532
sg70
g1517
sg63
(lp1533
g56
(g57
g58
NtRp1534
(dp1535
g61
(dp1536
g69
I5
ssg70
g1530
sg63
(lp1537
g1336
asbasbasbag56
(g72
g58
NtRp1538
(dp1539
g61
(dp1540
sg70
g66
sg63
(lp1541
g56
(g77
g58
NtRp1542
(dp1543
g61
(dp1544
g81
g82
ssg70
g1538
sg63
(lp1545
S'url'
p1546
asbag56
(g77
g58
NtRp1547
(dp1548
g61
(dp1549
g88
g89
ssg70
g1538
sg63
(lp1550
S':'
asbag56
(g77
g58
NtRp1551
(dp1552
g61
(dp1553
sg70
g1538
sg63
(lp1554
g56
(g57
g58
NtRp1555
(dp1556
g61
(dp1557
g69
I5
ssg70
g1551
sg63
(lp1558
S'/codeAct/ca_controller/quiz.html'
p1559
asbasbasbag56
(g72
g58
NtRp1560
(dp1561
g61
(dp1562
sg70
g66
sg63
(lp1563
g56
(g77
g58
NtRp1564
(dp1565
g61
(dp1566
g81
g82
ssg70
g1560
sg63
(lp1567
S'uuid'
p1568
asbag56
(g77
g58
NtRp1569
(dp1570
g61
(dp1571
g88
g89
ssg70
g1560
sg63
(lp1572
S':'
asbag56
(g77
g58
NtRp1573
(dp1574
g61
(dp1575
sg70
g1560
sg63
(lp1576
g56
(g57
g58
NtRp1577
(dp1578
g61
(dp1579
g69
I5
ssg70
g1573
sg63
(lp1580
S'codeAct/127.0.0.1.2011-07-02.15-57-15.e2842542-28e6-4241-9cc9-7498179ea03e'
p1581
asbasbasbag56
(g72
g58
NtRp1582
(dp1583
g61
(dp1584
sg70
g66
sg63
(lp1585
g56
(g77
g58
NtRp1586
(dp1587
g61
(dp1588
g81
g82
ssg70
g1582
sg63
(lp1589
S'vars'
p1590
asbag56
(g77
g58
NtRp1591
(dp1592
g61
(dp1593
g88
g89
ssg70
g1582
sg63
(lp1594
S':'
asbag56
(g77
g58
NtRp1595
(dp1596
g61
(dp1597
sg70
g1582
sg63
(lp1598
g56
(g57
g58
NtRp1599
(dp1600
g61
(dp1601
g69
I5
ssg70
g1595
sg63
(lp1602
g56
(g65
g58
NtRp1603
(dp1604
g61
(dp1605
g69
I4
ssg70
Nsg63
(lp1606
g56
(g72
g58
NtRp1607
(dp1608
g61
(dp1609
sg70
g1603
sg63
(lp1610
g56
(g77
g58
NtRp1611
(dp1612
g61
(dp1613
g81
g82
ssg70
g1607
sg63
(lp1614
g1414
asbag56
(g77
g58
NtRp1615
(dp1616
g61
(dp1617
g88
g89
ssg70
g1607
sg63
(lp1618
S':'
asbag56
(g77
g58
NtRp1619
(dp1620
g61
(dp1621
sg70
g1607
sg63
(lp1622
g56
(g57
g58
NtRp1623
(dp1624
g61
(dp1625
g69
I4
ssg70
g1619
sg63
(lp1626
S'6'
asbasbasbag56
(g72
g58
NtRp1627
(dp1628
g61
(dp1629
sg70
g1603
sg63
(lp1630
g56
(g77
g58
NtRp1631
(dp1632
g61
(dp1633
g81
g82
ssg70
g1627
sg63
(lp1634
g1435
asbag56
(g77
g58
NtRp1635
(dp1636
g61
(dp1637
g88
g89
ssg70
g1627
sg63
(lp1638
S':'
asbag56
(g77
g58
NtRp1639
(dp1640
g61
(dp1641
sg70
g1627
sg63
(lp1642
g56
(g57
g58
NtRp1643
(dp1644
g61
(dp1645
g69
I4
ssg70
g1639
sg63
(lp1646
g1448
asbasbasbasbasbasbasbag56
(g72
g58
NtRp1647
(dp1648
g61
(dp1649
sg70
g66
sg63
(lp1650
g56
(g77
g58
NtRp1651
(dp1652
g61
(dp1653
g81
g82
ssg70
g1647
sg63
(lp1654
S'wsgi'
p1655
asbag56
(g77
g58
NtRp1656
(dp1657
g61
(dp1658
g88
g89
ssg70
g1647
sg63
(lp1659
S':'
asbag56
(g77
g58
NtRp1660
(dp1661
g61
(dp1662
sg70
g1647
sg63
(lp1663
g56
(g57
g58
NtRp1664
(dp1665
g61
(dp1666
g69
I5
ssg70
g1660
sg63
(lp1667
g56
(g65
g58
NtRp1668
(dp1669
g61
(dp1670
g69
I4
ssg70
Nsg63
(lp1671
g56
(g72
g58
NtRp1672
(dp1673
g61
(dp1674
sg70
g1668
sg63
(lp1675
g56
(g77
g58
NtRp1676
(dp1677
g61
(dp1678
g81
g82
ssg70
g1672
sg63
(lp1679
S'environ'
p1680
asbag56
(g77
g58
NtRp1681
(dp1682
g61
(dp1683
g88
g89
ssg70
g1672
sg63
(lp1684
S':'
asbag56
(g77
g58
NtRp1685
(dp1686
g61
(dp1687
sg70
g1672
sg63
(lp1688
g56
(g57
g58
NtRp1689
(dp1690
g61
(dp1691
g69
I4
ssg70
g1685
sg63
(lp1692
g56
(g65
g58
NtRp1693
(dp1694
g61
(dp1695
g69
I3
ssg70
Nsg63
(lp1696
g56
(g72
g58
NtRp1697
(dp1698
g61
(dp1699
sg70
g1693
sg63
(lp1700
g56
(g77
g58
NtRp1701
(dp1702
g61
(dp1703
g81
g82
ssg70
g1697
sg63
(lp1704
S'HTTP_ACCEPT'
p1705
asbag56
(g77
g58
NtRp1706
(dp1707
g61
(dp1708
g88
g89
ssg70
g1697
sg63
(lp1709
S':'
asbag56
(g77
g58
NtRp1710
(dp1711
g61
(dp1712
sg70
g1697
sg63
(lp1713
g56
(g57
g58
NtRp1714
(dp1715
g61
(dp1716
g69
I3
ssg70
g1710
sg63
(lp1717
g632
asbasbasbag56
(g72
g58
NtRp1718
(dp1719
g61
(dp1720
sg70
g1693
sg63
(lp1721
g56
(g77
g58
NtRp1722
(dp1723
g61
(dp1724
g81
g82
ssg70
g1718
sg63
(lp1725
S'HTTP_ACCEPT_CHARSET'
p1726
asbag56
(g77
g58
NtRp1727
(dp1728
g61
(dp1729
g88
g89
ssg70
g1718
sg63
(lp1730
S':'
asbag56
(g77
g58
NtRp1731
(dp1732
g61
(dp1733
sg70
g1718
sg63
(lp1734
g56
(g57
g58
NtRp1735
(dp1736
g61
(dp1737
g69
I3
ssg70
g1731
sg63
(lp1738
g654
asbasbasbag56
(g72
g58
NtRp1739
(dp1740
g61
(dp1741
sg70
g1693
sg63
(lp1742
g56
(g77
g58
NtRp1743
(dp1744
g61
(dp1745
g81
g82
ssg70
g1739
sg63
(lp1746
S'HTTP_ACCEPT_ENCODING'
p1747
asbag56
(g77
g58
NtRp1748
(dp1749
g61
(dp1750
g88
g89
ssg70
g1739
sg63
(lp1751
S':'
asbag56
(g77
g58
NtRp1752
(dp1753
g61
(dp1754
sg70
g1739
sg63
(lp1755
g56
(g57
g58
NtRp1756
(dp1757
g61
(dp1758
g69
I3
ssg70
g1752
sg63
(lp1759
g676
asbasbasbag56
(g72
g58
NtRp1760
(dp1761
g61
(dp1762
sg70
g1693
sg63
(lp1763
g56
(g77
g58
NtRp1764
(dp1765
g61
(dp1766
g81
g82
ssg70
g1760
sg63
(lp1767
S'HTTP_ACCEPT_LANGUAGE'
p1768
asbag56
(g77
g58
NtRp1769
(dp1770
g61
(dp1771
g88
g89
ssg70
g1760
sg63
(lp1772
S':'
asbag56
(g77
g58
NtRp1773
(dp1774
g61
(dp1775
sg70
g1760
sg63
(lp1776
g56
(g57
g58
NtRp1777
(dp1778
g61
(dp1779
g69
I3
ssg70
g1773
sg63
(lp1780
g698
asbasbasbag56
(g72
g58
NtRp1781
(dp1782
g61
(dp1783
sg70
g1693
sg63
(lp1784
g56
(g77
g58
NtRp1785
(dp1786
g61
(dp1787
g81
g82
ssg70
g1781
sg63
(lp1788
S'HTTP_CONNECTION'
p1789
asbag56
(g77
g58
NtRp1790
(dp1791
g61
(dp1792
g88
g89
ssg70
g1781
sg63
(lp1793
S':'
asbag56
(g77
g58
NtRp1794
(dp1795
g61
(dp1796
sg70
g1781
sg63
(lp1797
g56
(g57
g58
NtRp1798
(dp1799
g61
(dp1800
g69
I3
ssg70
g1794
sg63
(lp1801
g720
asbasbasbag56
(g72
g58
NtRp1802
(dp1803
g61
(dp1804
sg70
g1693
sg63
(lp1805
g56
(g77
g58
NtRp1806
(dp1807
g61
(dp1808
g81
g82
ssg70
g1802
sg63
(lp1809
S'HTTP_COOKIE'
p1810
asbag56
(g77
g58
NtRp1811
(dp1812
g61
(dp1813
g88
g89
ssg70
g1802
sg63
(lp1814
S':'
asbag56
(g77
g58
NtRp1815
(dp1816
g61
(dp1817
sg70
g1802
sg63
(lp1818
g56
(g57
g58
NtRp1819
(dp1820
g61
(dp1821
g69
I3
ssg70
g1815
sg63
(lp1822
g742
asbasbasbag56
(g72
g58
NtRp1823
(dp1824
g61
(dp1825
sg70
g1693
sg63
(lp1826
g56
(g77
g58
NtRp1827
(dp1828
g61
(dp1829
g81
g82
ssg70
g1823
sg63
(lp1830
S'HTTP_HOST'
p1831
asbag56
(g77
g58
NtRp1832
(dp1833
g61
(dp1834
g88
g89
ssg70
g1823
sg63
(lp1835
S':'
asbag56
(g77
g58
NtRp1836
(dp1837
g61
(dp1838
sg70
g1823
sg63
(lp1839
g56
(g57
g58
NtRp1840
(dp1841
g61
(dp1842
g69
I3
ssg70
g1836
sg63
(lp1843
g764
asbasbasbag56
(g72
g58
NtRp1844
(dp1845
g61
(dp1846
sg70
g1693
sg63
(lp1847
g56
(g77
g58
NtRp1848
(dp1849
g61
(dp1850
g81
g82
ssg70
g1844
sg63
(lp1851
S'HTTP_KEEP_ALIVE'
p1852
asbag56
(g77
g58
NtRp1853
(dp1854
g61
(dp1855
g88
g89
ssg70
g1844
sg63
(lp1856
S':'
asbag56
(g77
g58
NtRp1857
(dp1858
g61
(dp1859
sg70
g1844
sg63
(lp1860
g56
(g57
g58
NtRp1861
(dp1862
g61
(dp1863
g69
I3
ssg70
g1857
sg63
(lp1864
g786
asbasbasbag56
(g72
g58
NtRp1865
(dp1866
g61
(dp1867
sg70
g1693
sg63
(lp1868
g56
(g77
g58
NtRp1869
(dp1870
g61
(dp1871
g81
g82
ssg70
g1865
sg63
(lp1872
S'HTTP_REFERER'
p1873
asbag56
(g77
g58
NtRp1874
(dp1875
g61
(dp1876
g88
g89
ssg70
g1865
sg63
(lp1877
S':'
asbag56
(g77
g58
NtRp1878
(dp1879
g61
(dp1880
sg70
g1865
sg63
(lp1881
g56
(g57
g58
NtRp1882
(dp1883
g61
(dp1884
g69
I3
ssg70
g1878
sg63
(lp1885
g808
asbasbasbag56
(g72
g58
NtRp1886
(dp1887
g61
(dp1888
sg70
g1693
sg63
(lp1889
g56
(g77
g58
NtRp1890
(dp1891
g61
(dp1892
g81
g82
ssg70
g1886
sg63
(lp1893
S'HTTP_USER_AGENT'
p1894
asbag56
(g77
g58
NtRp1895
(dp1896
g61
(dp1897
g88
g89
ssg70
g1886
sg63
(lp1898
S':'
asbag56
(g77
g58
NtRp1899
(dp1900
g61
(dp1901
sg70
g1886
sg63
(lp1902
g56
(g57
g58
NtRp1903
(dp1904
g61
(dp1905
g69
I3
ssg70
g1899
sg63
(lp1906
g830
asbasbasbag56
(g72
g58
NtRp1907
(dp1908
g61
(dp1909
sg70
g1693
sg63
(lp1910
g56
(g77
g58
NtRp1911
(dp1912
g61
(dp1913
g81
g82
ssg70
g1907
sg63
(lp1914
S'PATH_INFO'
p1915
asbag56
(g77
g58
NtRp1916
(dp1917
g61
(dp1918
g88
g89
ssg70
g1907
sg63
(lp1919
S':'
asbag56
(g77
g58
NtRp1920
(dp1921
g61
(dp1922
sg70
g1907
sg63
(lp1923
g56
(g57
g58
NtRp1924
(dp1925
g61
(dp1926
g69
I3
ssg70
g1920
sg63
(lp1927
g852
asbasbasbag56
(g72
g58
NtRp1928
(dp1929
g61
(dp1930
sg70
g1693
sg63
(lp1931
g56
(g77
g58
NtRp1932
(dp1933
g61
(dp1934
g81
g82
ssg70
g1928
sg63
(lp1935
S'QUERY_STRING'
p1936
asbag56
(g77
g58
NtRp1937
(dp1938
g61
(dp1939
g88
g89
ssg70
g1928
sg63
(lp1940
S':'
asbag56
(g77
g58
NtRp1941
(dp1942
g61
(dp1943
sg70
g1928
sg63
(lp1944
g56
(g57
g58
NtRp1945
(dp1946
g61
(dp1947
g69
I3
ssg70
g1941
sg63
(lp1948
g874
asbasbasbag56
(g72
g58
NtRp1949
(dp1950
g61
(dp1951
sg70
g1693
sg63
(lp1952
g56
(g77
g58
NtRp1953
(dp1954
g61
(dp1955
g81
g82
ssg70
g1949
sg63
(lp1956
S'REMOTE_ADDR'
p1957
asbag56
(g77
g58
NtRp1958
(dp1959
g61
(dp1960
g88
g89
ssg70
g1949
sg63
(lp1961
S':'
asbag56
(g77
g58
NtRp1962
(dp1963
g61
(dp1964
sg70
g1949
sg63
(lp1965
g56
(g57
g58
NtRp1966
(dp1967
g61
(dp1968
g69
I3
ssg70
g1962
sg63
(lp1969
g189
asbasbasbag56
(g72
g58
NtRp1970
(dp1971
g61
(dp1972
sg70
g1693
sg63
(lp1973
g56
(g77
g58
NtRp1974
(dp1975
g61
(dp1976
g81
g82
ssg70
g1970
sg63
(lp1977
S'REMOTE_PORT'
p1978
asbag56
(g77
g58
NtRp1979
(dp1980
g61
(dp1981
g88
g89
ssg70
g1970
sg63
(lp1982
S':'
asbag56
(g77
g58
NtRp1983
(dp1984
g61
(dp1985
sg70
g1970
sg63
(lp1986
g56
(g57
g58
NtRp1987
(dp1988
g61
(dp1989
g69
I3
ssg70
g1983
sg63
(lp1990
g917
asbasbasbag56
(g72
g58
NtRp1991
(dp1992
g61
(dp1993
sg70
g1693
sg63
(lp1994
g56
(g77
g58
NtRp1995
(dp1996
g61
(dp1997
g81
g82
ssg70
g1991
sg63
(lp1998
S'REQUEST_METHOD'
p1999
asbag56
(g77
g58
NtRp2000
(dp2001
g61
(dp2002
g88
g89
ssg70
g1991
sg63
(lp2003
S':'
asbag56
(g77
g58
NtRp2004
(dp2005
g61
(dp2006
sg70
g1991
sg63
(lp2007
g56
(g57
g58
NtRp2008
(dp2009
g61
(dp2010
g69
I3
ssg70
g2004
sg63
(lp2011
g939
asbasbasbag56
(g72
g58
NtRp2012
(dp2013
g61
(dp2014
sg70
g1693
sg63
(lp2015
g56
(g77
g58
NtRp2016
(dp2017
g61
(dp2018
g81
g82
ssg70
g2012
sg63
(lp2019
S'SCRIPT_NAME'
p2020
asbag56
(g77
g58
NtRp2021
(dp2022
g61
(dp2023
g88
g89
ssg70
g2012
sg63
(lp2024
S':'
asbag56
(g77
g58
NtRp2025
(dp2026
g61
(dp2027
sg70
g2012
sg63
(lp2028
g56
(g57
g58
NtRp2029
(dp2030
g61
(dp2031
g69
I3
ssg70
g2025
sg63
(lp2032
S''
asbasbasbag56
(g72
g58
NtRp2033
(dp2034
g61
(dp2035
sg70
g1693
sg63
(lp2036
g56
(g77
g58
NtRp2037
(dp2038
g61
(dp2039
g81
g82
ssg70
g2033
sg63
(lp2040
S'SERVER_NAME'
p2041
asbag56
(g77
g58
NtRp2042
(dp2043
g61
(dp2044
g88
g89
ssg70
g2033
sg63
(lp2045
S':'
asbag56
(g77
g58
NtRp2046
(dp2047
g61
(dp2048
sg70
g2033
sg63
(lp2049
g56
(g57
g58
NtRp2050
(dp2051
g61
(dp2052
g69
I3
ssg70
g2046
sg63
(lp2053
g982
asbasbasbag56
(g72
g58
NtRp2054
(dp2055
g61
(dp2056
sg70
g1693
sg63
(lp2057
g56
(g77
g58
NtRp2058
(dp2059
g61
(dp2060
g81
g82
ssg70
g2054
sg63
(lp2061
S'SERVER_PORT'
p2062
asbag56
(g77
g58
NtRp2063
(dp2064
g61
(dp2065
g88
g89
ssg70
g2054
sg63
(lp2066
S':'
asbag56
(g77
g58
NtRp2067
(dp2068
g61
(dp2069
sg70
g2054
sg63
(lp2070
g56
(g57
g58
NtRp2071
(dp2072
g61
(dp2073
g69
I3
ssg70
g2067
sg63
(lp2074
g1004
asbasbasbag56
(g72
g58
NtRp2075
(dp2076
g61
(dp2077
sg70
g1693
sg63
(lp2078
g56
(g77
g58
NtRp2079
(dp2080
g61
(dp2081
g81
g82
ssg70
g2075
sg63
(lp2082
S'SERVER_PROTOCOL'
p2083
asbag56
(g77
g58
NtRp2084
(dp2085
g61
(dp2086
g88
g89
ssg70
g2075
sg63
(lp2087
S':'
asbag56
(g77
g58
NtRp2088
(dp2089
g61
(dp2090
sg70
g2075
sg63
(lp2091
g56
(g57
g58
NtRp2092
(dp2093
g61
(dp2094
g69
I3
ssg70
g2088
sg63
(lp2095
g1026
asbasbasbag56
(g72
g58
NtRp2096
(dp2097
g61
(dp2098
sg70
g1693
sg63
(lp2099
g56
(g77
g58
NtRp2100
(dp2101
g61
(dp2102
g81
g82
ssg70
g2096
sg63
(lp2103
S'SERVER_SOFTWARE'
p2104
asbag56
(g77
g58
NtRp2105
(dp2106
g61
(dp2107
g88
g89
ssg70
g2096
sg63
(lp2108
S':'
asbag56
(g77
g58
NtRp2109
(dp2110
g61
(dp2111
sg70
g2096
sg63
(lp2112
g56
(g57
g58
NtRp2113
(dp2114
g61
(dp2115
g69
I3
ssg70
g2109
sg63
(lp2116
g1048
asbasbasbag56
(g72
g58
NtRp2117
(dp2118
g61
(dp2119
sg70
g1693
sg63
(lp2120
g56
(g77
g58
NtRp2121
(dp2122
g61
(dp2123
g81
g82
ssg70
g2117
sg63
(lp2124
S'wsgi.errors'
p2125
asbag56
(g77
g58
NtRp2126
(dp2127
g61
(dp2128
g88
g89
ssg70
g2117
sg63
(lp2129
S':'
asbag56
(g77
g58
NtRp2130
(dp2131
g61
(dp2132
sg70
g2117
sg63
(lp2133
g56
(g57
g58
NtRp2134
(dp2135
g61
(dp2136
g69
I3
ssg70
g2130
sg63
(lp2137
S"<open file '<stderr>', mode 'w' at 0xb784a0d0>"
p2138
asbasbasbag56
(g72
g58
NtRp2139
(dp2140
g61
(dp2141
sg70
g1693
sg63
(lp2142
g56
(g77
g58
NtRp2143
(dp2144
g61
(dp2145
g81
g82
ssg70
g2139
sg63
(lp2146
S'wsgi.file_wrapper'
p2147
asbag56
(g77
g58
NtRp2148
(dp2149
g61
(dp2150
g88
g89
ssg70
g2139
sg63
(lp2151
S':'
asbag56
(g77
g58
NtRp2152
(dp2153
g61
(dp2154
sg70
g2139
sg63
(lp2155
g56
(g57
g58
NtRp2156
(dp2157
g61
(dp2158
g69
I3
ssg70
g2152
sg63
(lp2159
S'<class gluon.rocket.FileWrapper at 0xa73744c>'
p2160
asbasbasbag56
(g72
g58
NtRp2161
(dp2162
g61
(dp2163
sg70
g1693
sg63
(lp2164
g56
(g77
g58
NtRp2165
(dp2166
g61
(dp2167
g81
g82
ssg70
g2161
sg63
(lp2168
S'wsgi.input'
p2169
asbag56
(g77
g58
NtRp2170
(dp2171
g61
(dp2172
g88
g89
ssg70
g2161
sg63
(lp2173
S':'
asbag56
(g77
g58
NtRp2174
(dp2175
g61
(dp2176
sg70
g2161
sg63
(lp2177
g56
(g57
g58
NtRp2178
(dp2179
g61
(dp2180
g69
I3
ssg70
g2174
sg63
(lp2181
S'<cStringIO.StringO object at 0xa892040>'
p2182
asbasbasbag56
(g72
g58
NtRp2183
(dp2184
g61
(dp2185
sg70
g1693
sg63
(lp2186
g56
(g77
g58
NtRp2187
(dp2188
g61
(dp2189
g81
g82
ssg70
g2183
sg63
(lp2190
S'wsgi.multiprocess'
p2191
asbag56
(g77
g58
NtRp2192
(dp2193
g61
(dp2194
g88
g89
ssg70
g2183
sg63
(lp2195
S':'
asbag56
(g77
g58
NtRp2196
(dp2197
g61
(dp2198
sg70
g2183
sg63
(lp2199
g56
(g57
g58
NtRp2200
(dp2201
g61
(dp2202
g69
I3
ssg70
g2196
sg63
(lp2203
g99
asbasbasbag56
(g72
g58
NtRp2204
(dp2205
g61
(dp2206
sg70
g1693
sg63
(lp2207
g56
(g77
g58
NtRp2208
(dp2209
g61
(dp2210
g81
g82
ssg70
g2204
sg63
(lp2211
S'wsgi.multithread'
p2212
asbag56
(g77
g58
NtRp2213
(dp2214
g61
(dp2215
g88
g89
ssg70
g2204
sg63
(lp2216
S':'
asbag56
(g77
g58
NtRp2217
(dp2218
g61
(dp2219
sg70
g2204
sg63
(lp2220
g56
(g57
g58
NtRp2221
(dp2222
g61
(dp2223
g69
I3
ssg70
g2217
sg63
(lp2224
g1222
asbasbasbag56
(g72
g58
NtRp2225
(dp2226
g61
(dp2227
sg70
g1693
sg63
(lp2228
g56
(g77
g58
NtRp2229
(dp2230
g61
(dp2231
g81
g82
ssg70
g2225
sg63
(lp2232
S'wsgi.run_once'
p2233
asbag56
(g77
g58
NtRp2234
(dp2235
g61
(dp2236
g88
g89
ssg70
g2225
sg63
(lp2237
S':'
asbag56
(g77
g58
NtRp2238
(dp2239
g61
(dp2240
sg70
g2225
sg63
(lp2241
g56
(g57
g58
NtRp2242
(dp2243
g61
(dp2244
g69
I3
ssg70
g2238
sg63
(lp2245
g99
asbasbasbag56
(g72
g58
NtRp2246
(dp2247
g61
(dp2248
sg70
g1693
sg63
(lp2249
g56
(g77
g58
NtRp2250
(dp2251
g61
(dp2252
g81
g82
ssg70
g2246
sg63
(lp2253
S'wsgi.url_scheme'
p2254
asbag56
(g77
g58
NtRp2255
(dp2256
g61
(dp2257
g88
g89
ssg70
g2246
sg63
(lp2258
S':'
asbag56
(g77
g58
NtRp2259
(dp2260
g61
(dp2261
sg70
g2246
sg63
(lp2262
g56
(g57
g58
NtRp2263
(dp2264
g61
(dp2265
g69
I3
ssg70
g2259
sg63
(lp2266
g1265
asbasbasbag56
(g72
g58
NtRp2267
(dp2268
g61
(dp2269
sg70
g1693
sg63
(lp2270
g56
(g77
g58
NtRp2271
(dp2272
g61
(dp2273
g81
g82
ssg70
g2267
sg63
(lp2274
S'wsgi.version'
p2275
asbag56
(g77
g58
NtRp2276
(dp2277
g61
(dp2278
g88
g89
ssg70
g2267
sg63
(lp2279
S':'
asbag56
(g77
g58
NtRp2280
(dp2281
g61
(dp2282
sg70
g2267
sg63
(lp2283
g56
(g57
g58
NtRp2284
(dp2285
g61
(dp2286
g69
I3
ssg70
g2280
sg63
(lp2287
S'1'
asbasbasbasbasbasbasbasbasbasbasbasbasbsS'frames'
p2288
(lp2289
(dp2290
S'file'
p2291
S'/home/jacobbl/SENG265/exercise2_jacob/codeAct_1.01/web2py/gluon/restricted.py'
p2292
sS'dump'
p2293
(dp2294
S'environment'
p2295
S"{'A': <class 'gluon.html.A'>, 'B': <class 'gluon.html.B'>, 'BEAUTIFY': <class 'gluon.html.BEAUTIFY'>, 'BODY': <class 'gluon.html.BODY'>, 'BR': <class 'gluon.html.BR'>, 'CENTER': <class 'gluon.html.CENTER'>, 'CLEANUP': <class 'gluon.validators.CLEANUP'>, 'CODE': <class 'gluon.html.CODE'>, 'CRYPT': <class 'gluon.validators.CRYPT'>, 'DAL': <class 'gluon.dal.DAL'>, ...}"
p2296
sS'ccode'
p2297
S'<code object <module> at 0xa9087b8, file "/home/...ns/codeAct/controllers/ca_controller.py", line 1>'
p2298
ssS'lnum'
p2299
I181
sS'lines'
p2300
(dp2301
I176
S'    try:'
p2302
sI177
S'        if type(code) == types.CodeType:'
p2303
sI178
S'            ccode = code'
p2304
sI179
S'        else:'
p2305
sI180
S'            ccode = compile2(code,layer)'
p2306
sI181
S'        exec ccode in environment'
p2307
sI182
S'    except HTTP:'
p2308
sI183
S'        raise'
p2309
sI184
S'    except Exception:'
p2310
sI185
S'        # XXX Show exception in Wing IDE if running in debugger'
p2311
ssS'call'
p2312
S"(code='import sys\\nimport time\\nimport os\\n\\nimport ca_quiz...turn code\\n\\nresponse._vars=response._caller(quiz)\\n', environment={'A': <class 'gluon.html.A'>, 'B': <class 'gluon.html.B'>, 'BEAUTIFY': <class 'gluon.html.BEAUTIFY'>, 'BODY': <class 'gluon.html.BODY'>, 'BR': <class 'gluon.html.BR'>, 'CENTER': <class 'gluon.html.CENTER'>, 'CLEANUP': <class 'gluon.validators.CLEANUP'>, 'CODE': <class 'gluon.html.CODE'>, 'CRYPT': <class 'gluon.validators.CRYPT'>, 'DAL': <class 'gluon.dal.DAL'>, ...}, layer='/home/jacobbl/SENG265/exercise2_jacob/codeAct_1....applications/codeAct/controllers/ca_controller.py')"
p2313
sS'func'
p2314
S'restricted'
p2315
sa(dp2316
g2291
S'/home/jacobbl/SENG265/exercise2_jacob/codeAct_1.01/web2py/applications/codeAct/controllers/ca_controller.py'
p2317
sg2293
(dp2318
sg2299
I85
sg2300
(dp2319
I74
S"\t session['quiz'].practice_mode,session['login'],"
p2320
sI75
S"\t session['answer_list'][question_number-1],"
p2321
sI76
S"\t request.vars,session['question_timer'])"
p2322
sI77
S"\tcode = utility.add_submit_label(code,session['quiz'].practice_mode)"
p2323
sI78
S'\tcode = utility.disable_navi_buttons(code,question_number,'
p2324
sI79
S"\t session['quiz'])"
p2325
sI80
S''
sI81
S'\t# update question timer'
p2326
sI82
S"\tsession['question_timer'] = int(time.time())"
p2327
sI83
S'\treturn code'
p2328
ssg2312
S'()'
p2329
sg2314
S'<module>'
p2330
sa(dp2331
g2291
S'/home/jacobbl/SENG265/exercise2_jacob/codeAct_1.01/web2py/gluon/globals.py'
p2332
sg2293
(dp2333
S'self'
p2334
S'undefined'
p2335
sS'f'
S'<function quiz>'
p2336
ssg2299
I133
sg2300
(dp2337
I128
S"        self.flash = ''           # used by the default view layout"
p2338
sI129
S'        self.meta = Storage()     # used by web2py_ajax.html'
p2339
sI130
S'        self.menu = []            # used by the default view layout'
p2340
sI131
S'        self.files = []           # used by web2py_ajax.html'
p2341
sI132
S'        self._vars = None'
p2342
sI133
S'        self._caller = lambda f: f()'
p2343
sI134
S'        self._view_environment = None'
p2344
sI135
S'        self._custom_commit = None'
p2345
sI136
S'        self._custom_rollback = None'
p2346
sI137
S''
ssg2312
S'(f=<function quiz>)'
p2347
sg2314
S'<lambda>'
p2348
sa(dp2349
g2291
S'/home/jacobbl/SENG265/exercise2_jacob/codeAct_1.01/web2py/applications/codeAct/controllers/ca_controller.py'
p2350
sg2293
(dp2351
S'].get_question'
p2352
S'None'
p2353
sS'global session'
p2354
S"<Storage {'login': '', 'question_timer': 1309647...], 'quiz': <ca_quiz.quiz instance at 0xa89d62c>}>"
p2355
sS'question'
p2356
g2335
sS'question_number'
p2357
S'5'
ssg2299
I67
sg2300
(dp2358
I64
S''
sI65
S'\t# generate HTML code'
p2359
sI66
S'\tquestion_number = utility.get_question_number(request.vars)'
p2360
sI67
S"\tquestion = session['quiz'].get_question(question_number-1)"
p2361
sI68
S"\tutility.update_answer(question,question_number,session['answer_list'],"
p2362
sI69
S'\t request.vars)'
p2363
sI70
S"\tcode = question_HTML.generate_html(session['quiz'],question_number,"
p2364
sI71
S"\t session['answer_list'][question_number-1])"
p2365
sI62
S"\t\tlog_create.create_log(session['quiz'].log_dir,"
p2366
sI63
S"\t\t session['login'])"
p2367
ssg2312
S'()'
p2368
sg2314
S'quiz'
p2369
sa(dp2370
g2291
S'/home/jacobbl/SENG265/exercise2_jacob/codeAct_1.01/web2py/applications/codeAct/ca_quiz.py'
p2371
sg2293
(dp2372
S'self.question_list'
p2373
S'[<ca_question.liar_liar instance>]'
p2374
sS'self'
p2375
S'<ca_quiz.quiz instance>'
p2376
sS'index'
p2377
S'4'
ssg2299
I63
sg2300
(dp2378
I64
S'\t\t# if index is out of range, should we return the first question'
p2379
sI65
S'\t\t# instead of throw an exception'
p2380
sI56
S"\t'''"
p2381
sI57
S'\tPurpose'
p2382
sI58
S'\t\treturn the ith question'
p2383
sI59
S'\tPrecondition'
p2384
sI60
S'\t\tindex > 0 and index < len(self.question_list)'
p2385
sI61
S"\t'''"
p2386
sI62
S'\tdef get_question(self,index):'
p2387
sI63
S'\t\treturn self.question_list[index]'
p2388
ssg2312
S'(self=<ca_quiz.quiz instance>, index=4)'
p2389
sg2314
S'get_question'
p2390
sasS'pyver'
p2391
S'Python 2.6.5: /usr/bin/python'
p2392
sS'session'
p2393
g56
(g57
g58
NtRp2394
(dp2395
g61
(dp2396
sg63
(lp2397
g56
(g65
g58
NtRp2398
(dp2399
g61
(dp2400
g69
I5
ssg70
Nsg63
(lp2401
g56
(g72
g58
NtRp2402
(dp2403
g61
(dp2404
sg70
g2398
sg63
(lp2405
g56
(g77
g58
NtRp2406
(dp2407
g61
(dp2408
g81
g82
ssg70
g2402
sg63
(lp2409
S'answer_list'
p2410
asbag56
(g77
g58
NtRp2411
(dp2412
g61
(dp2413
g88
g89
ssg70
g2402
sg63
(lp2414
S':'
asbag56
(g77
g58
NtRp2415
(dp2416
g61
(dp2417
sg70
g2402
sg63
(lp2418
g56
(g57
g58
NtRp2419
(dp2420
g61
(dp2421
g69
I5
ssg70
g2415
sg63
(lp2422
g56
(g65
g58
NtRp2423
(dp2424
g61
(dp2425
g69
I4
ssg70
Nsg63
(lp2426
g56
(g72
g58
NtRp2427
(dp2428
g61
(dp2429
sg70
g2423
sg63
(lp2430
g56
(g77
g58
NtRp2431
(dp2432
g61
(dp2433
sg70
g2427
sg63
(lp2434
g56
(g57
g58
NtRp2435
(dp2436
g61
(dp2437
g69
I4
ssg70
g2431
sg63
(lp2438
g56
(g65
g58
NtRp2439
(dp2440
g61
(dp2441
g69
I3
ssg70
Nsg63
(lp2442
g56
(g72
g58
NtRp2443
(dp2444
g61
(dp2445
sg70
g2439
sg63
(lp2446
g56
(g77
g58
NtRp2447
(dp2448
g61
(dp2449
g81
g82
ssg70
g2443
sg63
(lp2450
S'argvs'
p2451
asbag56
(g77
g58
NtRp2452
(dp2453
g61
(dp2454
g88
g89
ssg70
g2443
sg63
(lp2455
S':'
asbag56
(g77
g58
NtRp2456
(dp2457
g61
(dp2458
sg70
g2443
sg63
(lp2459
g56
(g57
g58
NtRp2460
(dp2461
g61
(dp2462
g69
I3
ssg70
g2456
sg63
(lp2463
g56
(g65
g58
NtRp2464
(dp2465
g61
(dp2466
g69
I2
ssg70
Nsg63
(lp2467
sbasbasbasbag56
(g72
g58
NtRp2468
(dp2469
g61
(dp2470
sg70
g2439
sg63
(lp2471
g56
(g77
g58
NtRp2472
(dp2473
g61
(dp2474
g81
g82
ssg70
g2468
sg63
(lp2475
S'code'
p2476
asbag56
(g77
g58
NtRp2477
(dp2478
g61
(dp2479
g88
g89
ssg70
g2468
sg63
(lp2480
S':'
asbag56
(g77
g58
NtRp2481
(dp2482
g61
(dp2483
sg70
g2468
sg63
(lp2484
g56
(g57
g58
NtRp2485
(dp2486
g61
(dp2487
g69
I3
ssg70
g2481
sg63
(lp2488
g56
(g65
g58
NtRp2489
(dp2490
g61
(dp2491
g69
I2
ssg70
Nsg63
(lp2492
g56
(g72
g58
NtRp2493
(dp2494
g61
(dp2495
sg70
g2489
sg63
(lp2496
g56
(g77
g58
NtRp2497
(dp2498
g61
(dp2499
g81
g82
ssg70
g2493
sg63
(lp2500
S'$x1'
p2501
asbag56
(g77
g58
NtRp2502
(dp2503
g61
(dp2504
g88
g89
ssg70
g2493
sg63
(lp2505
S':'
asbag56
(g77
g58
NtRp2506
(dp2507
g61
(dp2508
sg70
g2493
sg63
(lp2509
g56
(g57
g58
NtRp2510
(dp2511
g61
(dp2512
g69
I2
ssg70
g2506
sg63
(lp2513
S'6'
asbasbasbag56
(g72
g58
NtRp2514
(dp2515
g61
(dp2516
sg70
g2489
sg63
(lp2517
g56
(g77
g58
NtRp2518
(dp2519
g61
(dp2520
g81
g82
ssg70
g2514
sg63
(lp2521
S'$x2'
p2522
asbag56
(g77
g58
NtRp2523
(dp2524
g61
(dp2525
g88
g89
ssg70
g2514
sg63
(lp2526
S':'
asbag56
(g77
g58
NtRp2527
(dp2528
g61
(dp2529
sg70
g2514
sg63
(lp2530
g56
(g57
g58
NtRp2531
(dp2532
g61
(dp2533
g69
I2
ssg70
g2527
sg63
(lp2534
S'3'
asbasbasbasbasbasbasbag56
(g72
g58
NtRp2535
(dp2536
g61
(dp2537
sg70
g2439
sg63
(lp2538
g56
(g77
g58
NtRp2539
(dp2540
g61
(dp2541
g81
g82
ssg70
g2535
sg63
(lp2542
S'stdin'
p2543
asbag56
(g77
g58
NtRp2544
(dp2545
g61
(dp2546
g88
g89
ssg70
g2535
sg63
(lp2547
S':'
asbag56
(g77
g58
NtRp2548
(dp2549
g61
(dp2550
sg70
g2535
sg63
(lp2551
g56
(g57
g58
NtRp2552
(dp2553
g61
(dp2554
g69
I3
ssg70
g2548
sg63
(lp2555
g56
(g65
g58
NtRp2556
(dp2557
g61
(dp2558
g69
I2
ssg70
Nsg63
(lp2559
sbasbasbasbag56
(g72
g58
NtRp2560
(dp2561
g61
(dp2562
sg70
g2439
sg63
(lp2563
g56
(g77
g58
NtRp2564
(dp2565
g61
(dp2566
g81
g82
ssg70
g2560
sg63
(lp2567
S'stdout'
p2568
asbag56
(g77
g58
NtRp2569
(dp2570
g61
(dp2571
g88
g89
ssg70
g2560
sg63
(lp2572
S':'
asbag56
(g77
g58
NtRp2573
(dp2574
g61
(dp2575
sg70
g2560
sg63
(lp2576
g56
(g57
g58
NtRp2577
(dp2578
g61
(dp2579
g69
I3
ssg70
g2573
sg63
(lp2580
g56
(g65
g58
NtRp2581
(dp2582
g61
(dp2583
g69
I2
ssg70
Nsg63
(lp2584
sbasbasbasbasbasbasbasbasbasbasbasbag56
(g72
g58
NtRp2585
(dp2586
g61
(dp2587
sg70
g2398
sg63
(lp2588
g56
(g77
g58
NtRp2589
(dp2590
g61
(dp2591
g81
g82
ssg70
g2585
sg63
(lp2592
S'login'
p2593
asbag56
(g77
g58
NtRp2594
(dp2595
g61
(dp2596
g88
g89
ssg70
g2585
sg63
(lp2597
S':'
asbag56
(g77
g58
NtRp2598
(dp2599
g61
(dp2600
sg70
g2585
sg63
(lp2601
g56
(g57
g58
NtRp2602
(dp2603
g61
(dp2604
g69
I5
ssg70
g2598
sg63
(lp2605
S''
asbasbasbag56
(g72
g58
NtRp2606
(dp2607
g61
(dp2608
sg70
g2398
sg63
(lp2609
g56
(g77
g58
NtRp2610
(dp2611
g61
(dp2612
g81
g82
ssg70
g2606
sg63
(lp2613
S'question_timer'
p2614
asbag56
(g77
g58
NtRp2615
(dp2616
g61
(dp2617
g88
g89
ssg70
g2606
sg63
(lp2618
S':'
asbag56
(g77
g58
NtRp2619
(dp2620
g61
(dp2621
sg70
g2606
sg63
(lp2622
g56
(g57
g58
NtRp2623
(dp2624
g61
(dp2625
g69
I5
ssg70
g2619
sg63
(lp2626
S'1309647405'
p2627
asbasbasbag56
(g72
g58
NtRp2628
(dp2629
g61
(dp2630
sg70
g2398
sg63
(lp2631
g56
(g77
g58
NtRp2632
(dp2633
g61
(dp2634
g81
g82
ssg70
g2628
sg63
(lp2635
S'quiz'
p2636
asbag56
(g77
g58
NtRp2637
(dp2638
g61
(dp2639
g88
g89
ssg70
g2628
sg63
(lp2640
S':'
asbag56
(g77
g58
NtRp2641
(dp2642
g61
(dp2643
sg70
g2628
sg63
(lp2644
g56
(g57
g58
NtRp2645
(dp2646
g61
(dp2647
g69
I5
ssg70
g2641
sg63
(lp2648
S'<ca_quiz.quiz instance at 0xa89d62c>'
p2649
asbasbasbasbasbsS'etype'
p2650
S"<type 'exceptions.IndexError'>"
p2651
sS'date'
p2652
S'Sat Jul  2 15:57:15 2011'
p2653
sS'response'
p2654
g56
(g57
g58
NtRp2655
(dp2656
g61
(dp2657
sg63
(lp2658
g56
(g65
g58
NtRp2659
(dp2660
g61
(dp2661
g69
I5
ssg70
Nsg63
(lp2662
g56
(g72
g58
NtRp2663
(dp2664
g61
(dp2665
sg70
g2659
sg63
(lp2666
g56
(g77
g58
NtRp2667
(dp2668
g61
(dp2669
g81
g82
ssg70
g2663
sg63
(lp2670
g154
asbag56
(g77
g58
NtRp2671
(dp2672
g61
(dp2673
g88
g89
ssg70
g2663
sg63
(lp2674
S':'
asbag56
(g77
g58
NtRp2675
(dp2676
g61
(dp2677
sg70
g2663
sg63
(lp2678
g56
(g57
g58
NtRp2679
(dp2680
g61
(dp2681
g69
I5
ssg70
g2675
sg63
(lp2682
S'<cStringIO.StringO object at 0xa882640>'
p2683
asbasbasbag56
(g72
g58
NtRp2684
(dp2685
g61
(dp2686
sg70
g2659
sg63
(lp2687
g56
(g77
g58
NtRp2688
(dp2689
g61
(dp2690
g81
g82
ssg70
g2684
sg63
(lp2691
g220
asbag56
(g77
g58
NtRp2692
(dp2693
g61
(dp2694
g88
g89
ssg70
g2684
sg63
(lp2695
S':'
asbag56
(g77
g58
NtRp2696
(dp2697
g61
(dp2698
sg70
g2684
sg63
(lp2699
g56
(g57
g58
NtRp2700
(dp2701
g61
(dp2702
g69
I5
ssg70
g2696
sg63
(lp2703
g56
(g65
g58
NtRp2704
(dp2705
g61
(dp2706
g69
I4
ssg70
Nsg63
(lp2707
g56
(g72
g58
NtRp2708
(dp2709
g61
(dp2710
sg70
g2704
sg63
(lp2711
g56
(g77
g58
NtRp2712
(dp2713
g61
(dp2714
g81
g82
ssg70
g2708
sg63
(lp2715
S'session_id_codeact'
p2716
asbag56
(g77
g58
NtRp2717
(dp2718
g61
(dp2719
g88
g89
ssg70
g2708
sg63
(lp2720
S':'
asbag56
(g77
g58
NtRp2721
(dp2722
g61
(dp2723
sg70
g2708
sg63
(lp2724
g56
(g57
g58
NtRp2725
(dp2726
g61
(dp2727
g69
I4
ssg70
g2721
sg63
(lp2728
g56
(g65
g58
NtRp2729
(dp2730
g61
(dp2731
g69
I3
ssg70
Nsg63
(lp2732
g56
(g72
g58
NtRp2733
(dp2734
g61
(dp2735
sg70
g2729
sg63
(lp2736
g56
(g77
g58
NtRp2737
(dp2738
g61
(dp2739
g81
g82
ssg70
g2733
sg63
(lp2740
g270
asbag56
(g77
g58
NtRp2741
(dp2742
g61
(dp2743
g88
g89
ssg70
g2733
sg63
(lp2744
S':'
asbag56
(g77
g58
NtRp2745
(dp2746
g61
(dp2747
sg70
g2733
sg63
(lp2748
g56
(g57
g58
NtRp2749
(dp2750
g61
(dp2751
g69
I3
ssg70
g2745
sg63
(lp2752
S''
asbasbasbag56
(g72
g58
NtRp2753
(dp2754
g61
(dp2755
sg70
g2729
sg63
(lp2756
g56
(g77
g58
NtRp2757
(dp2758
g61
(dp2759
g81
g82
ssg70
g2753
sg63
(lp2760
g291
asbag56
(g77
g58
NtRp2761
(dp2762
g61
(dp2763
g88
g89
ssg70
g2753
sg63
(lp2764
S':'
asbag56
(g77
g58
NtRp2765
(dp2766
g61
(dp2767
sg70
g2753
sg63
(lp2768
g56
(g57
g58
NtRp2769
(dp2770
g61
(dp2771
g69
I3
ssg70
g2765
sg63
(lp2772
S''
asbasbasbag56
(g72
g58
NtRp2773
(dp2774
g61
(dp2775
sg70
g2729
sg63
(lp2776
g56
(g77
g58
NtRp2777
(dp2778
g61
(dp2779
g81
g82
ssg70
g2773
sg63
(lp2780
g312
asbag56
(g77
g58
NtRp2781
(dp2782
g61
(dp2783
g88
g89
ssg70
g2773
sg63
(lp2784
S':'
asbag56
(g77
g58
NtRp2785
(dp2786
g61
(dp2787
sg70
g2773
sg63
(lp2788
g56
(g57
g58
NtRp2789
(dp2790
g61
(dp2791
g69
I3
ssg70
g2785
sg63
(lp2792
S''
asbasbasbag56
(g72
g58
NtRp2793
(dp2794
g61
(dp2795
sg70
g2729
sg63
(lp2796
g56
(g77
g58
NtRp2797
(dp2798
g61
(dp2799
g81
g82
ssg70
g2793
sg63
(lp2800
g333
asbag56
(g77
g58
NtRp2801
(dp2802
g61
(dp2803
g88
g89
ssg70
g2793
sg63
(lp2804
S':'
asbag56
(g77
g58
NtRp2805
(dp2806
g61
(dp2807
sg70
g2793
sg63
(lp2808
g56
(g57
g58
NtRp2809
(dp2810
g61
(dp2811
g69
I3
ssg70
g2805
sg63
(lp2812
S''
asbasbasbag56
(g72
g58
NtRp2813
(dp2814
g61
(dp2815
sg70
g2729
sg63
(lp2816
g56
(g77
g58
NtRp2817
(dp2818
g61
(dp2819
g81
g82
ssg70
g2813
sg63
(lp2820
g354
asbag56
(g77
g58
NtRp2821
(dp2822
g61
(dp2823
g88
g89
ssg70
g2813
sg63
(lp2824
S':'
asbag56
(g77
g58
NtRp2825
(dp2826
g61
(dp2827
sg70
g2813
sg63
(lp2828
g56
(g57
g58
NtRp2829
(dp2830
g61
(dp2831
g69
I3
ssg70
g2825
sg63
(lp2832
S''
asbasbasbag56
(g72
g58
NtRp2833
(dp2834
g61
(dp2835
sg70
g2729
sg63
(lp2836
g56
(g77
g58
NtRp2837
(dp2838
g61
(dp2839
g81
g82
ssg70
g2833
sg63
(lp2840
g375
asbag56
(g77
g58
NtRp2841
(dp2842
g61
(dp2843
g88
g89
ssg70
g2833
sg63
(lp2844
S':'
asbag56
(g77
g58
NtRp2845
(dp2846
g61
(dp2847
sg70
g2833
sg63
(lp2848
g56
(g57
g58
NtRp2849
(dp2850
g61
(dp2851
g69
I3
ssg70
g2845
sg63
(lp2852
S'/'
asbasbasbag56
(g72
g58
NtRp2853
(dp2854
g61
(dp2855
sg70
g2729
sg63
(lp2856
g56
(g77
g58
NtRp2857
(dp2858
g61
(dp2859
g81
g82
ssg70
g2853
sg63
(lp2860
g396
asbag56
(g77
g58
NtRp2861
(dp2862
g61
(dp2863
g88
g89
ssg70
g2853
sg63
(lp2864
S':'
asbag56
(g77
g58
NtRp2865
(dp2866
g61
(dp2867
sg70
g2853
sg63
(lp2868
g56
(g57
g58
NtRp2869
(dp2870
g61
(dp2871
g69
I3
ssg70
g2865
sg63
(lp2872
S''
asbasbasbag56
(g72
g58
NtRp2873
(dp2874
g61
(dp2875
sg70
g2729
sg63
(lp2876
g56
(g77
g58
NtRp2877
(dp2878
g61
(dp2879
g81
g82
ssg70
g2873
sg63
(lp2880
g417
asbag56
(g77
g58
NtRp2881
(dp2882
g61
(dp2883
g88
g89
ssg70
g2873
sg63
(lp2884
S':'
asbag56
(g77
g58
NtRp2885
(dp2886
g61
(dp2887
sg70
g2873
sg63
(lp2888
g56
(g57
g58
NtRp2889
(dp2890
g61
(dp2891
g69
I3
ssg70
g2885
sg63
(lp2892
S''
asbasbasbasbasbasbasbasbasbasbasbag56
(g72
g58
NtRp2893
(dp2894
g61
(dp2895
sg70
g2659
sg63
(lp2896
g56
(g77
g58
NtRp2897
(dp2898
g61
(dp2899
g81
g82
ssg70
g2893
sg63
(lp2900
S'files'
p2901
asbag56
(g77
g58
NtRp2902
(dp2903
g61
(dp2904
g88
g89
ssg70
g2893
sg63
(lp2905
S':'
asbag56
(g77
g58
NtRp2906
(dp2907
g61
(dp2908
sg70
g2893
sg63
(lp2909
g56
(g57
g58
NtRp2910
(dp2911
g61
(dp2912
g69
I5
ssg70
g2906
sg63
(lp2913
g56
(g65
g58
NtRp2914
(dp2915
g61
(dp2916
g69
I4
ssg70
Nsg63
(lp2917
sbasbasbasbag56
(g72
g58
NtRp2918
(dp2919
g61
(dp2920
sg70
g2659
sg63
(lp2921
g56
(g77
g58
NtRp2922
(dp2923
g61
(dp2924
g81
g82
ssg70
g2918
sg63
(lp2925
S'flash'
p2926
asbag56
(g77
g58
NtRp2927
(dp2928
g61
(dp2929
g88
g89
ssg70
g2918
sg63
(lp2930
S':'
asbag56
(g77
g58
NtRp2931
(dp2932
g61
(dp2933
sg70
g2918
sg63
(lp2934
g56
(g57
g58
NtRp2935
(dp2936
g61
(dp2937
g69
I5
ssg70
g2931
sg63
(lp2938
S''
asbasbasbag56
(g72
g58
NtRp2939
(dp2940
g61
(dp2941
sg70
g2659
sg63
(lp2942
g56
(g77
g58
NtRp2943
(dp2944
g61
(dp2945
g81
g82
ssg70
g2939
sg63
(lp2946
S'headers'
p2947
asbag56
(g77
g58
NtRp2948
(dp2949
g61
(dp2950
g88
g89
ssg70
g2939
sg63
(lp2951
S':'
asbag56
(g77
g58
NtRp2952
(dp2953
g61
(dp2954
sg70
g2939
sg63
(lp2955
g56
(g57
g58
NtRp2956
(dp2957
g61
(dp2958
g69
I5
ssg70
g2952
sg63
(lp2959
g56
(g65
g58
NtRp2960
(dp2961
g61
(dp2962
g69
I4
ssg70
Nsg63
(lp2963
g56
(g72
g58
NtRp2964
(dp2965
g61
(dp2966
sg70
g2960
sg63
(lp2967
g56
(g77
g58
NtRp2968
(dp2969
g61
(dp2970
g81
g82
ssg70
g2964
sg63
(lp2971
S'Cache-Control'
p2972
asbag56
(g77
g58
NtRp2973
(dp2974
g61
(dp2975
g88
g89
ssg70
g2964
sg63
(lp2976
S':'
asbag56
(g77
g58
NtRp2977
(dp2978
g61
(dp2979
sg70
g2964
sg63
(lp2980
g56
(g57
g58
NtRp2981
(dp2982
g61
(dp2983
g69
I4
ssg70
g2977
sg63
(lp2984
S'no-store, no-cache, must-revalidate, post-check=0, pre-check=0'
p2985
asbasbasbag56
(g72
g58
NtRp2986
(dp2987
g61
(dp2988
sg70
g2960
sg63
(lp2989
g56
(g77
g58
NtRp2990
(dp2991
g61
(dp2992
g81
g82
ssg70
g2986
sg63
(lp2993
S'Content-Type'
p2994
asbag56
(g77
g58
NtRp2995
(dp2996
g61
(dp2997
g88
g89
ssg70
g2986
sg63
(lp2998
S':'
asbag56
(g77
g58
NtRp2999
(dp3000
g61
(dp3001
sg70
g2986
sg63
(lp3002
g56
(g57
g58
NtRp3003
(dp3004
g61
(dp3005
g69
I4
ssg70
g2999
sg63
(lp3006
S'text/html; charset=utf-8'
p3007
asbasbasbag56
(g72
g58
NtRp3008
(dp3009
g61
(dp3010
sg70
g2960
sg63
(lp3011
g56
(g77
g58
NtRp3012
(dp3013
g61
(dp3014
g81
g82
ssg70
g3008
sg63
(lp3015
S'Expires'
p3016
asbag56
(g77
g58
NtRp3017
(dp3018
g61
(dp3019
g88
g89
ssg70
g3008
sg63
(lp3020
S':'
asbag56
(g77
g58
NtRp3021
(dp3022
g61
(dp3023
sg70
g3008
sg63
(lp3024
g56
(g57
g58
NtRp3025
(dp3026
g61
(dp3027
g69
I4
ssg70
g3021
sg63
(lp3028
S'Sat, 02 Jul 2011 22:57:15 GMT'
p3029
asbasbasbag56
(g72
g58
NtRp3030
(dp3031
g61
(dp3032
sg70
g2960
sg63
(lp3033
g56
(g77
g58
NtRp3034
(dp3035
g61
(dp3036
g81
g82
ssg70
g3030
sg63
(lp3037
S'Pragma'
p3038
asbag56
(g77
g58
NtRp3039
(dp3040
g61
(dp3041
g88
g89
ssg70
g3030
sg63
(lp3042
S':'
asbag56
(g77
g58
NtRp3043
(dp3044
g61
(dp3045
sg70
g3030
sg63
(lp3046
g56
(g57
g58
NtRp3047
(dp3048
g61
(dp3049
g69
I4
ssg70
g3043
sg63
(lp3050
S'no-cache'
p3051
asbasbasbasbasbasbasbag56
(g72
g58
NtRp3052
(dp3053
g61
(dp3054
sg70
g2659
sg63
(lp3055
g56
(g77
g58
NtRp3056
(dp3057
g61
(dp3058
g81
g82
ssg70
g3052
sg63
(lp3059
S'menu'
p3060
asbag56
(g77
g58
NtRp3061
(dp3062
g61
(dp3063
g88
g89
ssg70
g3052
sg63
(lp3064
S':'
asbag56
(g77
g58
NtRp3065
(dp3066
g61
(dp3067
sg70
g3052
sg63
(lp3068
g56
(g57
g58
NtRp3069
(dp3070
g61
(dp3071
g69
I5
ssg70
g3065
sg63
(lp3072
g56
(g65
g58
NtRp3073
(dp3074
g61
(dp3075
g69
I4
ssg70
Nsg63
(lp3076
sbasbasbasbag56
(g72
g58
NtRp3077
(dp3078
g61
(dp3079
sg70
g2659
sg63
(lp3080
g56
(g77
g58
NtRp3081
(dp3082
g61
(dp3083
g81
g82
ssg70
g3077
sg63
(lp3084
S'meta'
p3085
asbag56
(g77
g58
NtRp3086
(dp3087
g61
(dp3088
g88
g89
ssg70
g3077
sg63
(lp3089
S':'
asbag56
(g77
g58
NtRp3090
(dp3091
g61
(dp3092
sg70
g3077
sg63
(lp3093
g56
(g57
g58
NtRp3094
(dp3095
g61
(dp3096
g69
I5
ssg70
g3090
sg63
(lp3097
g56
(g65
g58
NtRp3098
(dp3099
g61
(dp3100
g69
I4
ssg70
Nsg63
(lp3101
sbasbasbasbag56
(g72
g58
NtRp3102
(dp3103
g61
(dp3104
sg70
g2659
sg63
(lp3105
g56
(g77
g58
NtRp3106
(dp3107
g61
(dp3108
g81
g82
ssg70
g3102
sg63
(lp3109
S'postprocessing'
p3110
asbag56
(g77
g58
NtRp3111
(dp3112
g61
(dp3113
g88
g89
ssg70
g3102
sg63
(lp3114
S':'
asbag56
(g77
g58
NtRp3115
(dp3116
g61
(dp3117
sg70
g3102
sg63
(lp3118
g56
(g57
g58
NtRp3119
(dp3120
g61
(dp3121
g69
I5
ssg70
g3115
sg63
(lp3122
g56
(g65
g58
NtRp3123
(dp3124
g61
(dp3125
g69
I4
ssg70
Nsg63
(lp3126
sbasbasbasbag56
(g72
g58
NtRp3127
(dp3128
g61
(dp3129
sg70
g2659
sg63
(lp3130
g56
(g77
g58
NtRp3131
(dp3132
g61
(dp3133
g81
g82
ssg70
g3127
sg63
(lp3134
S'session_file'
p3135
asbag56
(g77
g58
NtRp3136
(dp3137
g61
(dp3138
g88
g89
ssg70
g3127
sg63
(lp3139
S':'
asbag56
(g77
g58
NtRp3140
(dp3141
g61
(dp3142
sg70
g3127
sg63
(lp3143
g56
(g57
g58
NtRp3144
(dp3145
g61
(dp3146
g69
I5
ssg70
g3140
sg63
(lp3147
S"<open file '/home/jacobbl/SENG265/exercise2_jacob/codeAct_1.01/web2py/applications/codeAct/sessions/127.0.0.1-919396c9-dffc-4b6e-bb96-f08da977b37b', mode 'rb+' at 0xa851d30>"
p3148
asbasbasbag56
(g72
g58
NtRp3149
(dp3150
g61
(dp3151
sg70
g2659
sg63
(lp3152
g56
(g77
g58
NtRp3153
(dp3154
g61
(dp3155
g81
g82
ssg70
g3149
sg63
(lp3156
S'session_filename'
p3157
asbag56
(g77
g58
NtRp3158
(dp3159
g61
(dp3160
g88
g89
ssg70
g3149
sg63
(lp3161
S':'
asbag56
(g77
g58
NtRp3162
(dp3163
g61
(dp3164
sg70
g3149
sg63
(lp3165
g56
(g57
g58
NtRp3166
(dp3167
g61
(dp3168
g69
I5
ssg70
g3162
sg63
(lp3169
S'/home/jacobbl/SENG265/exercise2_jacob/codeAct_1.01/web2py/applications/codeAct/sessions/127.0.0.1-919396c9-dffc-4b6e-bb96-f08da977b37b'
p3170
asbasbasbag56
(g72
g58
NtRp3171
(dp3172
g61
(dp3173
sg70
g2659
sg63
(lp3174
g56
(g77
g58
NtRp3175
(dp3176
g61
(dp3177
g81
g82
ssg70
g3171
sg63
(lp3178
S'session_id'
p3179
asbag56
(g77
g58
NtRp3180
(dp3181
g61
(dp3182
g88
g89
ssg70
g3171
sg63
(lp3183
S':'
asbag56
(g77
g58
NtRp3184
(dp3185
g61
(dp3186
sg70
g3171
sg63
(lp3187
g56
(g57
g58
NtRp3188
(dp3189
g61
(dp3190
g69
I5
ssg70
g3184
sg63
(lp3191
S'127.0.0.1-919396c9-dffc-4b6e-bb96-f08da977b37b'
p3192
asbasbasbag56
(g72
g58
NtRp3193
(dp3194
g61
(dp3195
sg70
g2659
sg63
(lp3196
g56
(g77
g58
NtRp3197
(dp3198
g61
(dp3199
g81
g82
ssg70
g3193
sg63
(lp3200
S'session_id_name'
p3201
asbag56
(g77
g58
NtRp3202
(dp3203
g61
(dp3204
g88
g89
ssg70
g3193
sg63
(lp3205
S':'
asbag56
(g77
g58
NtRp3206
(dp3207
g61
(dp3208
sg70
g3193
sg63
(lp3209
g56
(g57
g58
NtRp3210
(dp3211
g61
(dp3212
g69
I5
ssg70
g3206
sg63
(lp3213
g2716
asbasbasbag56
(g72
g58
NtRp3214
(dp3215
g61
(dp3216
sg70
g2659
sg63
(lp3217
g56
(g77
g58
NtRp3218
(dp3219
g61
(dp3220
g81
g82
ssg70
g3214
sg63
(lp3221
S'session_locked'
p3222
asbag56
(g77
g58
NtRp3223
(dp3224
g61
(dp3225
g88
g89
ssg70
g3214
sg63
(lp3226
S':'
asbag56
(g77
g58
NtRp3227
(dp3228
g61
(dp3229
sg70
g3214
sg63
(lp3230
g56
(g57
g58
NtRp3231
(dp3232
g61
(dp3233
g69
I5
ssg70
g3227
sg63
(lp3234
g1222
asbasbasbag56
(g72
g58
NtRp3235
(dp3236
g61
(dp3237
sg70
g2659
sg63
(lp3238
g56
(g77
g58
NtRp3239
(dp3240
g61
(dp3241
g81
g82
ssg70
g3235
sg63
(lp3242
S'session_new'
p3243
asbag56
(g77
g58
NtRp3244
(dp3245
g61
(dp3246
g88
g89
ssg70
g3235
sg63
(lp3247
S':'
asbag56
(g77
g58
NtRp3248
(dp3249
g61
(dp3250
sg70
g3235
sg63
(lp3251
g56
(g57
g58
NtRp3252
(dp3253
g61
(dp3254
g69
I5
ssg70
g3248
sg63
(lp3255
g99
asbasbasbag56
(g72
g58
NtRp3256
(dp3257
g61
(dp3258
sg70
g2659
sg63
(lp3259
g56
(g77
g58
NtRp3260
(dp3261
g61
(dp3262
g81
g82
ssg70
g3256
sg63
(lp3263
S'status'
p3264
asbag56
(g77
g58
NtRp3265
(dp3266
g61
(dp3267
g88
g89
ssg70
g3256
sg63
(lp3268
S':'
asbag56
(g77
g58
NtRp3269
(dp3270
g61
(dp3271
sg70
g3256
sg63
(lp3272
g56
(g57
g58
NtRp3273
(dp3274
g61
(dp3275
g69
I5
ssg70
g3269
sg63
(lp3276
S'200'
p3277
asbasbasbag56
(g72
g58
NtRp3278
(dp3279
g61
(dp3280
sg70
g2659
sg63
(lp3281
g56
(g77
g58
NtRp3282
(dp3283
g61
(dp3284
g81
g82
ssg70
g3278
sg63
(lp3285
g1568
asbag56
(g77
g58
NtRp3286
(dp3287
g61
(dp3288
g88
g89
ssg70
g3278
sg63
(lp3289
S':'
asbag56
(g77
g58
NtRp3290
(dp3291
g61
(dp3292
sg70
g3278
sg63
(lp3293
g56
(g57
g58
NtRp3294
(dp3295
g61
(dp3296
g69
I5
ssg70
g3290
sg63
(lp3297
g1581
asbasbasbag56
(g72
g58
NtRp3298
(dp3299
g61
(dp3300
sg70
g2659
sg63
(lp3301
g56
(g77
g58
NtRp3302
(dp3303
g61
(dp3304
g81
g82
ssg70
g3298
sg63
(lp3305
S'view'
p3306
asbag56
(g77
g58
NtRp3307
(dp3308
g61
(dp3309
g88
g89
ssg70
g3298
sg63
(lp3310
S':'
asbag56
(g77
g58
NtRp3311
(dp3312
g61
(dp3313
sg70
g3298
sg63
(lp3314
g56
(g57
g58
NtRp3315
(dp3316
g61
(dp3317
g69
I5
ssg70
g3311
sg63
(lp3318
S'ca_controller/quiz.html'
p3319
asbasbasbasbasbsS'locals'
p3320
(dp3321
S'index'
p3322
S'4'
sS'self'
p3323
S'<ca_quiz.quiz instance>'
p3324
sssS'traceback'
p3325
S'Traceback (most recent call last):\n  File "/home/jacobbl/SENG265/exercise2_jacob/codeAct_1.01/web2py/gluon/restricted.py", line 181, in restricted\n    exec ccode in environment\n  File "/home/jacobbl/SENG265/exercise2_jacob/codeAct_1.01/web2py/applications/codeAct/controllers/ca_controller.py", line 85, in <module>\n  File "/home/jacobbl/SENG265/exercise2_jacob/codeAct_1.01/web2py/gluon/globals.py", line 133, in <lambda>\n    self._caller = lambda f: f()\n  File "/home/jacobbl/SENG265/exercise2_jacob/codeAct_1.01/web2py/applications/codeAct/controllers/ca_controller.py", line 67, in quiz\n    question = session[\'quiz\'].get_question(question_number-1)\n  File "/home/jacobbl/SENG265/exercise2_jacob/codeAct_1.01/web2py/applications/codeAct/ca_quiz.py", line 63, in get_question\n    return self.question_list[index]\nIndexError: list index out of range\n'
p3326
s.